Microchip MPLAB XC8 Compiler V3.10

Linker command line:

-W-3 \
  --edf=C:\Program Files\Microchip\xc8\v3.10\pic\dat\20250813170317_en.msgs \
  -cn -h+dist/default/debug\frei.X.debug.sym \
  --cmf=dist/default/debug\frei.X.debug.cmf -z -Q18F4550 \
  -oC:\Users\david\AppData\Local\Temp\xcAsgh0.0\driver_tmp_3.o \
  --defsym=__MPLAB_BUILD=1 --fixupoverflow=error \
  -Mdist/default/debug/frei.X.debug.map \
  --md=C:\Users\david\AppData\Local\Temp\xcAsgh0.0\driver_tmp_0.dat -E1 \
  -ver=XC8 Compiler -ACODE=00h-07FFFh -ACONST=00h-07FFFh \
  -ASMALLCONST=0800h-08FFhx120 -AMEDIUMCONST=0800h-07FFFh -ACOMRAM=01h-05Fh \
  -AABS1=00h-07FFh -ABIGRAM=01h-07FFh -ARAM=060h-0FFh,0100h-01FFhx7 \
  -ABANK0=060h-0FFh -ABANK1=0100h-01FFh -ABANK2=0200h-02FFh \
  -ABANK3=0300h-03FFh -ABANK4=0400h-04FFh -ABANK5=0500h-05FFh \
  -ABANK6=0600h-06FFh -ABANK7=0700h-07FFh -ASFR=0F60h-0FFFh \
  -ABIGSFR=0F60h-0FFFh -ACONFIG=0300000h-030000Dh -AIDLOC=0200000h-0200007h \
  -AEEDATA=0F00000h-0F000FFh -peeprom_data=EEDATA \
  -preset_vec=00h,intcode=8h,intcodelo=18h,sivt_lo,sivt_hi=CODE \
  -ppowerup=CODE,init -pramtop=0800h -psmallconst=SMALLCONST \
  -pmediumconst=MEDIUMCONST -pconst=CONST -AFARRAM=00h-00h \
  -prdata=COMRAM,nvrram=COMRAM,nvbit=COMRAM,rbss=COMRAM,rbit=COMRAM \
  -pfarbss=FARRAM,fardata=FARRAM,nvFARRAM=FARRAM \
  -pintsave_regs=BIGRAM,bigbss=BIGRAM,bigdata=BIGRAM -pbss=RAM \
  -pidata=CODE,irdata=CODE,ibigdata=CODE,ifardata=CODE -prparam=COMRAM \
  C:\Users\david\AppData\Local\Temp\xcAsgh0.0\driver_tmp_9.o \
  dist/default/debug\frei.X.debug.o 

Object code version is 3.11

Machine type is 18F4550



                Name                               Link     Load   Length Selector   Space Scale
C:\Users\david\AppData\Local\Temp\xcAsgh0.0\driver_tmp_9.o
                config                           300000   300000        8        0       4
                init                               7FFC     7FFC        4     3FFE       0
                reset_vec                             0        0        4        0       0
dist/default/debug\frei.X.debug.o
                config                           300000   300000        8        0       4
                mediumconst                        7D42     7D42      2BA     3EA1       0
                text55                             50C6     50C6       22     2863       0
                text54                             5942     5942       A4     2CA1       0
                text53                             5728     5728       78     2B94       0
                text52                             6722     6722      202     3391       0
                text51                             4FFE     4FFE        6     27FF       0
                text50                             5176     5176       28     28BB       0
                text49                             51FC     51FC       34     28FE       0
                text48                             548E     548E       58     2A47       0
                text47                             529E     529E       40     294F       0
                text46                             512C     512C       24     2896       0
                text45                             6924     6924      38E     3492       0
                text44                             656E     656E      1B4     32B7       0
                text43                             62D2     62D2      144     3169       0
                text42                             5150     5150       26     28A8       0
                text41                             5B46     5B46       C2     2DA3       0
                text40                             5004     5004        C     2802       0
                text39                             5818     5818       90     2C0C       0
                text38                             519E     519E       2C     28CF       0
                text37                             50E8     50E8       22     2874       0
                text36                             5010     5010       12     2808       0
                text35                             57A0     57A0       78     2BD0       0
                text34                             51CA     51CA       32     28E5       0
                text33                             5266     5266       38     2933       0
                text32                             506C     506C       1E     2836       0
                text31                             58A8     58A8       9A     2C54       0
                text30                             5050     5050       1C     2828       0
                text29                             6416     6416      158     320B       0
                text28                             508A     508A       1E     2845       0
                text27                             54E6     54E6       58     2A73       0
                text26                             510A     510A       22     2885       0
                text25                             6198     6198      13A     30CC       0
                text24                             5596     5596       5E     2ACB       0
                text23                             53AC     53AC       48     29D6       0
                text22                             5C08     5C08       C8     2E04       0
                text21                             53F4     53F4       48     29FA       0
                text20                             55F4     55F4       5E     2AFA       0
                text19                             5320     5320       46     2990       0
                text18                             56B6     56B6       72     2B5B       0
                text17                             5652     5652       64     2B29       0
                text16                             5A90     5A90       B6     2D48       0
                text15                             6090     6090      108     3048       0
                text14                             5038     5038       18     281C       0
                text13                             5022     5022       16     2811       0
                text12                             5230     5230       36     2918       0
                text11                             5CD0     5CD0       D4     2E68       0
                text10                             5DA4     5DA4       E2     2ED2       0
                text9                              59E6     59E6       AA     2CF3       0
                text8                              5E86     5E86      104     2F43       0
                text7                              6CB2     6CB2      426     3659       0
                text6                              70D8     70D8      4B6     386C       0
                text5                              5366     5366       46     29B3       0
                text4                              5F8A     5F8A      106     2FC5       0
                text3                              543C     543C       52     2A1E       0
                text2                              553E     553E       58     2A9F       0
                text1                              52DE     52DE       42     296F       0
                text0                              758E     758E      7B4     3AC7       0
                cstackCOMRAM                          1        1       5B        1       1
                bssBANK0                             60       60       4A       60       1
                bssCOMRAM                            5C       5C        4        1       1
                cinit                              50A8     50A8       1E     2854       0

TOTAL           Name                               Link     Load   Length     Space
        CLASS   CODE           
                init                               7FFC     7FFC        4         0
                reset_vec                             0        0        4         0
                text55                             50C6     50C6       22         0
                text54                             5942     5942       A4         0
                text53                             5728     5728       78         0
                text52                             6722     6722      202         0
                text51                             4FFE     4FFE        6         0
                text50                             5176     5176       28         0
                text49                             51FC     51FC       34         0
                text48                             548E     548E       58         0
                text47                             529E     529E       40         0
                text46                             512C     512C       24         0
                text45                             6924     6924      38E         0
                text44                             656E     656E      1B4         0
                text43                             62D2     62D2      144         0
                text42                             5150     5150       26         0
                text41                             5B46     5B46       C2         0
                text40                             5004     5004        C         0
                text39                             5818     5818       90         0
                text38                             519E     519E       2C         0
                text37                             50E8     50E8       22         0
                text36                             5010     5010       12         0
                text35                             57A0     57A0       78         0
                text34                             51CA     51CA       32         0
                text33                             5266     5266       38         0
                text32                             506C     506C       1E         0
                text31                             58A8     58A8       9A         0
                text30                             5050     5050       1C         0
                text29                             6416     6416      158         0
                text28                             508A     508A       1E         0
                text27                             54E6     54E6       58         0
                text26                             510A     510A       22         0
                text25                             6198     6198      13A         0
                text24                             5596     5596       5E         0
                text23                             53AC     53AC       48         0
                text22                             5C08     5C08       C8         0
                text21                             53F4     53F4       48         0
                text20                             55F4     55F4       5E         0
                text19                             5320     5320       46         0
                text18                             56B6     56B6       72         0
                text17                             5652     5652       64         0
                text16                             5A90     5A90       B6         0
                text15                             6090     6090      108         0
                text14                             5038     5038       18         0
                text13                             5022     5022       16         0
                text12                             5230     5230       36         0
                text11                             5CD0     5CD0       D4         0
                text10                             5DA4     5DA4       E2         0
                text9                              59E6     59E6       AA         0
                text8                              5E86     5E86      104         0
                text7                              6CB2     6CB2      426         0
                text6                              70D8     70D8      4B6         0
                text5                              5366     5366       46         0
                text4                              5F8A     5F8A      106         0
                text3                              543C     543C       52         0
                text2                              553E     553E       58         0
                text1                              52DE     52DE       42         0
                text0                              758E     758E      7B4         0
                cinit                              50A8     50A8       1E         0

        CLASS   CONST          

        CLASS   SMALLCONST     

        CLASS   MEDIUMCONST    
                mediumconst                        7D42     7D42      2BA         0

        CLASS   COMRAM         
                cstackCOMRAM                          1        1       5B         1
                bssCOMRAM                            5C       5C        4         1

        CLASS   ABS1           

        CLASS   BIGRAM         

        CLASS   RAM            

        CLASS   BANK0          
                bssBANK0                             60       60       4A         1

        CLASS   BANK1          

        CLASS   BANK2          

        CLASS   BANK3          

        CLASS   BANK4          

        CLASS   BANK5          

        CLASS   BANK6          

        CLASS   BANK7          

        CLASS   SFR            

        CLASS   BIGSFR         

        CLASS   CONFIG         
                config                           300000   300000        8         4

        CLASS   IDLOC          

        CLASS   EEDATA         

        CLASS   FARRAM         

        CLASS   HEAP           

        CLASS   STACK          



SEGMENTS        Name                           Load    Length   Top    Selector   Space  Class

                reset_vec                      000000  000004  000004         0       0  CODE    
                cstackCOMRAM                   000001  00005F  000060         1       1  COMRAM  
                bssBANK0                       000060  00004A  0000AA        60       1  BANK0   
                text51                         004FFE  000006  005004      27FF       0  CODE    
                text40                         005004  00000C  005010      2802       0  CODE    
                text36                         005010  000012  005022      2808       0  CODE    
                text13                         005022  000016  005038      2811       0  CODE    
                text14                         005038  000018  005050      281C       0  CODE    
                text30                         005050  00001C  00506C      2828       0  CODE    
                text32                         00506C  00001E  00508A      2836       0  CODE    
                text28                         00508A  00001E  0050A8      2845       0  CODE    
                cinit                          0050A8  00001E  0050C6      2854       0  CODE    
                text55                         0050C6  000022  0050E8      2863       0  CODE    
                text37                         0050E8  000022  00510A      2874       0  CODE    
                text26                         00510A  000022  00512C      2885       0  CODE    
                text46                         00512C  000024  005150      2896       0  CODE    
                text42                         005150  000026  005176      28A8       0  CODE    
                text50                         005176  000028  00519E      28BB       0  CODE    
                text38                         00519E  00002C  0051CA      28CF       0  CODE    
                text34                         0051CA  000032  0051FC      28E5       0  CODE    
                text49                         0051FC  000034  005230      28FE       0  CODE    
                text12                         005230  000036  005266      2918       0  CODE    
                text33                         005266  000038  00529E      2933       0  CODE    
                text47                         00529E  000040  0052DE      294F       0  CODE    
                text1                          0052DE  000042  005320      296F       0  CODE    
                text19                         005320  000046  005366      2990       0  CODE    
                text5                          005366  000046  0053AC      29B3       0  CODE    
                text23                         0053AC  000048  0053F4      29D6       0  CODE    
                text21                         0053F4  000048  00543C      29FA       0  CODE    
                text3                          00543C  000052  00548E      2A1E       0  CODE    
                text48                         00548E  000058  0054E6      2A47       0  CODE    
                text27                         0054E6  000058  00553E      2A73       0  CODE    
                text2                          00553E  000058  005596      2A9F       0  CODE    
                text24                         005596  00005E  0055F4      2ACB       0  CODE    
                text20                         0055F4  00005E  005652      2AFA       0  CODE    
                text17                         005652  000064  0056B6      2B29       0  CODE    
                text18                         0056B6  000072  005728      2B5B       0  CODE    
                text53                         005728  000078  0057A0      2B94       0  CODE    
                text35                         0057A0  000078  005818      2BD0       0  CODE    
                text39                         005818  000090  0058A8      2C0C       0  CODE    
                text31                         0058A8  00009A  005942      2C54       0  CODE    
                text54                         005942  0000A4  0059E6      2CA1       0  CODE    
                text9                          0059E6  0000AA  005A90      2CF3       0  CODE    
                text16                         005A90  0000B6  005B46      2D48       0  CODE    
                text41                         005B46  0000C2  005C08      2DA3       0  CODE    
                text22                         005C08  0000C8  005CD0      2E04       0  CODE    
                text11                         005CD0  0000D4  005DA4      2E68       0  CODE    
                text10                         005DA4  0000E2  005E86      2ED2       0  CODE    
                text8                          005E86  000104  005F8A      2F43       0  CODE    
                text4                          005F8A  000106  006090      2FC5       0  CODE    
                text15                         006090  000108  006198      3048       0  CODE    
                text25                         006198  00013A  0062D2      30CC       0  CODE    
                text43                         0062D2  000144  006416      3169       0  CODE    
                text29                         006416  000158  00656E      320B       0  CODE    
                text44                         00656E  0001B4  006722      32B7       0  CODE    
                text52                         006722  000202  006924      3391       0  CODE    
                text45                         006924  00038E  006CB2      3492       0  CODE    
                text7                          006CB2  000426  0070D8      3659       0  CODE    
                text6                          0070D8  0004B6  00758E      386C       0  CODE    
                text0                          00758E  0007B4  007D42      3AC7       0  CODE    
                mediumconst                    007D42  0002BA  007FFC      3EA1       0  MEDIUMCO
                init                           007FFC  000004  008000      3FFE       0  CODE    


UNUSED ADDRESS RANGES

        Name                Unused          Largest block    Delta
        BANK0            0000AA-0000FF               56
        BANK1            000100-0001FF              100
        BANK2            000200-0002FF              100
        BANK3            000300-0003FF              100
        BANK4            000400-0004FF              100
        BANK5            000500-0005FF              100
        BANK6            000600-0006FF              100
        BANK7            000700-0007FF              100
        BIGRAM           0000AA-0007FF              756
        BIGSFR           000F60-000FFF               A0
        CODE             000004-004FFD             4FFA
        CONFIG           300008-30000D                6
        CONST            000004-004FFD             4FFA
        EEDATA           F00000-F000FF              100
        IDLOC            200000-200007                8
        MEDIUMCONST      000800-004FFD             47FE
        RAM              0000AA-0007FF              100
        SFR              000F60-000FFF               A0
        SMALLCONST       000800-004FFD              100

                                  Symbol Table

?_DS18B20_ReadTemp                  cstackCOMRAM 000028
?___fladd                           cstackCOMRAM 000001
?___fldiv                           cstackCOMRAM 00000F
?___flmul                           cstackCOMRAM 000019
?___flsub                           cstackCOMRAM 000011
?___fltol                           cstackCOMRAM 000032
?___lldiv                           cstackCOMRAM 000001
?___lwdiv                           cstackCOMRAM 000001
?___lwmod                           cstackCOMRAM 000001
?___xxtofl                          cstackCOMRAM 000001
?_calcular_promedio                 cstackCOMRAM 000001
CAR_HayDedo@ir                      cstackCOMRAM 000001
CAR_ProcesarMuestra@bpm_calc        cstackCOMRAM 000020
CAR_ProcesarMuestra@delta           cstackCOMRAM 00001C
CAR_ProcesarMuestra@i               cstackCOMRAM 000022
CAR_ProcesarMuestra@ir              cstackCOMRAM 000012
CAR_ProcesarMuestra@promedio        cstackCOMRAM 000018
CAR_ProcesarMuestra@red             cstackCOMRAM 00000E
DS18B20_ReadByte@data               cstackCOMRAM 000002
DS18B20_ReadByte@i                  cstackCOMRAM 000003
DS18B20_ReadTemp@lsb                cstackCOMRAM 000030
DS18B20_ReadTemp@msb                cstackCOMRAM 000031
DS18B20_ReadTemp@raw                cstackCOMRAM 00002E
DS18B20_Reset@presence              cstackCOMRAM 000001
DS18B20_WriteByte@byte              cstackCOMRAM 000002
DS18B20_WriteByte@i                 cstackCOMRAM 000003
I2C_Read@ack                        cstackCOMRAM 000002
I2C_Read@data                       cstackCOMRAM 000003
I2C_Read@i                          cstackCOMRAM 000004
I2C_Write@data                      cstackCOMRAM 000002
I2C_Write@i                         cstackCOMRAM 000003
MAX30102_Check@part_id              cstackCOMRAM 000007
MAX30102_Init@status                cstackCOMRAM 000009
MAX30102_ReadRegister@data          cstackCOMRAM 000005
MAX30102_ReadRegister@reg           cstackCOMRAM 000006
MAX30102_ReadSample@data            cstackCOMRAM 00001C
MAX30102_ReadSample@ir              cstackCOMRAM 00000A
MAX30102_ReadSample@red             cstackCOMRAM 000009
MAX30102_SamplesAvailable@read_ptr  cstackCOMRAM 000008
MAX30102_SamplesAvailable@write_ptr cstackCOMRAM 000007
MAX30102_WriteRegister@data         cstackCOMRAM 000004
MAX30102_WriteRegister@reg          cstackCOMRAM 000005
OLED_Clear@i                        cstackCOMRAM 000005
OLED_Clear@page                     cstackCOMRAM 000006
OLED_ClearLine@i                    cstackCOMRAM 000006
OLED_ClearLine@linea                cstackCOMRAM 000005
OLED_Command@cmd                    cstackCOMRAM 000004
OLED_Error@msg                      cstackCOMRAM 00000E
OLED_SetCursor@col                  cstackCOMRAM 000006
OLED_SetCursor@page                 cstackCOMRAM 000005
OLED_Vitals@alarma                  cstackCOMRAM 000015
OLED_Vitals@bpm                     cstackCOMRAM 000014
OLED_Vitals@buf                     cstackCOMRAM 000017
OLED_Vitals@perfil                  cstackCOMRAM 000016
OLED_Vitals@temp_dec                cstackCOMRAM 000013
OLED_Vitals@temp_int                cstackCOMRAM 00001D
OLED_WriteChar@c                    cstackCOMRAM 00000B
OLED_WriteChar@i                    cstackCOMRAM 00000A
OLED_WriteChar@index                cstackCOMRAM 000008
OLED_WriteString@str                cstackCOMRAM 00000C
OW_ReadBit@bit                      cstackCOMRAM 000001
OW_WriteBit@bit                     cstackCOMRAM 000001
UART_SendVitals@alarma              cstackCOMRAM 000017
UART_SendVitals@bpm                 cstackCOMRAM 000015
UART_SendVitals@perfil              cstackCOMRAM 000016
UART_SendVitals@temp_dec            cstackCOMRAM 000014
UART_SendVitals@temp_int            cstackCOMRAM 000018
UART_WriteChar@c                    cstackCOMRAM 000001
UART_WriteString@str                cstackCOMRAM 000002
_ADCON1                             (abs)        000FC1
_CAR_HayDedo                        text55       0050C6
_CAR_ProcesarMuestra                text52       006722
_CAR_ProcesarMuestra$641            cstackCOMRAM 000016
_CAR_ultimo_delta                   bssBANK0     0000A4
_CMCON                              (abs)        000FB4
_DS18B20_ReadByte                   text49       0051FC
_DS18B20_ReadTemp                   text43       0062D2
_DS18B20_Reset                      text48       00548E
_DS18B20_StartConversion            text42       005150
_DS18B20_WaitConversion             text41       005B46
_DS18B20_WriteByte                  text46       00512C
_I2C_Init                           text40       005004
_I2C_Read                           text39       005818
_I2C_RepeatedStart                  text36       005010
_I2C_Start                          text38       00519E
_I2C_Stop                           text37       0050E8
_I2C_Write                          text35       0057A0
_INTCON2bits                        (abs)        000FF1
_LATB                               (abs)        000F8A
_LATBbits                           (abs)        000F8A
_LATD                               (abs)        000F8C
_LATDbits                           (abs)        000F8C
_MAX30102_Check                     text33       005266
_MAX30102_Init                      text31       0058A8
_MAX30102_ReadRegister              text34       0051CA
_MAX30102_ReadSample                text29       006416
_MAX30102_SamplesAvailable          text30       005050
_MAX30102_WriteRegister             text32       00506C
_OLED_Clear                         text27       0054E6
_OLED_ClearLine                     text19       005320
_OLED_Command                       text28       00508A
_OLED_Error                         text23       0053AC
_OLED_Init                          text22       005C08
_OLED_Paused                        text21       0053F4
_OLED_SetCursor                     text26       00510A
_OLED_Splash                        text20       0055F4
_OLED_Vitals                        text15       006090
_OLED_WriteChar                     text25       006198
_OLED_WriteString                   text24       005596
_OSCCON                             (abs)        000FD3
_OSCCONbits                         (abs)        000FD3
_OW_ReadBit                         text50       005176
_OW_Release                         text51       004FFE
_OW_WriteBit                        text47       00529E
_PORTBbits                          (abs)        000F81
_PORTDbits                          (abs)        000F83
_RCREG                              (abs)        000FAE
_RCSTAbits                          (abs)        000FAB
_SPBRG                              (abs)        000FAF
_SPBRGH                             (abs)        000FB0
_TRISB                              (abs)        000F93
_TRISBbits                          (abs)        000F93
_TRISCbits                          (abs)        000F94
_TRISD                              (abs)        000F95
_TRISDbits                          (abs)        000F95
_TXREG                              (abs)        000FAD
_TXSTAbits                          (abs)        000FAC
_UART_Init                          text14       005038
_UART_SendVitals                    text10       005DA4
_UART_SendVitals$983                cstackCOMRAM 000019
_UART_WriteChar                     text13       005022
_UART_WriteString                   text12       005230
__HRAM                              (abs)        000000
__H__absolute__                     __absolute__ 000000
__Habs1                             abs1         000000
__Hbank0                            bank0        000000
__Hbank1                            bank1        000000
__Hbank2                            bank2        000000
__Hbank3                            bank3        000000
__Hbank4                            bank4        000000
__Hbank5                            bank5        000000
__Hbank6                            bank6        000000
__Hbank7                            bank7        000000
__Hbigbss                           bigbss       000000
__Hbigdata                          bigdata      000000
__Hbigram                           bigram       000000
__Hbigsfr                           bigsfr       000000
__Hbss                              bss          000000
__HbssBANK0                         bssBANK0     000000
__HbssCOMRAM                        bssCOMRAM    000000
__Hcinit                            cinit        000000
__Hclrtext                          clrtext      000000
__Hcomram                           comram       000000
__Hconfig                           config       300008
__Hconst                            const        000000
__HcstackCOMRAM                     cstackCOMRAM 000000
__Hdata                             data         000000
__Heeprom_data                      eeprom_data  000000
__Hfarbss                           farbss       000000
__Hfardata                          fardata      000000
__Hheap                             heap         000000
__Hibigdata                         ibigdata     000000
__Hidata                            idata        000000
__Hidloc                            idloc        000000
__Hifardata                         ifardata     000000
__Hinit                             init         008000
__Hintcode                          intcode      000008
__Hintcode_body                     intcode_body 000000
__Hintcodelo                        intcodelo    000018
__Hintentry                         intentry     000000
__Hintret                           intret       000000
__Hintsave_regs                     intsave_regs 000000
__Hirdata                           irdata       000000
__Hmediumconst                      mediumconst  007FFC
__HnvFARRAM                         nvFARRAM     000000
__Hnvbit                            nvbit        000000
__Hnvrram                           nvrram       000000
__Hparam                            rparam       000000
__Hpowerup                          powerup      000000
__Hram                              ram          000000
__Hramtop                           ramtop       000800
__Hrbit                             rbit         000000
__Hrbss                             rbss         000000
__Hrdata                            rdata        000000
__Hreset_vec                        reset_vec    000004
__Hrparam                           rparam       000000
__Hsfr                              sfr          000000
__Hsivt_hi                          sivt_hi      000000
__Hsivt_lo                          sivt_lo      000018
__Hsmallconst                       smallconst   000000
__Hspace_0                          (abs)        008000
__Hspace_1                          (abs)        0000AA
__Hspace_2                          (abs)        000000
__Hspace_4                          (abs)        600008
__Hstack                            stack        000000
__Hstruct                           struct       000000
__Htemp                             temp         000000
__Htext                             text         000000
__Htext0                            text0        000000
__Htext1                            text1        000000
__Htext10                           text10       000000
__Htext11                           text11       000000
__Htext12                           text12       000000
__Htext13                           text13       000000
__Htext14                           text14       000000
__Htext15                           text15       000000
__Htext16                           text16       000000
__Htext17                           text17       000000
__Htext18                           text18       000000
__Htext19                           text19       000000
__Htext2                            text2        000000
__Htext20                           text20       000000
__Htext21                           text21       000000
__Htext22                           text22       000000
__Htext23                           text23       000000
__Htext24                           text24       000000
__Htext25                           text25       000000
__Htext26                           text26       000000
__Htext27                           text27       000000
__Htext28                           text28       000000
__Htext29                           text29       000000
__Htext3                            text3        000000
__Htext30                           text30       000000
__Htext31                           text31       000000
__Htext32                           text32       000000
__Htext33                           text33       000000
__Htext34                           text34       000000
__Htext35                           text35       000000
__Htext36                           text36       000000
__Htext37                           text37       000000
__Htext38                           text38       000000
__Htext39                           text39       000000
__Htext4                            text4        000000
__Htext40                           text40       000000
__Htext41                           text41       000000
__Htext42                           text42       000000
__Htext43                           text43       000000
__Htext44                           text44       000000
__Htext45                           text45       000000
__Htext46                           text46       000000
__Htext47                           text47       000000
__Htext48                           text48       000000
__Htext49                           text49       000000
__Htext5                            text5        000000
__Htext50                           text50       000000
__Htext51                           text51       000000
__Htext52                           text52       000000
__Htext53                           text53       000000
__Htext54                           text54       000000
__Htext55                           text55       000000
__Htext6                            text6        000000
__Htext7                            text7        000000
__Htext8                            text8        000000
__Htext9                            text9        000000
__LRAM                              (abs)        000001
__L__absolute__                     __absolute__ 000000
__Labs1                             abs1         000000
__Lbank0                            bank0        000000
__Lbank1                            bank1        000000
__Lbank2                            bank2        000000
__Lbank3                            bank3        000000
__Lbank4                            bank4        000000
__Lbank5                            bank5        000000
__Lbank6                            bank6        000000
__Lbank7                            bank7        000000
__Lbigbss                           bigbss       000000
__Lbigdata                          bigdata      000000
__Lbigram                           bigram       000000
__Lbigsfr                           bigsfr       000000
__Lbss                              bss          000000
__LbssBANK0                         bssBANK0     000000
__LbssCOMRAM                        bssCOMRAM    000000
__Lcinit                            cinit        000000
__Lclrtext                          clrtext      000000
__Lcomram                           comram       000000
__Lconfig                           config       000000
__Lconst                            const        000000
__LcstackCOMRAM                     cstackCOMRAM 000000
__Ldata                             data         000000
__Leeprom_data                      eeprom_data  000000
__Lfarbss                           farbss       000000
__Lfardata                          fardata      000000
__Lheap                             heap         000000
__Libigdata                         ibigdata     000000
__Lidata                            idata        000000
__Lidloc                            idloc        000000
__Lifardata                         ifardata     000000
__Linit                             init         007FFC
__Lintcode                          intcode      000008
__Lintcode_body                     intcode_body 000000
__Lintcodelo                        intcodelo    000018
__Lintentry                         intentry     000000
__Lintret                           intret       000000
__Lintsave_regs                     intsave_regs 000000
__Lirdata                           irdata       000000
__Lmediumconst                      mediumconst  007D42
__LnvFARRAM                         nvFARRAM     000000
__Lnvbit                            nvbit        000000
__Lnvrram                           nvrram       000000
__Lparam                            rparam       000000
__Lpowerup                          powerup      000000
__Lram                              ram          000000
__Lramtop                           ramtop       000800
__Lrbit                             rbit         000000
__Lrbss                             rbss         000000
__Lrdata                            rdata        000000
__Lreset_vec                        reset_vec    000000
__Lrparam                           rparam       000000
__Lsfr                              sfr          000000
__Lsivt_hi                          sivt_hi      000000
__Lsivt_lo                          sivt_lo      000018
__Lsmallconst                       smallconst   000000
__Lspace_0                          (abs)        000000
__Lspace_1                          (abs)        000000
__Lspace_2                          (abs)        000000
__Lspace_4                          (abs)        000000
__Lstack                            stack        000000
__Lstruct                           struct       000000
__Ltemp                             temp         000000
__Ltext                             text         000000
__Ltext0                            text0        000000
__Ltext1                            text1        000000
__Ltext10                           text10       000000
__Ltext11                           text11       000000
__Ltext12                           text12       000000
__Ltext13                           text13       000000
__Ltext14                           text14       000000
__Ltext15                           text15       000000
__Ltext16                           text16       000000
__Ltext17                           text17       000000
__Ltext18                           text18       000000
__Ltext19                           text19       000000
__Ltext2                            text2        000000
__Ltext20                           text20       000000
__Ltext21                           text21       000000
__Ltext22                           text22       000000
__Ltext23                           text23       000000
__Ltext24                           text24       000000
__Ltext25                           text25       000000
__Ltext26                           text26       000000
__Ltext27                           text27       000000
__Ltext28                           text28       000000
__Ltext29                           text29       000000
__Ltext3                            text3        000000
__Ltext30                           text30       000000
__Ltext31                           text31       000000
__Ltext32                           text32       000000
__Ltext33                           text33       000000
__Ltext34                           text34       000000
__Ltext35                           text35       000000
__Ltext36                           text36       000000
__Ltext37                           text37       000000
__Ltext38                           text38       000000
__Ltext39                           text39       000000
__Ltext4                            text4        000000
__Ltext40                           text40       000000
__Ltext41                           text41       000000
__Ltext42                           text42       000000
__Ltext43                           text43       000000
__Ltext44                           text44       000000
__Ltext45                           text45       000000
__Ltext46                           text46       000000
__Ltext47                           text47       000000
__Ltext48                           text48       000000
__Ltext49                           text49       000000
__Ltext5                            text5        000000
__Ltext50                           text50       000000
__Ltext51                           text51       000000
__Ltext52                           text52       000000
__Ltext53                           text53       000000
__Ltext54                           text54       000000
__Ltext55                           text55       000000
__Ltext6                            text6        000000
__Ltext7                            text7        000000
__Ltext8                            text8        000000
__Ltext9                            text9        000000
__S0                                (abs)        008000
__S1                                (abs)        0000AA
__S4                                (abs)        000000
__S5                                (abs)        000000
___fladd                            text6        0070D8
___fladd@a                          cstackCOMRAM 000005
___fladd@aexp                       cstackCOMRAM 00000E
___fladd@b                          cstackCOMRAM 000001
___fladd@bexp                       cstackCOMRAM 00000F
___fladd@grs                        cstackCOMRAM 000010
___fladd@signs                      cstackCOMRAM 00000D
___fldiv                            text45       006924
___fldiv@a                          cstackCOMRAM 000013
___fldiv@aexp                       cstackCOMRAM 000027
___fldiv@b                          cstackCOMRAM 00000F
___fldiv@bexp                       cstackCOMRAM 000026
___fldiv@grs                        cstackCOMRAM 000022
___fldiv@new_exp                    cstackCOMRAM 000020
___fldiv@rem                        cstackCOMRAM 00001B
___fldiv@sign                       cstackCOMRAM 00001F
___fleq                             text9        0059E6
___fleq@ff1                         cstackCOMRAM 000001
___fleq@ff2                         cstackCOMRAM 000005
___flge                             text8        005E86
___flge@ff1                         cstackCOMRAM 000001
___flge@ff2                         cstackCOMRAM 000005
___flmul                            text7        006CB2
___flmul@a                          cstackCOMRAM 00001D
___flmul@aexp                       cstackCOMRAM 00002A
___flmul@b                          cstackCOMRAM 000019
___flmul@bexp                       cstackCOMRAM 00002B
___flmul@grs                        cstackCOMRAM 000026
___flmul@prod                       cstackCOMRAM 00002C
___flmul@sign                       cstackCOMRAM 000025
___flmul@temp                       cstackCOMRAM 000030
___flsub                            text5        005366
___flsub@a                          cstackCOMRAM 000015
___flsub@b                          cstackCOMRAM 000011
___fltol                            text4        005F8A
___fltol@exp1                       cstackCOMRAM 00003B
___fltol@f1                         cstackCOMRAM 000032
___fltol@sign1                      cstackCOMRAM 00003A
___heap_hi                          (abs)        000000
___heap_lo                          (abs)        000000
___inthi_sp                         stack        000000
___inthi_stack_hi                   stack        000000
___inthi_stack_lo                   stack        000000
___intlo_sp                         stack        000000
___intlo_stack_hi                   stack        000000
___intlo_stack_lo                   stack        000000
___lldiv                            text54       005942
___lldiv@counter                    cstackCOMRAM 00000D
___lldiv@dividend                   cstackCOMRAM 000001
___lldiv@divisor                    cstackCOMRAM 000005
___lldiv@quotient                   cstackCOMRAM 000009
___lwdiv                            text18       0056B6
___lwdiv@counter                    cstackCOMRAM 000007
___lwdiv@dividend                   cstackCOMRAM 000001
___lwdiv@divisor                    cstackCOMRAM 000003
___lwdiv@quotient                   cstackCOMRAM 000005
___lwmod                            text17       005652
___lwmod@counter                    cstackCOMRAM 000005
___lwmod@dividend                   cstackCOMRAM 000001
___lwmod@divisor                    cstackCOMRAM 000003
___param_bank                       (abs)        000000
___rparam_used                      (abs)        000001
___sp                               stack        000000
___stack_hi                         stack        000000
___stack_lo                         stack        000000
___xxtofl                           text44       00656E
___xxtofl@arg                       cstackCOMRAM 00000B
___xxtofl@exp                       cstackCOMRAM 00000A
___xxtofl@sign                      cstackCOMRAM 000009
___xxtofl@val                       cstackCOMRAM 000001
__accesstop                         (abs)        000060
__activetblptr                      (abs)        000002
__end_of_CAR_HayDedo                text55       0050E8
__end_of_CAR_ProcesarMuestra        text52       006924
__end_of_DS18B20_ReadByte           text49       005230
__end_of_DS18B20_ReadTemp           text43       006416
__end_of_DS18B20_Reset              text48       0054E6
__end_of_DS18B20_StartConversion    text42       005176
__end_of_DS18B20_WaitConversion     text41       005C08
__end_of_DS18B20_WriteByte          text46       005150
__end_of_I2C_Init                   text40       005010
__end_of_I2C_Read                   text39       0058A8
__end_of_I2C_RepeatedStart          text36       005022
__end_of_I2C_Start                  text38       0051CA
__end_of_I2C_Stop                   text37       00510A
__end_of_I2C_Write                  text35       005818
__end_of_MAX30102_Check             text33       00529E
__end_of_MAX30102_Init              text31       005942
__end_of_MAX30102_ReadRegister      text34       0051FC
__end_of_MAX30102_ReadSample        text29       00656E
__end_of_MAX30102_SamplesAvailable  text30       00506C
__end_of_MAX30102_WriteRegister     text32       00508A
__end_of_OLED_Clear                 text27       00553E
__end_of_OLED_ClearLine             text19       005366
__end_of_OLED_Command               text28       0050A8
__end_of_OLED_Error                 text23       0053F4
__end_of_OLED_Init                  text22       005CD0
__end_of_OLED_Paused                text21       00543C
__end_of_OLED_SetCursor             text26       00512C
__end_of_OLED_Splash                text20       005652
__end_of_OLED_Vitals                text15       006198
__end_of_OLED_WriteChar             text25       0062D2
__end_of_OLED_WriteString           text24       0055F4
__end_of_OW_ReadBit                 text50       00519E
__end_of_OW_Release                 text51       005004
__end_of_OW_WriteBit                text47       0052DE
__end_of_UART_Init                  text14       005050
__end_of_UART_SendVitals            text10       005E86
__end_of_UART_WriteChar             text13       005038
__end_of_UART_WriteString           text12       005266
__end_of___fladd                    text6        00758E
__end_of___fldiv                    text45       006CB2
__end_of___fleq                     text9        005A90
__end_of___flge                     text8        005F8A
__end_of___flmul                    text7        0070D8
__end_of___flsub                    text5        0053AC
__end_of___fltol                    text4        006090
__end_of___lldiv                    text54       0059E6
__end_of___lwdiv                    text18       005728
__end_of___lwmod                    text17       0056B6
__end_of___xxtofl                   text44       006722
__end_of__initialization            cinit        0050BC
__end_of_blink_amarillo             text3        00548E
__end_of_calcular_promedio          text53       0057A0
__end_of_font5x7                    mediumconst  007E0B
__end_of_main                       text0        007D42
__end_of_mostrar_perfil             text2        005596
__end_of_send_uint                  text11       005DA4
__end_of_setup                      text1        005320
__end_of_uint_to_str                text16       005B46
__initialization                    cinit        0050A8
__mediumconst                       mediumconst  007D42
__pbssBANK0                         bssBANK0     000060
__pbssCOMRAM                        bssCOMRAM    00005C
__pcinit                            cinit        0050A8
__pcstackCOMRAM                     cstackCOMRAM 000001
__pmediumconst                      mediumconst  007D42
__ptext0                            text0        00758E
__ptext1                            text1        0052DE
__ptext10                           text10       005DA4
__ptext11                           text11       005CD0
__ptext12                           text12       005230
__ptext13                           text13       005022
__ptext14                           text14       005038
__ptext15                           text15       006090
__ptext16                           text16       005A90
__ptext17                           text17       005652
__ptext18                           text18       0056B6
__ptext19                           text19       005320
__ptext2                            text2        00553E
__ptext20                           text20       0055F4
__ptext21                           text21       0053F4
__ptext22                           text22       005C08
__ptext23                           text23       0053AC
__ptext24                           text24       005596
__ptext25                           text25       006198
__ptext26                           text26       00510A
__ptext27                           text27       0054E6
__ptext28                           text28       00508A
__ptext29                           text29       006416
__ptext3                            text3        00543C
__ptext30                           text30       005050
__ptext31                           text31       0058A8
__ptext32                           text32       00506C
__ptext33                           text33       005266
__ptext34                           text34       0051CA
__ptext35                           text35       0057A0
__ptext36                           text36       005010
__ptext37                           text37       0050E8
__ptext38                           text38       00519E
__ptext39                           text39       005818
__ptext4                            text4        005F8A
__ptext40                           text40       005004
__ptext41                           text41       005B46
__ptext42                           text42       005150
__ptext43                           text43       0062D2
__ptext44                           text44       00656E
__ptext45                           text45       006924
__ptext46                           text46       00512C
__ptext47                           text47       00529E
__ptext48                           text48       00548E
__ptext49                           text49       0051FC
__ptext5                            text5        005366
__ptext50                           text50       005176
__ptext51                           text51       004FFE
__ptext52                           text52       006722
__ptext53                           text53       005728
__ptext54                           text54       005942
__ptext55                           text55       0050C6
__ptext6                            text6        0070D8
__ptext7                            text7        006CB2
__ptext8                            text8        005E86
__ptext9                            text9        0059E6
__ramtop                            ramtop       000800
__smallconst                        mediumconst  007D42
_blink_amarillo                     text3        00543C
_bpm_actual                         bssCOMRAM    00005E
_buf_idx                            bssCOMRAM    00005F
_calcular_promedio                  text53       005728
_en_pico                            bssCOMRAM    00005D
_font5x7                            mediumconst  007D43
_ir_buffer                          bssBANK0     000060
_ir_promedio_ant                    bssBANK0     0000A0
_main                               text0        00758E
_main$586                           cstackCOMRAM 000040
_mostrar_perfil                     text2        00553E
_muestras_pico                      bssBANK0     0000A8
_picos_contados                     bssCOMRAM    00005C
_send_uint                          text11       005CD0
_setup                              text1        0052DE
_uint_to_str                        text16       005A90
blink_amarillo@k                    cstackCOMRAM 000004
blink_amarillo@n                    cstackCOMRAM 000003
calcular_promedio@i                 cstackCOMRAM 00000D
calcular_promedio@suma              cstackCOMRAM 000009
end_of_initialization               cinit        0050BC
intlevel0                           text         000000
intlevel1                           text         000000
intlevel2                           text         000000
intlevel3                           text         000000
isa$std                             (abs)        000001
isa$xinst                           (abs)        000000
main@activo                         cstackCOMRAM 000053
main@alarma                         cstackCOMRAM 000055
main@bpm                            cstackCOMRAM 000057
main@btn_ahora                      cstackCOMRAM 00004B
main@btn_ant                        cstackCOMRAM 00003F
main@buzzer_estado                  cstackCOMRAM 000045
main@ciclo_buzzer                   cstackCOMRAM 000046
main@ciclo_oled                     cstackCOMRAM 000042
main@ciclo_temp                     cstackCOMRAM 000043
main@ciclo_uart                     cstackCOMRAM 000044
main@hay_dedo                       cstackCOMRAM 00003E
main@hay_temp                       cstackCOMRAM 000041
main@i                              cstackCOMRAM 00004C
main@ir                             cstackCOMRAM 00004F
main@perfil                         cstackCOMRAM 000056
main@red                            cstackCOMRAM 000047
main@temp_dec                       cstackCOMRAM 00004D
main@temp_f                         cstackCOMRAM 000058
main@temp_int                       cstackCOMRAM 000054
main@temp_valida                    cstackCOMRAM 00004E
mostrar_perfil@deportista           cstackCOMRAM 000010
send_uint@buf                       cstackCOMRAM 00000E
send_uint@i                         cstackCOMRAM 000012
send_uint@j                         cstackCOMRAM 000013
send_uint@n                         cstackCOMRAM 000008
send_uint@tmp                       cstackCOMRAM 00000A
stackhi                             (abs)        000000
stacklo                             (abs)        000000
start                               init         007FFC
start_initialization                cinit        0050A8
uint_to_str@buf                     cstackCOMRAM 00000A
uint_to_str@i                       cstackCOMRAM 000012
uint_to_str@j                       cstackCOMRAM 000011
uint_to_str@num                     cstackCOMRAM 000008
uint_to_str@tmp                     cstackCOMRAM 00000B


MODULE INFORMATION

Module		Function		Class		Link	Load	Size
card.c
		_CAR_ProcesarMuestra		CODE           	6722	0000	514
		_calcular_promedio		CODE           	5728	0000	120
		_CAR_HayDedo   		CODE           	50C6	0000	34

card.c estimated size: 668

C:\Program Files\Microchip\xc8\v3.10\pic\sources\c99\common\flge.c
		___flge        		CODE           	5E86	0000	260

C:\Program Files\Microchip\xc8\v3.10\pic\sources\c99\common\flge.c estimated size: 260

C:\Program Files\Microchip\xc8\v3.10\pic\sources\c99\common\lwmod.c
		___lwmod       		CODE           	5652	0000	100

C:\Program Files\Microchip\xc8\v3.10\pic\sources\c99\common\lwmod.c estimated size: 100

uart.c
		_UART_SendVitals		CODE           	5DA4	0000	226
		_UART_WriteChar		CODE           	5022	0000	22
		_UART_Init     		CODE           	5038	0000	24
		_send_uint     		CODE           	5CD0	0000	212
		_UART_WriteString		CODE           	5230	0000	54

uart.c estimated size: 538

max30102.c
		_MAX30102_WriteRegister		CODE           	506C	0000	30
		_MAX30102_ReadRegister		CODE           	51CA	0000	50
		_MAX30102_ReadSample		CODE           	6416	0000	344
		_MAX30102_SamplesAvailable		CODE           	5050	0000	28
		_MAX30102_Init 		CODE           	58A8	0000	154
		_MAX30102_Check		CODE           	5266	0000	56

max30102.c estimated size: 662

i2c.c
		_I2C_RepeatedStart		CODE           	5010	0000	18
		_I2C_Write     		CODE           	57A0	0000	120
		_I2C_Stop      		CODE           	50E8	0000	34
		_I2C_Read      		CODE           	5818	0000	144
		_I2C_Init      		CODE           	5004	0000	12
		_I2C_Start     		CODE           	519E	0000	44

i2c.c estimated size: 372

C:\Program Files\Microchip\xc8\v3.10\pic\sources\c99\common\lwdiv.c
		___lwdiv       		CODE           	56B6	0000	114

C:\Program Files\Microchip\xc8\v3.10\pic\sources\c99\common\lwdiv.c estimated size: 114

C:\Program Files\Microchip\xc8\v3.10\pic\sources\c99\common\fltol.c
		___fltol       		CODE           	5F8A	0000	262

C:\Program Files\Microchip\xc8\v3.10\pic\sources\c99\common\fltol.c estimated size: 262

C:\Program Files\Microchip\xc8\v3.10\pic\sources\c99\common\sprcmul.c
		___flmul       		CODE           	6CB2	0000	1062

C:\Program Files\Microchip\xc8\v3.10\pic\sources\c99\common\sprcmul.c estimated size: 1062

C:\Program Files\Microchip\xc8\v3.10\pic\sources\c99\common\fleq.c
		___fleq        		CODE           	59E6	0000	170

C:\Program Files\Microchip\xc8\v3.10\pic\sources\c99\common\fleq.c estimated size: 170

C:\Program Files\Microchip\xc8\v3.10\pic\sources\c99\common\xxtofl.c
		___xxtofl      		CODE           	656E	0000	436

C:\Program Files\Microchip\xc8\v3.10\pic\sources\c99\common\xxtofl.c estimated size: 436

C:\Program Files\Microchip\xc8\v3.10\pic\sources\c99\common\sprcdiv.c
		___fldiv       		CODE           	6924	0000	910

C:\Program Files\Microchip\xc8\v3.10\pic\sources\c99\common\sprcdiv.c estimated size: 910

shared
		_font5x7       		MEDIUMCONST    	7D43	0000	200
		__initialization		CODE           	50A8	0000	20

shared estimated size: 220

ds18b20.c
		_DS18B20_ReadByte		CODE           	51FC	0000	52
		_DS18B20_Reset 		CODE           	548E	0000	88
		_DS18B20_ReadTemp		CODE           	62D2	0000	324
		_DS18B20_WriteByte		CODE           	512C	0000	36
		_DS18B20_StartConversion		CODE           	5150	0000	38
		_OW_ReadBit    		CODE           	5176	0000	40
		_DS18B20_WaitConversion		CODE           	5B46	0000	194
		_OW_WriteBit   		CODE           	529E	0000	64
		_OW_Release    		CODE           	4FFE	0000	6

ds18b20.c estimated size: 842

oled.c
		_OLED_SetCursor		CODE           	510A	0000	34
		_OLED_Clear    		CODE           	54E6	0000	88
		_OLED_Command  		CODE           	508A	0000	30
		_OLED_WriteString		CODE           	5596	0000	94
		_OLED_ClearLine		CODE           	5320	0000	70
		_OLED_WriteChar		CODE           	6198	0000	314
		_OLED_Splash   		CODE           	55F4	0000	94
		_OLED_Init     		CODE           	5C08	0000	200
		_OLED_Vitals   		CODE           	6090	0000	264
		_OLED_Error    		CODE           	53AC	0000	72
		_uint_to_str   		CODE           	5A90	0000	182
		_OLED_Paused   		CODE           	53F4	0000	72

oled.c estimated size: 1514

C:\Program Files\Microchip\xc8\v3.10\pic\sources\c99\common\__lldiv.c
		___lldiv       		CODE           	5942	0000	164

C:\Program Files\Microchip\xc8\v3.10\pic\sources\c99\common\__lldiv.c estimated size: 164

main.c
		_mostrar_perfil		CODE           	553E	0000	88
		_main          		CODE           	758E	0000	1972
		_blink_amarillo		CODE           	543C	0000	82
		_setup         		CODE           	52DE	0000	66

main.c estimated size: 2208

C:\Program Files\Microchip\xc8\v3.10\pic\sources\c99\common\sprcadd.c
		___flsub       		CODE           	5366	0000	70
		___fladd       		CODE           	70D8	0000	1206

C:\Program Files\Microchip\xc8\v3.10\pic\sources\c99\common\sprcadd.c estimated size: 1276

