

Microchip MPLAB XC8 Assembler V3.10 build 20250813170317 
                                                                                               Sun May 31 22:41:38 2026

Microchip MPLAB XC8 C Compiler v3.10 (Free license) build 20250813170317 Og1 
     1                           	processor	18F4550
     2                           	fnconf	rparam,??,?,0
     3                           	pagewidth 120
     4                           	opt	flic
     5                           	psect	mediumconst,global,reloc=2,class=MEDIUMCONST,space=0,delta=1,noexec
     6                           	psect	cinit,global,reloc=2,class=CODE,space=0,delta=1
     7                           	psect	bssCOMRAM,global,class=COMRAM,space=1,delta=1,lowdata,noexec
     8                           	psect	bssBANK0,global,class=BANK0,space=1,delta=1,lowdata,noexec
     9                           	psect	cstackCOMRAM,global,class=COMRAM,space=1,delta=1,lowdata,noexec
    10                           	psect	text0,global,reloc=2,class=CODE,space=0,delta=1
    11                           	psect	text1,global,reloc=2,class=CODE,space=0,delta=1
    12                           	psect	text2,global,reloc=2,class=CODE,space=0,delta=1,group=1
    13                           	psect	text3,global,reloc=2,class=CODE,space=0,delta=1,group=1
    14                           	psect	text4,global,reloc=2,class=CODE,space=0,delta=1,group=1
    15                           	psect	text5,global,reloc=2,class=CODE,space=0,delta=1,group=1
    16                           	psect	text6,global,reloc=2,class=CODE,space=0,delta=1,group=1
    17                           	psect	text7,global,reloc=2,class=CODE,space=0,delta=1
    18                           	psect	text8,global,reloc=2,class=CODE,space=0,delta=1
    19                           	psect	text9,global,reloc=2,class=CODE,space=0,delta=1,group=1
    20                           	psect	text10,global,reloc=2,class=CODE,space=0,delta=1,group=1
    21                           	psect	text11,global,reloc=2,class=CODE,space=0,delta=1
    22                           	psect	text12,global,reloc=2,class=CODE,space=0,delta=1
    23                           	psect	text13,global,reloc=2,class=CODE,space=0,delta=1
    24                           	psect	text14,global,reloc=2,class=CODE,space=0,delta=1
    25                           	psect	text15,global,reloc=2,class=CODE,space=0,delta=1
    26                           	psect	text16,global,reloc=2,class=CODE,space=0,delta=1
    27                           	psect	text17,global,reloc=2,class=CODE,space=0,delta=1
    28                           	psect	text18,global,reloc=2,class=CODE,space=0,delta=1
    29                           	psect	text19,global,reloc=2,class=CODE,space=0,delta=1
    30                           	psect	text20,global,reloc=2,class=CODE,space=0,delta=1
    31                           	psect	text21,global,reloc=2,class=CODE,space=0,delta=1
    32                           	psect	text22,global,reloc=2,class=CODE,space=0,delta=1
    33                           	psect	text23,global,reloc=2,class=CODE,space=0,delta=1
    34                           	psect	text24,global,reloc=2,class=CODE,space=0,delta=1
    35                           	psect	text25,global,reloc=2,class=CODE,space=0,delta=1
    36                           	psect	text26,global,reloc=2,class=CODE,space=0,delta=1
    37                           	psect	text27,global,reloc=2,class=CODE,space=0,delta=1
    38                           	psect	text28,global,reloc=2,class=CODE,space=0,delta=1
    39                           	psect	text29,global,reloc=2,class=CODE,space=0,delta=1
    40                           	psect	text30,global,reloc=2,class=CODE,space=0,delta=1
    41                           	psect	text31,global,reloc=2,class=CODE,space=0,delta=1
    42                           	psect	text32,global,reloc=2,class=CODE,space=0,delta=1
    43                           	psect	text33,global,reloc=2,class=CODE,space=0,delta=1
    44                           	psect	text34,global,reloc=2,class=CODE,space=0,delta=1
    45                           	psect	text35,global,reloc=2,class=CODE,space=0,delta=1
    46                           	psect	text36,global,reloc=2,class=CODE,space=0,delta=1,group=1
    47                           	psect	text37,global,reloc=2,class=CODE,space=0,delta=1,group=1
    48                           	psect	text38,global,reloc=2,class=CODE,space=0,delta=1
    49                           	psect	text39,global,reloc=2,class=CODE,space=0,delta=1
    50                           	psect	text40,global,reloc=2,class=CODE,space=0,delta=1
    51                           	psect	text41,global,reloc=2,class=CODE,space=0,delta=1
    52                           	psect	text42,global,reloc=2,class=CODE,space=0,delta=1
    53                           	psect	text43,global,reloc=2,class=CODE,space=0,delta=1
    54                           	psect	text44,global,reloc=2,class=CODE,space=0,delta=1
    55                           	psect	text45,global,reloc=2,class=CODE,space=0,delta=1
    56                           	psect	text46,global,reloc=2,class=CODE,space=0,delta=1,group=1
    57                           	psect	text47,global,reloc=2,class=CODE,space=0,delta=1
    58                           	psect	intsave_regs,global,class=BIGRAM,space=1,delta=1,noexec
    59                           	psect	rparam,global,class=COMRAM,space=1,delta=1,noexec
    60                           	psect	config,global,abs,ovrld,class=CONFIG,space=4,delta=1,noexec
    61   000000                     
    62                           ; Generated 17/01/2025 GMT
    63                           ; 
    64                           ; Copyright © 2025, Microchip Technology Inc. and its subsidiaries ("Microchip")
    65                           ; All rights reserved.
    66                           ; 
    67                           ; This software is developed by Microchip Technology Inc. and its subsidiaries ("Microch
      +                          ip").
    68                           ; 
    69                           ; Redistribution and use in source and binary forms, with or without modification, are
    70                           ; permitted provided that the following conditions are met:
    71                           ; 
    72                           ;     1. Redistributions of source code must retain the above copyright notice, this lis
      +                          t of
    73                           ;        conditions and the following disclaimer.
    74                           ; 
    75                           ;     2. Redistributions in binary form must reproduce the above copyright notice, this 
      +                          list
    76                           ;        of conditions and the following disclaimer in the documentation and/or other
    77                           ;        materials provided with the distribution. Publication is not required when
    78                           ;        this file is used in an embedded application.
    79                           ; 
    80                           ;     3. Microchip's name may not be used to endorse or promote products derived from th
      +                          is
    81                           ;        software without specific prior written permission.
    82                           ; 
    83                           ; THIS SOFTWARE IS PROVIDED BY MICROCHIP "AS IS" AND ANY EXPRESS OR IMPLIED WARRANTIES,
    84                           ; INCLUDING, BUT NOT LIMITED TO, THE IMPLIED WARRANTIES OF MERCHANTABILITY AND FITNESS F
      +                          OR
    85                           ; PURPOSE ARE DISCLAIMED.  IN NO EVENT SHALL MICROCHIP BE LIABLE FOR ANY DIRECT, INDIREC
      +                          T,
    86                           ; INCIDENTAL, SPECIAL, EXEMPLARY, OR CONSEQUENTIAL DAMAGES (INCLUDING BUT NOT LIMITED TO
    87                           ; PROCUREMENT OF SUBSTITUTE GOODS OR SERVICES; LOSS OF USE, DATA OR PROFITS; OR BUSINESS
    88                           ; INTERRUPTION) HOWSOEVER CAUSED AND ON ANY THEORY OF LIABILITY, WHETHER IN CONTRACT, ST
      +                          RICT
    89                           ; LIABILITY, OR TORT (INCLUDING NEGLIGENCE OR OTHERWISE) ARISING IN ANY WAY OUT OF THE U
      +                          SE OF
    90                           ; THIS SOFTWARE, EVEN IF ADVISED OF THE POSSIBILITY OF SUCH DAMAGE.
    91                           ; 
    92                           ; 
    93                           ; Code-generator required, PIC18F4550 Definitions
    94                           ; 
    95                           ; SFR Addresses
    96   000FE0                     bsr             equ	4064
    97   000FE9                     fsr0            equ	4073
    98   000FEA                     fsr0h           equ	4074
    99   000FE9                     fsr0l           equ	4073
   100   000FE1                     fsr1            equ	4065
   101   000FE2                     fsr1h           equ	4066
   102   000FE1                     fsr1l           equ	4065
   103   000FD9                     fsr2            equ	4057
   104   000FDA                     fsr2h           equ	4058
   105   000FD9                     fsr2l           equ	4057
   106   000FEF                     indf0           equ	4079
   107   000FE7                     indf1           equ	4071
   108   000FDF                     indf2           equ	4063
   109   000FF2                     intcon          equ	4082
   110   000000                     nvmcon          equ	0
   111   000FF9                     pcl             equ	4089
   112   000FFA                     pclath          equ	4090
   113   000FFB                     pclatu          equ	4091
   114   000FEB                     plusw0          equ	4075
   115   000FE3                     plusw1          equ	4067
   116   000FDB                     plusw2          equ	4059
   117   000FED                     postdec0        equ	4077
   118   000FE5                     postdec1        equ	4069
   119   000FDD                     postdec2        equ	4061
   120   000FEE                     postinc0        equ	4078
   121   000FE6                     postinc1        equ	4070
   122   000FDE                     postinc2        equ	4062
   123   000FEC                     preinc0         equ	4076
   124   000FE4                     preinc1         equ	4068
   125   000FDC                     preinc2         equ	4060
   126   000FF3                     prod            equ	4083
   127   000FF4                     prodh           equ	4084
   128   000FF3                     prodl           equ	4083
   129   000FD8                     status          equ	4056
   130   000FF5                     tablat          equ	4085
   131   000FF6                     tblptr          equ	4086
   132   000FF7                     tblptrh         equ	4087
   133   000FF6                     tblptrl         equ	4086
   134   000FF8                     tblptru         equ	4088
   135   000FFD                     tosl            equ	4093
   136   000FE8                     wreg            equ	4072
   137   000F62                     SPPDATA         equ	3938	;# 
   138   000F63                     SPPCFG          equ	3939	;# 
   139   000F64                     SPPEPS          equ	3940	;# 
   140   000F65                     SPPCON          equ	3941	;# 
   141   000F66                     UFRM            equ	3942	;# 
   142   000F66                     UFRML           equ	3942	;# 
   143   000F67                     UFRMH           equ	3943	;# 
   144   000F68                     UIR             equ	3944	;# 
   145   000F69                     UIE             equ	3945	;# 
   146   000F6A                     UEIR            equ	3946	;# 
   147   000F6B                     UEIE            equ	3947	;# 
   148   000F6C                     USTAT           equ	3948	;# 
   149   000F6D                     UCON            equ	3949	;# 
   150   000F6E                     UADDR           equ	3950	;# 
   151   000F6F                     UCFG            equ	3951	;# 
   152   000F70                     UEP0            equ	3952	;# 
   153   000F71                     UEP1            equ	3953	;# 
   154   000F72                     UEP2            equ	3954	;# 
   155   000F73                     UEP3            equ	3955	;# 
   156   000F74                     UEP4            equ	3956	;# 
   157   000F75                     UEP5            equ	3957	;# 
   158   000F76                     UEP6            equ	3958	;# 
   159   000F77                     UEP7            equ	3959	;# 
   160   000F78                     UEP8            equ	3960	;# 
   161   000F79                     UEP9            equ	3961	;# 
   162   000F7A                     UEP10           equ	3962	;# 
   163   000F7B                     UEP11           equ	3963	;# 
   164   000F7C                     UEP12           equ	3964	;# 
   165   000F7D                     UEP13           equ	3965	;# 
   166   000F7E                     UEP14           equ	3966	;# 
   167   000F7F                     UEP15           equ	3967	;# 
   168   000F80                     PORTA           equ	3968	;# 
   169   000F81                     PORTB           equ	3969	;# 
   170   000F82                     PORTC           equ	3970	;# 
   171   000F83                     PORTD           equ	3971	;# 
   172   000F84                     PORTE           equ	3972	;# 
   173   000F89                     LATA            equ	3977	;# 
   174   000F8A                     LATB            equ	3978	;# 
   175   000F8B                     LATC            equ	3979	;# 
   176   000F8C                     LATD            equ	3980	;# 
   177   000F8D                     LATE            equ	3981	;# 
   178   000F92                     TRISA           equ	3986	;# 
   179   000F92                     DDRA            equ	3986	;# 
   180   000F93                     TRISB           equ	3987	;# 
   181   000F93                     DDRB            equ	3987	;# 
   182   000F94                     TRISC           equ	3988	;# 
   183   000F94                     DDRC            equ	3988	;# 
   184   000F95                     TRISD           equ	3989	;# 
   185   000F95                     DDRD            equ	3989	;# 
   186   000F96                     TRISE           equ	3990	;# 
   187   000F96                     DDRE            equ	3990	;# 
   188   000F9B                     OSCTUNE         equ	3995	;# 
   189   000F9D                     PIE1            equ	3997	;# 
   190   000F9E                     PIR1            equ	3998	;# 
   191   000F9F                     IPR1            equ	3999	;# 
   192   000FA0                     PIE2            equ	4000	;# 
   193   000FA1                     PIR2            equ	4001	;# 
   194   000FA2                     IPR2            equ	4002	;# 
   195   000FA6                     EECON1          equ	4006	;# 
   196   000FA7                     EECON2          equ	4007	;# 
   197   000FA8                     EEDATA          equ	4008	;# 
   198   000FA9                     EEADR           equ	4009	;# 
   199   000FAB                     RCSTA           equ	4011	;# 
   200   000FAB                     RCSTA1          equ	4011	;# 
   201   000FAC                     TXSTA           equ	4012	;# 
   202   000FAC                     TXSTA1          equ	4012	;# 
   203   000FAD                     TXREG           equ	4013	;# 
   204   000FAD                     TXREG1          equ	4013	;# 
   205   000FAE                     RCREG           equ	4014	;# 
   206   000FAE                     RCREG1          equ	4014	;# 
   207   000FAF                     SPBRG           equ	4015	;# 
   208   000FAF                     SPBRG1          equ	4015	;# 
   209   000FB0                     SPBRGH          equ	4016	;# 
   210   000FB1                     T3CON           equ	4017	;# 
   211   000FB2                     TMR3            equ	4018	;# 
   212   000FB2                     TMR3L           equ	4018	;# 
   213   000FB3                     TMR3H           equ	4019	;# 
   214   000FB4                     CMCON           equ	4020	;# 
   215   000FB5                     CVRCON          equ	4021	;# 
   216   000FB6                     ECCP1AS         equ	4022	;# 
   217   000FB6                     CCP1AS          equ	4022	;# 
   218   000FB7                     ECCP1DEL        equ	4023	;# 
   219   000FB7                     CCP1DEL         equ	4023	;# 
   220   000FB8                     BAUDCON         equ	4024	;# 
   221   000FB8                     BAUDCTL         equ	4024	;# 
   222   000FBA                     CCP2CON         equ	4026	;# 
   223   000FBB                     CCPR2           equ	4027	;# 
   224   000FBB                     CCPR2L          equ	4027	;# 
   225   000FBC                     CCPR2H          equ	4028	;# 
   226   000FBD                     CCP1CON         equ	4029	;# 
   227   000FBD                     ECCP1CON        equ	4029	;# 
   228   000FBE                     CCPR1           equ	4030	;# 
   229   000FBE                     CCPR1L          equ	4030	;# 
   230   000FBF                     CCPR1H          equ	4031	;# 
   231   000FC0                     ADCON2          equ	4032	;# 
   232   000FC1                     ADCON1          equ	4033	;# 
   233   000FC2                     ADCON0          equ	4034	;# 
   234   000FC3                     ADRES           equ	4035	;# 
   235   000FC3                     ADRESL          equ	4035	;# 
   236   000FC4                     ADRESH          equ	4036	;# 
   237   000FC5                     SSPCON2         equ	4037	;# 
   238   000FC6                     SSPCON1         equ	4038	;# 
   239   000FC7                     SSPSTAT         equ	4039	;# 
   240   000FC8                     SSPADD          equ	4040	;# 
   241   000FC9                     SSPBUF          equ	4041	;# 
   242   000FCA                     T2CON           equ	4042	;# 
   243   000FCB                     PR2             equ	4043	;# 
   244   000FCB                     MEMCON          equ	4043	;# 
   245   000FCC                     TMR2            equ	4044	;# 
   246   000FCD                     T1CON           equ	4045	;# 
   247   000FCE                     TMR1            equ	4046	;# 
   248   000FCE                     TMR1L           equ	4046	;# 
   249   000FCF                     TMR1H           equ	4047	;# 
   250   000FD0                     RCON            equ	4048	;# 
   251   000FD1                     WDTCON          equ	4049	;# 
   252   000FD2                     HLVDCON         equ	4050	;# 
   253   000FD2                     LVDCON          equ	4050	;# 
   254   000FD3                     OSCCON          equ	4051	;# 
   255   000FD5                     T0CON           equ	4053	;# 
   256   000FD6                     TMR0            equ	4054	;# 
   257   000FD6                     TMR0L           equ	4054	;# 
   258   000FD7                     TMR0H           equ	4055	;# 
   259   000FD8                     STATUS          equ	4056	;# 
   260   000FD9                     FSR2            equ	4057	;# 
   261   000FD9                     FSR2L           equ	4057	;# 
   262   000FDA                     FSR2H           equ	4058	;# 
   263   000FDB                     PLUSW2          equ	4059	;# 
   264   000FDC                     PREINC2         equ	4060	;# 
   265   000FDD                     POSTDEC2        equ	4061	;# 
   266   000FDE                     POSTINC2        equ	4062	;# 
   267   000FDF                     INDF2           equ	4063	;# 
   268   000FE0                     BSR             equ	4064	;# 
   269   000FE1                     FSR1            equ	4065	;# 
   270   000FE1                     FSR1L           equ	4065	;# 
   271   000FE2                     FSR1H           equ	4066	;# 
   272   000FE3                     PLUSW1          equ	4067	;# 
   273   000FE4                     PREINC1         equ	4068	;# 
   274   000FE5                     POSTDEC1        equ	4069	;# 
   275   000FE6                     POSTINC1        equ	4070	;# 
   276   000FE7                     INDF1           equ	4071	;# 
   277   000FE8                     WREG            equ	4072	;# 
   278   000FE9                     FSR0            equ	4073	;# 
   279   000FE9                     FSR0L           equ	4073	;# 
   280   000FEA                     FSR0H           equ	4074	;# 
   281   000FEB                     PLUSW0          equ	4075	;# 
   282   000FEC                     PREINC0         equ	4076	;# 
   283   000FED                     POSTDEC0        equ	4077	;# 
   284   000FEE                     POSTINC0        equ	4078	;# 
   285   000FEF                     INDF0           equ	4079	;# 
   286   000FF0                     INTCON3         equ	4080	;# 
   287   000FF1                     INTCON2         equ	4081	;# 
   288   000FF2                     INTCON          equ	4082	;# 
   289   000FF3                     PROD            equ	4083	;# 
   290   000FF3                     PRODL           equ	4083	;# 
   291   000FF4                     PRODH           equ	4084	;# 
   292   000FF5                     TABLAT          equ	4085	;# 
   293   000FF6                     TBLPTR          equ	4086	;# 
   294   000FF6                     TBLPTRL         equ	4086	;# 
   295   000FF7                     TBLPTRH         equ	4087	;# 
   296   000FF8                     TBLPTRU         equ	4088	;# 
   297   000FF9                     PCLAT           equ	4089	;# 
   298   000FF9                     PC              equ	4089	;# 
   299   000FF9                     PCL             equ	4089	;# 
   300   000FFA                     PCLATH          equ	4090	;# 
   301   000FFB                     PCLATU          equ	4091	;# 
   302   000FFC                     STKPTR          equ	4092	;# 
   303   000FFD                     TOS             equ	4093	;# 
   304   000FFD                     TOSL            equ	4093	;# 
   305   000FFE                     TOSH            equ	4094	;# 
   306   000FFF                     TOSU            equ	4095	;# 
   307   000F62                     SPPDATA         equ	3938	;# 
   308   000F63                     SPPCFG          equ	3939	;# 
   309   000F64                     SPPEPS          equ	3940	;# 
   310   000F65                     SPPCON          equ	3941	;# 
   311   000F66                     UFRM            equ	3942	;# 
   312   000F66                     UFRML           equ	3942	;# 
   313   000F67                     UFRMH           equ	3943	;# 
   314   000F68                     UIR             equ	3944	;# 
   315   000F69                     UIE             equ	3945	;# 
   316   000F6A                     UEIR            equ	3946	;# 
   317   000F6B                     UEIE            equ	3947	;# 
   318   000F6C                     USTAT           equ	3948	;# 
   319   000F6D                     UCON            equ	3949	;# 
   320   000F6E                     UADDR           equ	3950	;# 
   321   000F6F                     UCFG            equ	3951	;# 
   322   000F70                     UEP0            equ	3952	;# 
   323   000F71                     UEP1            equ	3953	;# 
   324   000F72                     UEP2            equ	3954	;# 
   325   000F73                     UEP3            equ	3955	;# 
   326   000F74                     UEP4            equ	3956	;# 
   327   000F75                     UEP5            equ	3957	;# 
   328   000F76                     UEP6            equ	3958	;# 
   329   000F77                     UEP7            equ	3959	;# 
   330   000F78                     UEP8            equ	3960	;# 
   331   000F79                     UEP9            equ	3961	;# 
   332   000F7A                     UEP10           equ	3962	;# 
   333   000F7B                     UEP11           equ	3963	;# 
   334   000F7C                     UEP12           equ	3964	;# 
   335   000F7D                     UEP13           equ	3965	;# 
   336   000F7E                     UEP14           equ	3966	;# 
   337   000F7F                     UEP15           equ	3967	;# 
   338   000F80                     PORTA           equ	3968	;# 
   339   000F81                     PORTB           equ	3969	;# 
   340   000F82                     PORTC           equ	3970	;# 
   341   000F83                     PORTD           equ	3971	;# 
   342   000F84                     PORTE           equ	3972	;# 
   343   000F89                     LATA            equ	3977	;# 
   344   000F8A                     LATB            equ	3978	;# 
   345   000F8B                     LATC            equ	3979	;# 
   346   000F8C                     LATD            equ	3980	;# 
   347   000F8D                     LATE            equ	3981	;# 
   348   000F92                     TRISA           equ	3986	;# 
   349   000F92                     DDRA            equ	3986	;# 
   350   000F93                     TRISB           equ	3987	;# 
   351   000F93                     DDRB            equ	3987	;# 
   352   000F94                     TRISC           equ	3988	;# 
   353   000F94                     DDRC            equ	3988	;# 
   354   000F95                     TRISD           equ	3989	;# 
   355   000F95                     DDRD            equ	3989	;# 
   356   000F96                     TRISE           equ	3990	;# 
   357   000F96                     DDRE            equ	3990	;# 
   358   000F9B                     OSCTUNE         equ	3995	;# 
   359   000F9D                     PIE1            equ	3997	;# 
   360   000F9E                     PIR1            equ	3998	;# 
   361   000F9F                     IPR1            equ	3999	;# 
   362   000FA0                     PIE2            equ	4000	;# 
   363   000FA1                     PIR2            equ	4001	;# 
   364   000FA2                     IPR2            equ	4002	;# 
   365   000FA6                     EECON1          equ	4006	;# 
   366   000FA7                     EECON2          equ	4007	;# 
   367   000FA8                     EEDATA          equ	4008	;# 
   368   000FA9                     EEADR           equ	4009	;# 
   369   000FAB                     RCSTA           equ	4011	;# 
   370   000FAB                     RCSTA1          equ	4011	;# 
   371   000FAC                     TXSTA           equ	4012	;# 
   372   000FAC                     TXSTA1          equ	4012	;# 
   373   000FAD                     TXREG           equ	4013	;# 
   374   000FAD                     TXREG1          equ	4013	;# 
   375   000FAE                     RCREG           equ	4014	;# 
   376   000FAE                     RCREG1          equ	4014	;# 
   377   000FAF                     SPBRG           equ	4015	;# 
   378   000FAF                     SPBRG1          equ	4015	;# 
   379   000FB0                     SPBRGH          equ	4016	;# 
   380   000FB1                     T3CON           equ	4017	;# 
   381   000FB2                     TMR3            equ	4018	;# 
   382   000FB2                     TMR3L           equ	4018	;# 
   383   000FB3                     TMR3H           equ	4019	;# 
   384   000FB4                     CMCON           equ	4020	;# 
   385   000FB5                     CVRCON          equ	4021	;# 
   386   000FB6                     ECCP1AS         equ	4022	;# 
   387   000FB6                     CCP1AS          equ	4022	;# 
   388   000FB7                     ECCP1DEL        equ	4023	;# 
   389   000FB7                     CCP1DEL         equ	4023	;# 
   390   000FB8                     BAUDCON         equ	4024	;# 
   391   000FB8                     BAUDCTL         equ	4024	;# 
   392   000FBA                     CCP2CON         equ	4026	;# 
   393   000FBB                     CCPR2           equ	4027	;# 
   394   000FBB                     CCPR2L          equ	4027	;# 
   395   000FBC                     CCPR2H          equ	4028	;# 
   396   000FBD                     CCP1CON         equ	4029	;# 
   397   000FBD                     ECCP1CON        equ	4029	;# 
   398   000FBE                     CCPR1           equ	4030	;# 
   399   000FBE                     CCPR1L          equ	4030	;# 
   400   000FBF                     CCPR1H          equ	4031	;# 
   401   000FC0                     ADCON2          equ	4032	;# 
   402   000FC1                     ADCON1          equ	4033	;# 
   403   000FC2                     ADCON0          equ	4034	;# 
   404   000FC3                     ADRES           equ	4035	;# 
   405   000FC3                     ADRESL          equ	4035	;# 
   406   000FC4                     ADRESH          equ	4036	;# 
   407   000FC5                     SSPCON2         equ	4037	;# 
   408   000FC6                     SSPCON1         equ	4038	;# 
   409   000FC7                     SSPSTAT         equ	4039	;# 
   410   000FC8                     SSPADD          equ	4040	;# 
   411   000FC9                     SSPBUF          equ	4041	;# 
   412   000FCA                     T2CON           equ	4042	;# 
   413   000FCB                     PR2             equ	4043	;# 
   414   000FCB                     MEMCON          equ	4043	;# 
   415   000FCC                     TMR2            equ	4044	;# 
   416   000FCD                     T1CON           equ	4045	;# 
   417   000FCE                     TMR1            equ	4046	;# 
   418   000FCE                     TMR1L           equ	4046	;# 
   419   000FCF                     TMR1H           equ	4047	;# 
   420   000FD0                     RCON            equ	4048	;# 
   421   000FD1                     WDTCON          equ	4049	;# 
   422   000FD2                     HLVDCON         equ	4050	;# 
   423   000FD2                     LVDCON          equ	4050	;# 
   424   000FD3                     OSCCON          equ	4051	;# 
   425   000FD5                     T0CON           equ	4053	;# 
   426   000FD6                     TMR0            equ	4054	;# 
   427   000FD6                     TMR0L           equ	4054	;# 
   428   000FD7                     TMR0H           equ	4055	;# 
   429   000FD8                     STATUS          equ	4056	;# 
   430   000FD9                     FSR2            equ	4057	;# 
   431   000FD9                     FSR2L           equ	4057	;# 
   432   000FDA                     FSR2H           equ	4058	;# 
   433   000FDB                     PLUSW2          equ	4059	;# 
   434   000FDC                     PREINC2         equ	4060	;# 
   435   000FDD                     POSTDEC2        equ	4061	;# 
   436   000FDE                     POSTINC2        equ	4062	;# 
   437   000FDF                     INDF2           equ	4063	;# 
   438   000FE0                     BSR             equ	4064	;# 
   439   000FE1                     FSR1            equ	4065	;# 
   440   000FE1                     FSR1L           equ	4065	;# 
   441   000FE2                     FSR1H           equ	4066	;# 
   442   000FE3                     PLUSW1          equ	4067	;# 
   443   000FE4                     PREINC1         equ	4068	;# 
   444   000FE5                     POSTDEC1        equ	4069	;# 
   445   000FE6                     POSTINC1        equ	4070	;# 
   446   000FE7                     INDF1           equ	4071	;# 
   447   000FE8                     WREG            equ	4072	;# 
   448   000FE9                     FSR0            equ	4073	;# 
   449   000FE9                     FSR0L           equ	4073	;# 
   450   000FEA                     FSR0H           equ	4074	;# 
   451   000FEB                     PLUSW0          equ	4075	;# 
   452   000FEC                     PREINC0         equ	4076	;# 
   453   000FED                     POSTDEC0        equ	4077	;# 
   454   000FEE                     POSTINC0        equ	4078	;# 
   455   000FEF                     INDF0           equ	4079	;# 
   456   000FF0                     INTCON3         equ	4080	;# 
   457   000FF1                     INTCON2         equ	4081	;# 
   458   000FF2                     INTCON          equ	4082	;# 
   459   000FF3                     PROD            equ	4083	;# 
   460   000FF3                     PRODL           equ	4083	;# 
   461   000FF4                     PRODH           equ	4084	;# 
   462   000FF5                     TABLAT          equ	4085	;# 
   463   000FF6                     TBLPTR          equ	4086	;# 
   464   000FF6                     TBLPTRL         equ	4086	;# 
   465   000FF7                     TBLPTRH         equ	4087	;# 
   466   000FF8                     TBLPTRU         equ	4088	;# 
   467   000FF9                     PCLAT           equ	4089	;# 
   468   000FF9                     PC              equ	4089	;# 
   469   000FF9                     PCL             equ	4089	;# 
   470   000FFA                     PCLATH          equ	4090	;# 
   471   000FFB                     PCLATU          equ	4091	;# 
   472   000FFC                     STKPTR          equ	4092	;# 
   473   000FFD                     TOS             equ	4093	;# 
   474   000FFD                     TOSL            equ	4093	;# 
   475   000FFE                     TOSH            equ	4094	;# 
   476   000FFF                     TOSU            equ	4095	;# 
   477   000F62                     SPPDATA         equ	3938	;# 
   478   000F63                     SPPCFG          equ	3939	;# 
   479   000F64                     SPPEPS          equ	3940	;# 
   480   000F65                     SPPCON          equ	3941	;# 
   481   000F66                     UFRM            equ	3942	;# 
   482   000F66                     UFRML           equ	3942	;# 
   483   000F67                     UFRMH           equ	3943	;# 
   484   000F68                     UIR             equ	3944	;# 
   485   000F69                     UIE             equ	3945	;# 
   486   000F6A                     UEIR            equ	3946	;# 
   487   000F6B                     UEIE            equ	3947	;# 
   488   000F6C                     USTAT           equ	3948	;# 
   489   000F6D                     UCON            equ	3949	;# 
   490   000F6E                     UADDR           equ	3950	;# 
   491   000F6F                     UCFG            equ	3951	;# 
   492   000F70                     UEP0            equ	3952	;# 
   493   000F71                     UEP1            equ	3953	;# 
   494   000F72                     UEP2            equ	3954	;# 
   495   000F73                     UEP3            equ	3955	;# 
   496   000F74                     UEP4            equ	3956	;# 
   497   000F75                     UEP5            equ	3957	;# 
   498   000F76                     UEP6            equ	3958	;# 
   499   000F77                     UEP7            equ	3959	;# 
   500   000F78                     UEP8            equ	3960	;# 
   501   000F79                     UEP9            equ	3961	;# 
   502   000F7A                     UEP10           equ	3962	;# 
   503   000F7B                     UEP11           equ	3963	;# 
   504   000F7C                     UEP12           equ	3964	;# 
   505   000F7D                     UEP13           equ	3965	;# 
   506   000F7E                     UEP14           equ	3966	;# 
   507   000F7F                     UEP15           equ	3967	;# 
   508   000F80                     PORTA           equ	3968	;# 
   509   000F81                     PORTB           equ	3969	;# 
   510   000F82                     PORTC           equ	3970	;# 
   511   000F83                     PORTD           equ	3971	;# 
   512   000F84                     PORTE           equ	3972	;# 
   513   000F89                     LATA            equ	3977	;# 
   514   000F8A                     LATB            equ	3978	;# 
   515   000F8B                     LATC            equ	3979	;# 
   516   000F8C                     LATD            equ	3980	;# 
   517   000F8D                     LATE            equ	3981	;# 
   518   000F92                     TRISA           equ	3986	;# 
   519   000F92                     DDRA            equ	3986	;# 
   520   000F93                     TRISB           equ	3987	;# 
   521   000F93                     DDRB            equ	3987	;# 
   522   000F94                     TRISC           equ	3988	;# 
   523   000F94                     DDRC            equ	3988	;# 
   524   000F95                     TRISD           equ	3989	;# 
   525   000F95                     DDRD            equ	3989	;# 
   526   000F96                     TRISE           equ	3990	;# 
   527   000F96                     DDRE            equ	3990	;# 
   528   000F9B                     OSCTUNE         equ	3995	;# 
   529   000F9D                     PIE1            equ	3997	;# 
   530   000F9E                     PIR1            equ	3998	;# 
   531   000F9F                     IPR1            equ	3999	;# 
   532   000FA0                     PIE2            equ	4000	;# 
   533   000FA1                     PIR2            equ	4001	;# 
   534   000FA2                     IPR2            equ	4002	;# 
   535   000FA6                     EECON1          equ	4006	;# 
   536   000FA7                     EECON2          equ	4007	;# 
   537   000FA8                     EEDATA          equ	4008	;# 
   538   000FA9                     EEADR           equ	4009	;# 
   539   000FAB                     RCSTA           equ	4011	;# 
   540   000FAB                     RCSTA1          equ	4011	;# 
   541   000FAC                     TXSTA           equ	4012	;# 
   542   000FAC                     TXSTA1          equ	4012	;# 
   543   000FAD                     TXREG           equ	4013	;# 
   544   000FAD                     TXREG1          equ	4013	;# 
   545   000FAE                     RCREG           equ	4014	;# 
   546   000FAE                     RCREG1          equ	4014	;# 
   547   000FAF                     SPBRG           equ	4015	;# 
   548   000FAF                     SPBRG1          equ	4015	;# 
   549   000FB0                     SPBRGH          equ	4016	;# 
   550   000FB1                     T3CON           equ	4017	;# 
   551   000FB2                     TMR3            equ	4018	;# 
   552   000FB2                     TMR3L           equ	4018	;# 
   553   000FB3                     TMR3H           equ	4019	;# 
   554   000FB4                     CMCON           equ	4020	;# 
   555   000FB5                     CVRCON          equ	4021	;# 
   556   000FB6                     ECCP1AS         equ	4022	;# 
   557   000FB6                     CCP1AS          equ	4022	;# 
   558   000FB7                     ECCP1DEL        equ	4023	;# 
   559   000FB7                     CCP1DEL         equ	4023	;# 
   560   000FB8                     BAUDCON         equ	4024	;# 
   561   000FB8                     BAUDCTL         equ	4024	;# 
   562   000FBA                     CCP2CON         equ	4026	;# 
   563   000FBB                     CCPR2           equ	4027	;# 
   564   000FBB                     CCPR2L          equ	4027	;# 
   565   000FBC                     CCPR2H          equ	4028	;# 
   566   000FBD                     CCP1CON         equ	4029	;# 
   567   000FBD                     ECCP1CON        equ	4029	;# 
   568   000FBE                     CCPR1           equ	4030	;# 
   569   000FBE                     CCPR1L          equ	4030	;# 
   570   000FBF                     CCPR1H          equ	4031	;# 
   571   000FC0                     ADCON2          equ	4032	;# 
   572   000FC1                     ADCON1          equ	4033	;# 
   573   000FC2                     ADCON0          equ	4034	;# 
   574   000FC3                     ADRES           equ	4035	;# 
   575   000FC3                     ADRESL          equ	4035	;# 
   576   000FC4                     ADRESH          equ	4036	;# 
   577   000FC5                     SSPCON2         equ	4037	;# 
   578   000FC6                     SSPCON1         equ	4038	;# 
   579   000FC7                     SSPSTAT         equ	4039	;# 
   580   000FC8                     SSPADD          equ	4040	;# 
   581   000FC9                     SSPBUF          equ	4041	;# 
   582   000FCA                     T2CON           equ	4042	;# 
   583   000FCB                     PR2             equ	4043	;# 
   584   000FCB                     MEMCON          equ	4043	;# 
   585   000FCC                     TMR2            equ	4044	;# 
   586   000FCD                     T1CON           equ	4045	;# 
   587   000FCE                     TMR1            equ	4046	;# 
   588   000FCE                     TMR1L           equ	4046	;# 
   589   000FCF                     TMR1H           equ	4047	;# 
   590   000FD0                     RCON            equ	4048	;# 
   591   000FD1                     WDTCON          equ	4049	;# 
   592   000FD2                     HLVDCON         equ	4050	;# 
   593   000FD2                     LVDCON          equ	4050	;# 
   594   000FD3                     OSCCON          equ	4051	;# 
   595   000FD5                     T0CON           equ	4053	;# 
   596   000FD6                     TMR0            equ	4054	;# 
   597   000FD6                     TMR0L           equ	4054	;# 
   598   000FD7                     TMR0H           equ	4055	;# 
   599   000FD8                     STATUS          equ	4056	;# 
   600   000FD9                     FSR2            equ	4057	;# 
   601   000FD9                     FSR2L           equ	4057	;# 
   602   000FDA                     FSR2H           equ	4058	;# 
   603   000FDB                     PLUSW2          equ	4059	;# 
   604   000FDC                     PREINC2         equ	4060	;# 
   605   000FDD                     POSTDEC2        equ	4061	;# 
   606   000FDE                     POSTINC2        equ	4062	;# 
   607   000FDF                     INDF2           equ	4063	;# 
   608   000FE0                     BSR             equ	4064	;# 
   609   000FE1                     FSR1            equ	4065	;# 
   610   000FE1                     FSR1L           equ	4065	;# 
   611   000FE2                     FSR1H           equ	4066	;# 
   612   000FE3                     PLUSW1          equ	4067	;# 
   613   000FE4                     PREINC1         equ	4068	;# 
   614   000FE5                     POSTDEC1        equ	4069	;# 
   615   000FE6                     POSTINC1        equ	4070	;# 
   616   000FE7                     INDF1           equ	4071	;# 
   617   000FE8                     WREG            equ	4072	;# 
   618   000FE9                     FSR0            equ	4073	;# 
   619   000FE9                     FSR0L           equ	4073	;# 
   620   000FEA                     FSR0H           equ	4074	;# 
   621   000FEB                     PLUSW0          equ	4075	;# 
   622   000FEC                     PREINC0         equ	4076	;# 
   623   000FED                     POSTDEC0        equ	4077	;# 
   624   000FEE                     POSTINC0        equ	4078	;# 
   625   000FEF                     INDF0           equ	4079	;# 
   626   000FF0                     INTCON3         equ	4080	;# 
   627   000FF1                     INTCON2         equ	4081	;# 
   628   000FF2                     INTCON          equ	4082	;# 
   629   000FF3                     PROD            equ	4083	;# 
   630   000FF3                     PRODL           equ	4083	;# 
   631   000FF4                     PRODH           equ	4084	;# 
   632   000FF5                     TABLAT          equ	4085	;# 
   633   000FF6                     TBLPTR          equ	4086	;# 
   634   000FF6                     TBLPTRL         equ	4086	;# 
   635   000FF7                     TBLPTRH         equ	4087	;# 
   636   000FF8                     TBLPTRU         equ	4088	;# 
   637   000FF9                     PCLAT           equ	4089	;# 
   638   000FF9                     PC              equ	4089	;# 
   639   000FF9                     PCL             equ	4089	;# 
   640   000FFA                     PCLATH          equ	4090	;# 
   641   000FFB                     PCLATU          equ	4091	;# 
   642   000FFC                     STKPTR          equ	4092	;# 
   643   000FFD                     TOS             equ	4093	;# 
   644   000FFD                     TOSL            equ	4093	;# 
   645   000FFE                     TOSH            equ	4094	;# 
   646   000FFF                     TOSU            equ	4095	;# 
   647   000F62                     SPPDATA         equ	3938	;# 
   648   000F63                     SPPCFG          equ	3939	;# 
   649   000F64                     SPPEPS          equ	3940	;# 
   650   000F65                     SPPCON          equ	3941	;# 
   651   000F66                     UFRM            equ	3942	;# 
   652   000F66                     UFRML           equ	3942	;# 
   653   000F67                     UFRMH           equ	3943	;# 
   654   000F68                     UIR             equ	3944	;# 
   655   000F69                     UIE             equ	3945	;# 
   656   000F6A                     UEIR            equ	3946	;# 
   657   000F6B                     UEIE            equ	3947	;# 
   658   000F6C                     USTAT           equ	3948	;# 
   659   000F6D                     UCON            equ	3949	;# 
   660   000F6E                     UADDR           equ	3950	;# 
   661   000F6F                     UCFG            equ	3951	;# 
   662   000F70                     UEP0            equ	3952	;# 
   663   000F71                     UEP1            equ	3953	;# 
   664   000F72                     UEP2            equ	3954	;# 
   665   000F73                     UEP3            equ	3955	;# 
   666   000F74                     UEP4            equ	3956	;# 
   667   000F75                     UEP5            equ	3957	;# 
   668   000F76                     UEP6            equ	3958	;# 
   669   000F77                     UEP7            equ	3959	;# 
   670   000F78                     UEP8            equ	3960	;# 
   671   000F79                     UEP9            equ	3961	;# 
   672   000F7A                     UEP10           equ	3962	;# 
   673   000F7B                     UEP11           equ	3963	;# 
   674   000F7C                     UEP12           equ	3964	;# 
   675   000F7D                     UEP13           equ	3965	;# 
   676   000F7E                     UEP14           equ	3966	;# 
   677   000F7F                     UEP15           equ	3967	;# 
   678   000F80                     PORTA           equ	3968	;# 
   679   000F81                     PORTB           equ	3969	;# 
   680   000F82                     PORTC           equ	3970	;# 
   681   000F83                     PORTD           equ	3971	;# 
   682   000F84                     PORTE           equ	3972	;# 
   683   000F89                     LATA            equ	3977	;# 
   684   000F8A                     LATB            equ	3978	;# 
   685   000F8B                     LATC            equ	3979	;# 
   686   000F8C                     LATD            equ	3980	;# 
   687   000F8D                     LATE            equ	3981	;# 
   688   000F92                     TRISA           equ	3986	;# 
   689   000F92                     DDRA            equ	3986	;# 
   690   000F93                     TRISB           equ	3987	;# 
   691   000F93                     DDRB            equ	3987	;# 
   692   000F94                     TRISC           equ	3988	;# 
   693   000F94                     DDRC            equ	3988	;# 
   694   000F95                     TRISD           equ	3989	;# 
   695   000F95                     DDRD            equ	3989	;# 
   696   000F96                     TRISE           equ	3990	;# 
   697   000F96                     DDRE            equ	3990	;# 
   698   000F9B                     OSCTUNE         equ	3995	;# 
   699   000F9D                     PIE1            equ	3997	;# 
   700   000F9E                     PIR1            equ	3998	;# 
   701   000F9F                     IPR1            equ	3999	;# 
   702   000FA0                     PIE2            equ	4000	;# 
   703   000FA1                     PIR2            equ	4001	;# 
   704   000FA2                     IPR2            equ	4002	;# 
   705   000FA6                     EECON1          equ	4006	;# 
   706   000FA7                     EECON2          equ	4007	;# 
   707   000FA8                     EEDATA          equ	4008	;# 
   708   000FA9                     EEADR           equ	4009	;# 
   709   000FAB                     RCSTA           equ	4011	;# 
   710   000FAB                     RCSTA1          equ	4011	;# 
   711   000FAC                     TXSTA           equ	4012	;# 
   712   000FAC                     TXSTA1          equ	4012	;# 
   713   000FAD                     TXREG           equ	4013	;# 
   714   000FAD                     TXREG1          equ	4013	;# 
   715   000FAE                     RCREG           equ	4014	;# 
   716   000FAE                     RCREG1          equ	4014	;# 
   717   000FAF                     SPBRG           equ	4015	;# 
   718   000FAF                     SPBRG1          equ	4015	;# 
   719   000FB0                     SPBRGH          equ	4016	;# 
   720   000FB1                     T3CON           equ	4017	;# 
   721   000FB2                     TMR3            equ	4018	;# 
   722   000FB2                     TMR3L           equ	4018	;# 
   723   000FB3                     TMR3H           equ	4019	;# 
   724   000FB4                     CMCON           equ	4020	;# 
   725   000FB5                     CVRCON          equ	4021	;# 
   726   000FB6                     ECCP1AS         equ	4022	;# 
   727   000FB6                     CCP1AS          equ	4022	;# 
   728   000FB7                     ECCP1DEL        equ	4023	;# 
   729   000FB7                     CCP1DEL         equ	4023	;# 
   730   000FB8                     BAUDCON         equ	4024	;# 
   731   000FB8                     BAUDCTL         equ	4024	;# 
   732   000FBA                     CCP2CON         equ	4026	;# 
   733   000FBB                     CCPR2           equ	4027	;# 
   734   000FBB                     CCPR2L          equ	4027	;# 
   735   000FBC                     CCPR2H          equ	4028	;# 
   736   000FBD                     CCP1CON         equ	4029	;# 
   737   000FBD                     ECCP1CON        equ	4029	;# 
   738   000FBE                     CCPR1           equ	4030	;# 
   739   000FBE                     CCPR1L          equ	4030	;# 
   740   000FBF                     CCPR1H          equ	4031	;# 
   741   000FC0                     ADCON2          equ	4032	;# 
   742   000FC1                     ADCON1          equ	4033	;# 
   743   000FC2                     ADCON0          equ	4034	;# 
   744   000FC3                     ADRES           equ	4035	;# 
   745   000FC3                     ADRESL          equ	4035	;# 
   746   000FC4                     ADRESH          equ	4036	;# 
   747   000FC5                     SSPCON2         equ	4037	;# 
   748   000FC6                     SSPCON1         equ	4038	;# 
   749   000FC7                     SSPSTAT         equ	4039	;# 
   750   000FC8                     SSPADD          equ	4040	;# 
   751   000FC9                     SSPBUF          equ	4041	;# 
   752   000FCA                     T2CON           equ	4042	;# 
   753   000FCB                     PR2             equ	4043	;# 
   754   000FCB                     MEMCON          equ	4043	;# 
   755   000FCC                     TMR2            equ	4044	;# 
   756   000FCD                     T1CON           equ	4045	;# 
   757   000FCE                     TMR1            equ	4046	;# 
   758   000FCE                     TMR1L           equ	4046	;# 
   759   000FCF                     TMR1H           equ	4047	;# 
   760   000FD0                     RCON            equ	4048	;# 
   761   000FD1                     WDTCON          equ	4049	;# 
   762   000FD2                     HLVDCON         equ	4050	;# 
   763   000FD2                     LVDCON          equ	4050	;# 
   764   000FD3                     OSCCON          equ	4051	;# 
   765   000FD5                     T0CON           equ	4053	;# 
   766   000FD6                     TMR0            equ	4054	;# 
   767   000FD6                     TMR0L           equ	4054	;# 
   768   000FD7                     TMR0H           equ	4055	;# 
   769   000FD8                     STATUS          equ	4056	;# 
   770   000FD9                     FSR2            equ	4057	;# 
   771   000FD9                     FSR2L           equ	4057	;# 
   772   000FDA                     FSR2H           equ	4058	;# 
   773   000FDB                     PLUSW2          equ	4059	;# 
   774   000FDC                     PREINC2         equ	4060	;# 
   775   000FDD                     POSTDEC2        equ	4061	;# 
   776   000FDE                     POSTINC2        equ	4062	;# 
   777   000FDF                     INDF2           equ	4063	;# 
   778   000FE0                     BSR             equ	4064	;# 
   779   000FE1                     FSR1            equ	4065	;# 
   780   000FE1                     FSR1L           equ	4065	;# 
   781   000FE2                     FSR1H           equ	4066	;# 
   782   000FE3                     PLUSW1          equ	4067	;# 
   783   000FE4                     PREINC1         equ	4068	;# 
   784   000FE5                     POSTDEC1        equ	4069	;# 
   785   000FE6                     POSTINC1        equ	4070	;# 
   786   000FE7                     INDF1           equ	4071	;# 
   787   000FE8                     WREG            equ	4072	;# 
   788   000FE9                     FSR0            equ	4073	;# 
   789   000FE9                     FSR0L           equ	4073	;# 
   790   000FEA                     FSR0H           equ	4074	;# 
   791   000FEB                     PLUSW0          equ	4075	;# 
   792   000FEC                     PREINC0         equ	4076	;# 
   793   000FED                     POSTDEC0        equ	4077	;# 
   794   000FEE                     POSTINC0        equ	4078	;# 
   795   000FEF                     INDF0           equ	4079	;# 
   796   000FF0                     INTCON3         equ	4080	;# 
   797   000FF1                     INTCON2         equ	4081	;# 
   798   000FF2                     INTCON          equ	4082	;# 
   799   000FF3                     PROD            equ	4083	;# 
   800   000FF3                     PRODL           equ	4083	;# 
   801   000FF4                     PRODH           equ	4084	;# 
   802   000FF5                     TABLAT          equ	4085	;# 
   803   000FF6                     TBLPTR          equ	4086	;# 
   804   000FF6                     TBLPTRL         equ	4086	;# 
   805   000FF7                     TBLPTRH         equ	4087	;# 
   806   000FF8                     TBLPTRU         equ	4088	;# 
   807   000FF9                     PCLAT           equ	4089	;# 
   808   000FF9                     PC              equ	4089	;# 
   809   000FF9                     PCL             equ	4089	;# 
   810   000FFA                     PCLATH          equ	4090	;# 
   811   000FFB                     PCLATU          equ	4091	;# 
   812   000FFC                     STKPTR          equ	4092	;# 
   813   000FFD                     TOS             equ	4093	;# 
   814   000FFD                     TOSL            equ	4093	;# 
   815   000FFE                     TOSH            equ	4094	;# 
   816   000FFF                     TOSU            equ	4095	;# 
   817   000F62                     SPPDATA         equ	3938	;# 
   818   000F63                     SPPCFG          equ	3939	;# 
   819   000F64                     SPPEPS          equ	3940	;# 
   820   000F65                     SPPCON          equ	3941	;# 
   821   000F66                     UFRM            equ	3942	;# 
   822   000F66                     UFRML           equ	3942	;# 
   823   000F67                     UFRMH           equ	3943	;# 
   824   000F68                     UIR             equ	3944	;# 
   825   000F69                     UIE             equ	3945	;# 
   826   000F6A                     UEIR            equ	3946	;# 
   827   000F6B                     UEIE            equ	3947	;# 
   828   000F6C                     USTAT           equ	3948	;# 
   829   000F6D                     UCON            equ	3949	;# 
   830   000F6E                     UADDR           equ	3950	;# 
   831   000F6F                     UCFG            equ	3951	;# 
   832   000F70                     UEP0            equ	3952	;# 
   833   000F71                     UEP1            equ	3953	;# 
   834   000F72                     UEP2            equ	3954	;# 
   835   000F73                     UEP3            equ	3955	;# 
   836   000F74                     UEP4            equ	3956	;# 
   837   000F75                     UEP5            equ	3957	;# 
   838   000F76                     UEP6            equ	3958	;# 
   839   000F77                     UEP7            equ	3959	;# 
   840   000F78                     UEP8            equ	3960	;# 
   841   000F79                     UEP9            equ	3961	;# 
   842   000F7A                     UEP10           equ	3962	;# 
   843   000F7B                     UEP11           equ	3963	;# 
   844   000F7C                     UEP12           equ	3964	;# 
   845   000F7D                     UEP13           equ	3965	;# 
   846   000F7E                     UEP14           equ	3966	;# 
   847   000F7F                     UEP15           equ	3967	;# 
   848   000F80                     PORTA           equ	3968	;# 
   849   000F81                     PORTB           equ	3969	;# 
   850   000F82                     PORTC           equ	3970	;# 
   851   000F83                     PORTD           equ	3971	;# 
   852   000F84                     PORTE           equ	3972	;# 
   853   000F89                     LATA            equ	3977	;# 
   854   000F8A                     LATB            equ	3978	;# 
   855   000F8B                     LATC            equ	3979	;# 
   856   000F8C                     LATD            equ	3980	;# 
   857   000F8D                     LATE            equ	3981	;# 
   858   000F92                     TRISA           equ	3986	;# 
   859   000F92                     DDRA            equ	3986	;# 
   860   000F93                     TRISB           equ	3987	;# 
   861   000F93                     DDRB            equ	3987	;# 
   862   000F94                     TRISC           equ	3988	;# 
   863   000F94                     DDRC            equ	3988	;# 
   864   000F95                     TRISD           equ	3989	;# 
   865   000F95                     DDRD            equ	3989	;# 
   866   000F96                     TRISE           equ	3990	;# 
   867   000F96                     DDRE            equ	3990	;# 
   868   000F9B                     OSCTUNE         equ	3995	;# 
   869   000F9D                     PIE1            equ	3997	;# 
   870   000F9E                     PIR1            equ	3998	;# 
   871   000F9F                     IPR1            equ	3999	;# 
   872   000FA0                     PIE2            equ	4000	;# 
   873   000FA1                     PIR2            equ	4001	;# 
   874   000FA2                     IPR2            equ	4002	;# 
   875   000FA6                     EECON1          equ	4006	;# 
   876   000FA7                     EECON2          equ	4007	;# 
   877   000FA8                     EEDATA          equ	4008	;# 
   878   000FA9                     EEADR           equ	4009	;# 
   879   000FAB                     RCSTA           equ	4011	;# 
   880   000FAB                     RCSTA1          equ	4011	;# 
   881   000FAC                     TXSTA           equ	4012	;# 
   882   000FAC                     TXSTA1          equ	4012	;# 
   883   000FAD                     TXREG           equ	4013	;# 
   884   000FAD                     TXREG1          equ	4013	;# 
   885   000FAE                     RCREG           equ	4014	;# 
   886   000FAE                     RCREG1          equ	4014	;# 
   887   000FAF                     SPBRG           equ	4015	;# 
   888   000FAF                     SPBRG1          equ	4015	;# 
   889   000FB0                     SPBRGH          equ	4016	;# 
   890   000FB1                     T3CON           equ	4017	;# 
   891   000FB2                     TMR3            equ	4018	;# 
   892   000FB2                     TMR3L           equ	4018	;# 
   893   000FB3                     TMR3H           equ	4019	;# 
   894   000FB4                     CMCON           equ	4020	;# 
   895   000FB5                     CVRCON          equ	4021	;# 
   896   000FB6                     ECCP1AS         equ	4022	;# 
   897   000FB6                     CCP1AS          equ	4022	;# 
   898   000FB7                     ECCP1DEL        equ	4023	;# 
   899   000FB7                     CCP1DEL         equ	4023	;# 
   900   000FB8                     BAUDCON         equ	4024	;# 
   901   000FB8                     BAUDCTL         equ	4024	;# 
   902   000FBA                     CCP2CON         equ	4026	;# 
   903   000FBB                     CCPR2           equ	4027	;# 
   904   000FBB                     CCPR2L          equ	4027	;# 
   905   000FBC                     CCPR2H          equ	4028	;# 
   906   000FBD                     CCP1CON         equ	4029	;# 
   907   000FBD                     ECCP1CON        equ	4029	;# 
   908   000FBE                     CCPR1           equ	4030	;# 
   909   000FBE                     CCPR1L          equ	4030	;# 
   910   000FBF                     CCPR1H          equ	4031	;# 
   911   000FC0                     ADCON2          equ	4032	;# 
   912   000FC1                     ADCON1          equ	4033	;# 
   913   000FC2                     ADCON0          equ	4034	;# 
   914   000FC3                     ADRES           equ	4035	;# 
   915   000FC3                     ADRESL          equ	4035	;# 
   916   000FC4                     ADRESH          equ	4036	;# 
   917   000FC5                     SSPCON2         equ	4037	;# 
   918   000FC6                     SSPCON1         equ	4038	;# 
   919   000FC7                     SSPSTAT         equ	4039	;# 
   920   000FC8                     SSPADD          equ	4040	;# 
   921   000FC9                     SSPBUF          equ	4041	;# 
   922   000FCA                     T2CON           equ	4042	;# 
   923   000FCB                     PR2             equ	4043	;# 
   924   000FCB                     MEMCON          equ	4043	;# 
   925   000FCC                     TMR2            equ	4044	;# 
   926   000FCD                     T1CON           equ	4045	;# 
   927   000FCE                     TMR1            equ	4046	;# 
   928   000FCE                     TMR1L           equ	4046	;# 
   929   000FCF                     TMR1H           equ	4047	;# 
   930   000FD0                     RCON            equ	4048	;# 
   931   000FD1                     WDTCON          equ	4049	;# 
   932   000FD2                     HLVDCON         equ	4050	;# 
   933   000FD2                     LVDCON          equ	4050	;# 
   934   000FD3                     OSCCON          equ	4051	;# 
   935   000FD5                     T0CON           equ	4053	;# 
   936   000FD6                     TMR0            equ	4054	;# 
   937   000FD6                     TMR0L           equ	4054	;# 
   938   000FD7                     TMR0H           equ	4055	;# 
   939   000FD8                     STATUS          equ	4056	;# 
   940   000FD9                     FSR2            equ	4057	;# 
   941   000FD9                     FSR2L           equ	4057	;# 
   942   000FDA                     FSR2H           equ	4058	;# 
   943   000FDB                     PLUSW2          equ	4059	;# 
   944   000FDC                     PREINC2         equ	4060	;# 
   945   000FDD                     POSTDEC2        equ	4061	;# 
   946   000FDE                     POSTINC2        equ	4062	;# 
   947   000FDF                     INDF2           equ	4063	;# 
   948   000FE0                     BSR             equ	4064	;# 
   949   000FE1                     FSR1            equ	4065	;# 
   950   000FE1                     FSR1L           equ	4065	;# 
   951   000FE2                     FSR1H           equ	4066	;# 
   952   000FE3                     PLUSW1          equ	4067	;# 
   953   000FE4                     PREINC1         equ	4068	;# 
   954   000FE5                     POSTDEC1        equ	4069	;# 
   955   000FE6                     POSTINC1        equ	4070	;# 
   956   000FE7                     INDF1           equ	4071	;# 
   957   000FE8                     WREG            equ	4072	;# 
   958   000FE9                     FSR0            equ	4073	;# 
   959   000FE9                     FSR0L           equ	4073	;# 
   960   000FEA                     FSR0H           equ	4074	;# 
   961   000FEB                     PLUSW0          equ	4075	;# 
   962   000FEC                     PREINC0         equ	4076	;# 
   963   000FED                     POSTDEC0        equ	4077	;# 
   964   000FEE                     POSTINC0        equ	4078	;# 
   965   000FEF                     INDF0           equ	4079	;# 
   966   000FF0                     INTCON3         equ	4080	;# 
   967   000FF1                     INTCON2         equ	4081	;# 
   968   000FF2                     INTCON          equ	4082	;# 
   969   000FF3                     PROD            equ	4083	;# 
   970   000FF3                     PRODL           equ	4083	;# 
   971   000FF4                     PRODH           equ	4084	;# 
   972   000FF5                     TABLAT          equ	4085	;# 
   973   000FF6                     TBLPTR          equ	4086	;# 
   974   000FF6                     TBLPTRL         equ	4086	;# 
   975   000FF7                     TBLPTRH         equ	4087	;# 
   976   000FF8                     TBLPTRU         equ	4088	;# 
   977   000FF9                     PCLAT           equ	4089	;# 
   978   000FF9                     PC              equ	4089	;# 
   979   000FF9                     PCL             equ	4089	;# 
   980   000FFA                     PCLATH          equ	4090	;# 
   981   000FFB                     PCLATU          equ	4091	;# 
   982   000FFC                     STKPTR          equ	4092	;# 
   983   000FFD                     TOS             equ	4093	;# 
   984   000FFD                     TOSL            equ	4093	;# 
   985   000FFE                     TOSH            equ	4094	;# 
   986   000FFF                     TOSU            equ	4095	;# 
   987   000F62                     SPPDATA         equ	3938	;# 
   988   000F63                     SPPCFG          equ	3939	;# 
   989   000F64                     SPPEPS          equ	3940	;# 
   990   000F65                     SPPCON          equ	3941	;# 
   991   000F66                     UFRM            equ	3942	;# 
   992   000F66                     UFRML           equ	3942	;# 
   993   000F67                     UFRMH           equ	3943	;# 
   994   000F68                     UIR             equ	3944	;# 
   995   000F69                     UIE             equ	3945	;# 
   996   000F6A                     UEIR            equ	3946	;# 
   997   000F6B                     UEIE            equ	3947	;# 
   998   000F6C                     USTAT           equ	3948	;# 
   999   000F6D                     UCON            equ	3949	;# 
  1000   000F6E                     UADDR           equ	3950	;# 
  1001   000F6F                     UCFG            equ	3951	;# 
  1002   000F70                     UEP0            equ	3952	;# 
  1003   000F71                     UEP1            equ	3953	;# 
  1004   000F72                     UEP2            equ	3954	;# 
  1005   000F73                     UEP3            equ	3955	;# 
  1006   000F74                     UEP4            equ	3956	;# 
  1007   000F75                     UEP5            equ	3957	;# 
  1008   000F76                     UEP6            equ	3958	;# 
  1009   000F77                     UEP7            equ	3959	;# 
  1010   000F78                     UEP8            equ	3960	;# 
  1011   000F79                     UEP9            equ	3961	;# 
  1012   000F7A                     UEP10           equ	3962	;# 
  1013   000F7B                     UEP11           equ	3963	;# 
  1014   000F7C                     UEP12           equ	3964	;# 
  1015   000F7D                     UEP13           equ	3965	;# 
  1016   000F7E                     UEP14           equ	3966	;# 
  1017   000F7F                     UEP15           equ	3967	;# 
  1018   000F80                     PORTA           equ	3968	;# 
  1019   000F81                     PORTB           equ	3969	;# 
  1020   000F82                     PORTC           equ	3970	;# 
  1021   000F83                     PORTD           equ	3971	;# 
  1022   000F84                     PORTE           equ	3972	;# 
  1023   000F89                     LATA            equ	3977	;# 
  1024   000F8A                     LATB            equ	3978	;# 
  1025   000F8B                     LATC            equ	3979	;# 
  1026   000F8C                     LATD            equ	3980	;# 
  1027   000F8D                     LATE            equ	3981	;# 
  1028   000F92                     TRISA           equ	3986	;# 
  1029   000F92                     DDRA            equ	3986	;# 
  1030   000F93                     TRISB           equ	3987	;# 
  1031   000F93                     DDRB            equ	3987	;# 
  1032   000F94                     TRISC           equ	3988	;# 
  1033   000F94                     DDRC            equ	3988	;# 
  1034   000F95                     TRISD           equ	3989	;# 
  1035   000F95                     DDRD            equ	3989	;# 
  1036   000F96                     TRISE           equ	3990	;# 
  1037   000F96                     DDRE            equ	3990	;# 
  1038   000F9B                     OSCTUNE         equ	3995	;# 
  1039   000F9D                     PIE1            equ	3997	;# 
  1040   000F9E                     PIR1            equ	3998	;# 
  1041   000F9F                     IPR1            equ	3999	;# 
  1042   000FA0                     PIE2            equ	4000	;# 
  1043   000FA1                     PIR2            equ	4001	;# 
  1044   000FA2                     IPR2            equ	4002	;# 
  1045   000FA6                     EECON1          equ	4006	;# 
  1046   000FA7                     EECON2          equ	4007	;# 
  1047   000FA8                     EEDATA          equ	4008	;# 
  1048   000FA9                     EEADR           equ	4009	;# 
  1049   000FAB                     RCSTA           equ	4011	;# 
  1050   000FAB                     RCSTA1          equ	4011	;# 
  1051   000FAC                     TXSTA           equ	4012	;# 
  1052   000FAC                     TXSTA1          equ	4012	;# 
  1053   000FAD                     TXREG           equ	4013	;# 
  1054   000FAD                     TXREG1          equ	4013	;# 
  1055   000FAE                     RCREG           equ	4014	;# 
  1056   000FAE                     RCREG1          equ	4014	;# 
  1057   000FAF                     SPBRG           equ	4015	;# 
  1058   000FAF                     SPBRG1          equ	4015	;# 
  1059   000FB0                     SPBRGH          equ	4016	;# 
  1060   000FB1                     T3CON           equ	4017	;# 
  1061   000FB2                     TMR3            equ	4018	;# 
  1062   000FB2                     TMR3L           equ	4018	;# 
  1063   000FB3                     TMR3H           equ	4019	;# 
  1064   000FB4                     CMCON           equ	4020	;# 
  1065   000FB5                     CVRCON          equ	4021	;# 
  1066   000FB6                     ECCP1AS         equ	4022	;# 
  1067   000FB6                     CCP1AS          equ	4022	;# 
  1068   000FB7                     ECCP1DEL        equ	4023	;# 
  1069   000FB7                     CCP1DEL         equ	4023	;# 
  1070   000FB8                     BAUDCON         equ	4024	;# 
  1071   000FB8                     BAUDCTL         equ	4024	;# 
  1072   000FBA                     CCP2CON         equ	4026	;# 
  1073   000FBB                     CCPR2           equ	4027	;# 
  1074   000FBB                     CCPR2L          equ	4027	;# 
  1075   000FBC                     CCPR2H          equ	4028	;# 
  1076   000FBD                     CCP1CON         equ	4029	;# 
  1077   000FBD                     ECCP1CON        equ	4029	;# 
  1078   000FBE                     CCPR1           equ	4030	;# 
  1079   000FBE                     CCPR1L          equ	4030	;# 
  1080   000FBF                     CCPR1H          equ	4031	;# 
  1081   000FC0                     ADCON2          equ	4032	;# 
  1082   000FC1                     ADCON1          equ	4033	;# 
  1083   000FC2                     ADCON0          equ	4034	;# 
  1084   000FC3                     ADRES           equ	4035	;# 
  1085   000FC3                     ADRESL          equ	4035	;# 
  1086   000FC4                     ADRESH          equ	4036	;# 
  1087   000FC5                     SSPCON2         equ	4037	;# 
  1088   000FC6                     SSPCON1         equ	4038	;# 
  1089   000FC7                     SSPSTAT         equ	4039	;# 
  1090   000FC8                     SSPADD          equ	4040	;# 
  1091   000FC9                     SSPBUF          equ	4041	;# 
  1092   000FCA                     T2CON           equ	4042	;# 
  1093   000FCB                     PR2             equ	4043	;# 
  1094   000FCB                     MEMCON          equ	4043	;# 
  1095   000FCC                     TMR2            equ	4044	;# 
  1096   000FCD                     T1CON           equ	4045	;# 
  1097   000FCE                     TMR1            equ	4046	;# 
  1098   000FCE                     TMR1L           equ	4046	;# 
  1099   000FCF                     TMR1H           equ	4047	;# 
  1100   000FD0                     RCON            equ	4048	;# 
  1101   000FD1                     WDTCON          equ	4049	;# 
  1102   000FD2                     HLVDCON         equ	4050	;# 
  1103   000FD2                     LVDCON          equ	4050	;# 
  1104   000FD3                     OSCCON          equ	4051	;# 
  1105   000FD5                     T0CON           equ	4053	;# 
  1106   000FD6                     TMR0            equ	4054	;# 
  1107   000FD6                     TMR0L           equ	4054	;# 
  1108   000FD7                     TMR0H           equ	4055	;# 
  1109   000FD8                     STATUS          equ	4056	;# 
  1110   000FD9                     FSR2            equ	4057	;# 
  1111   000FD9                     FSR2L           equ	4057	;# 
  1112   000FDA                     FSR2H           equ	4058	;# 
  1113   000FDB                     PLUSW2          equ	4059	;# 
  1114   000FDC                     PREINC2         equ	4060	;# 
  1115   000FDD                     POSTDEC2        equ	4061	;# 
  1116   000FDE                     POSTINC2        equ	4062	;# 
  1117   000FDF                     INDF2           equ	4063	;# 
  1118   000FE0                     BSR             equ	4064	;# 
  1119   000FE1                     FSR1            equ	4065	;# 
  1120   000FE1                     FSR1L           equ	4065	;# 
  1121   000FE2                     FSR1H           equ	4066	;# 
  1122   000FE3                     PLUSW1          equ	4067	;# 
  1123   000FE4                     PREINC1         equ	4068	;# 
  1124   000FE5                     POSTDEC1        equ	4069	;# 
  1125   000FE6                     POSTINC1        equ	4070	;# 
  1126   000FE7                     INDF1           equ	4071	;# 
  1127   000FE8                     WREG            equ	4072	;# 
  1128   000FE9                     FSR0            equ	4073	;# 
  1129   000FE9                     FSR0L           equ	4073	;# 
  1130   000FEA                     FSR0H           equ	4074	;# 
  1131   000FEB                     PLUSW0          equ	4075	;# 
  1132   000FEC                     PREINC0         equ	4076	;# 
  1133   000FED                     POSTDEC0        equ	4077	;# 
  1134   000FEE                     POSTINC0        equ	4078	;# 
  1135   000FEF                     INDF0           equ	4079	;# 
  1136   000FF0                     INTCON3         equ	4080	;# 
  1137   000FF1                     INTCON2         equ	4081	;# 
  1138   000FF2                     INTCON          equ	4082	;# 
  1139   000FF3                     PROD            equ	4083	;# 
  1140   000FF3                     PRODL           equ	4083	;# 
  1141   000FF4                     PRODH           equ	4084	;# 
  1142   000FF5                     TABLAT          equ	4085	;# 
  1143   000FF6                     TBLPTR          equ	4086	;# 
  1144   000FF6                     TBLPTRL         equ	4086	;# 
  1145   000FF7                     TBLPTRH         equ	4087	;# 
  1146   000FF8                     TBLPTRU         equ	4088	;# 
  1147   000FF9                     PCLAT           equ	4089	;# 
  1148   000FF9                     PC              equ	4089	;# 
  1149   000FF9                     PCL             equ	4089	;# 
  1150   000FFA                     PCLATH          equ	4090	;# 
  1151   000FFB                     PCLATU          equ	4091	;# 
  1152   000FFC                     STKPTR          equ	4092	;# 
  1153   000FFD                     TOS             equ	4093	;# 
  1154   000FFD                     TOSL            equ	4093	;# 
  1155   000FFE                     TOSH            equ	4094	;# 
  1156   000FFF                     TOSU            equ	4095	;# 
  1157                           
  1158                           	psect	mediumconst
  1159   007E7E                     __pmediumconst:
  1160                           	callstack 0
  1161   007E7E  00                 	db	0
  1162   007E7F                     _font5x7:
  1163                           	callstack 0
  1164   007E7F  00                 	db	0
  1165   007E80  00                 	db	0
  1166   007E81  00                 	db	0
  1167   007E82  00                 	db	0
  1168   007E83  00                 	db	0
  1169   007E84  3E                 	db	62
  1170   007E85  51                 	db	81
  1171   007E86  49                 	db	73
  1172   007E87  45                 	db	69
  1173   007E88  3E                 	db	62
  1174   007E89  00                 	db	0
  1175   007E8A  42                 	db	66
  1176   007E8B  7F                 	db	127
  1177   007E8C  40                 	db	64
  1178   007E8D  00                 	db	0
  1179   007E8E  42                 	db	66
  1180   007E8F  61                 	db	97
  1181   007E90  51                 	db	81
  1182   007E91  49                 	db	73
  1183   007E92  46                 	db	70
  1184   007E93  21                 	db	33
  1185   007E94  41                 	db	65
  1186   007E95  45                 	db	69
  1187   007E96  4B                 	db	75
  1188   007E97  31                 	db	49
  1189   007E98  18                 	db	24
  1190   007E99  14                 	db	20
  1191   007E9A  12                 	db	18
  1192   007E9B  7F                 	db	127
  1193   007E9C  10                 	db	16
  1194   007E9D  27                 	db	39
  1195   007E9E  45                 	db	69
  1196   007E9F  45                 	db	69
  1197   007EA0  45                 	db	69
  1198   007EA1  39                 	db	57
  1199   007EA2  3C                 	db	60
  1200   007EA3  4A                 	db	74
  1201   007EA4  49                 	db	73
  1202   007EA5  49                 	db	73
  1203   007EA6  30                 	db	48
  1204   007EA7  01                 	db	1
  1205   007EA8  71                 	db	113
  1206   007EA9  09                 	db	9
  1207   007EAA  05                 	db	5
  1208   007EAB  03                 	db	3
  1209   007EAC  36                 	db	54
  1210   007EAD  49                 	db	73
  1211   007EAE  49                 	db	73
  1212   007EAF  49                 	db	73
  1213   007EB0  36                 	db	54
  1214   007EB1  06                 	db	6
  1215   007EB2  49                 	db	73
  1216   007EB3  49                 	db	73
  1217   007EB4  29                 	db	41
  1218   007EB5  1E                 	db	30
  1219   007EB6  7E                 	db	126
  1220   007EB7  11                 	db	17
  1221   007EB8  11                 	db	17
  1222   007EB9  11                 	db	17
  1223   007EBA  7E                 	db	126
  1224   007EBB  7F                 	db	127
  1225   007EBC  49                 	db	73
  1226   007EBD  49                 	db	73
  1227   007EBE  49                 	db	73
  1228   007EBF  36                 	db	54
  1229   007EC0  3E                 	db	62
  1230   007EC1  41                 	db	65
  1231   007EC2  41                 	db	65
  1232   007EC3  41                 	db	65
  1233   007EC4  22                 	db	34
  1234   007EC5  7F                 	db	127
  1235   007EC6  41                 	db	65
  1236   007EC7  41                 	db	65
  1237   007EC8  22                 	db	34
  1238   007EC9  1C                 	db	28
  1239   007ECA  7F                 	db	127
  1240   007ECB  49                 	db	73
  1241   007ECC  49                 	db	73
  1242   007ECD  49                 	db	73
  1243   007ECE  41                 	db	65
  1244   007ECF  7F                 	db	127
  1245   007ED0  09                 	db	9
  1246   007ED1  09                 	db	9
  1247   007ED2  09                 	db	9
  1248   007ED3  01                 	db	1
  1249   007ED4  3E                 	db	62
  1250   007ED5  41                 	db	65
  1251   007ED6  49                 	db	73
  1252   007ED7  49                 	db	73
  1253   007ED8  7A                 	db	122
  1254   007ED9  7F                 	db	127
  1255   007EDA  08                 	db	8
  1256   007EDB  08                 	db	8
  1257   007EDC  08                 	db	8
  1258   007EDD  7F                 	db	127
  1259   007EDE  00                 	db	0
  1260   007EDF  41                 	db	65
  1261   007EE0  7F                 	db	127
  1262   007EE1  41                 	db	65
  1263   007EE2  00                 	db	0
  1264   007EE3  20                 	db	32
  1265   007EE4  40                 	db	64
  1266   007EE5  41                 	db	65
  1267   007EE6  3F                 	db	63
  1268   007EE7  01                 	db	1
  1269   007EE8  7F                 	db	127
  1270   007EE9  08                 	db	8
  1271   007EEA  14                 	db	20
  1272   007EEB  22                 	db	34
  1273   007EEC  41                 	db	65
  1274   007EED  7F                 	db	127
  1275   007EEE  40                 	db	64
  1276   007EEF  40                 	db	64
  1277   007EF0  40                 	db	64
  1278   007EF1  40                 	db	64
  1279   007EF2  7F                 	db	127
  1280   007EF3  02                 	db	2
  1281   007EF4  0C                 	db	12
  1282   007EF5  02                 	db	2
  1283   007EF6  7F                 	db	127
  1284   007EF7  7F                 	db	127
  1285   007EF8  04                 	db	4
  1286   007EF9  08                 	db	8
  1287   007EFA  10                 	db	16
  1288   007EFB  7F                 	db	127
  1289   007EFC  3E                 	db	62
  1290   007EFD  41                 	db	65
  1291   007EFE  41                 	db	65
  1292   007EFF  41                 	db	65
  1293   007F00  3E                 	db	62
  1294   007F01  7F                 	db	127
  1295   007F02  09                 	db	9
  1296   007F03  09                 	db	9
  1297   007F04  09                 	db	9
  1298   007F05  06                 	db	6
  1299   007F06  3E                 	db	62
  1300   007F07  41                 	db	65
  1301   007F08  51                 	db	81
  1302   007F09  21                 	db	33
  1303   007F0A  5E                 	db	94
  1304   007F0B  7F                 	db	127
  1305   007F0C  09                 	db	9
  1306   007F0D  19                 	db	25
  1307   007F0E  29                 	db	41
  1308   007F0F  46                 	db	70
  1309   007F10  46                 	db	70
  1310   007F11  49                 	db	73
  1311   007F12  49                 	db	73
  1312   007F13  49                 	db	73
  1313   007F14  31                 	db	49
  1314   007F15  01                 	db	1
  1315   007F16  01                 	db	1
  1316   007F17  7F                 	db	127
  1317   007F18  01                 	db	1
  1318   007F19  01                 	db	1
  1319   007F1A  3F                 	db	63
  1320   007F1B  40                 	db	64
  1321   007F1C  40                 	db	64
  1322   007F1D  40                 	db	64
  1323   007F1E  3F                 	db	63
  1324   007F1F  1F                 	db	31
  1325   007F20  20                 	db	32
  1326   007F21  40                 	db	64
  1327   007F22  20                 	db	32
  1328   007F23  1F                 	db	31
  1329   007F24  3F                 	db	63
  1330   007F25  40                 	db	64
  1331   007F26  38                 	db	56
  1332   007F27  40                 	db	64
  1333   007F28  3F                 	db	63
  1334   007F29  63                 	db	99
  1335   007F2A  14                 	db	20
  1336   007F2B  08                 	db	8
  1337   007F2C  14                 	db	20
  1338   007F2D  63                 	db	99
  1339   007F2E  07                 	db	7
  1340   007F2F  08                 	db	8
  1341   007F30  70                 	db	112
  1342   007F31  08                 	db	8
  1343   007F32  07                 	db	7
  1344   007F33  61                 	db	97
  1345   007F34  51                 	db	81
  1346   007F35  49                 	db	73
  1347   007F36  45                 	db	69
  1348   007F37  43                 	db	67
  1349   007F38  00                 	db	0
  1350   007F39  00                 	db	0
  1351   007F3A  5F                 	db	95
  1352   007F3B  00                 	db	0
  1353   007F3C  00                 	db	0
  1354   007F3D  00                 	db	0
  1355   007F3E  06                 	db	6
  1356   007F3F  09                 	db	9
  1357   007F40  09                 	db	9
  1358   007F41  06                 	db	6
  1359   007F42  00                 	db	0
  1360   007F43  00                 	db	0
  1361   007F44  08                 	db	8
  1362   007F45  00                 	db	0
  1363   007F46  00                 	db	0
  1364   007F47                     __end_of_font5x7:
  1365                           	callstack 0
  1366   000F83                     _PORTDbits      set	3971
  1367   000F95                     _TRISDbits      set	3989
  1368   000F8C                     _LATDbits       set	3980
  1369   000FC1                     _ADCON1         set	4033
  1370   000FB4                     _CMCON          set	4020
  1371   000F8A                     _LATB           set	3978
  1372   000F93                     _TRISB          set	3987
  1373   000F8C                     _LATD           set	3980
  1374   000F95                     _TRISD          set	3989
  1375   000FD3                     _OSCCONbits     set	4051
  1376   000FD3                     _OSCCON         set	4051
  1377   000F81                     _PORTBbits      set	3969
  1378   000FF1                     _INTCON2bits    set	4081
  1379   000F8A                     _LATBbits       set	3978
  1380   000F93                     _TRISBbits      set	3987
  1381   007F47                     STR_6:
  1382   007F47  50                 	db	80	;'P'
  1383   007F48  45                 	db	69	;'E'
  1384   007F49  52                 	db	82	;'R'
  1385   007F4A  46                 	db	70	;'F'
  1386   007F4B  49                 	db	73	;'I'
  1387   007F4C  4C                 	db	76	;'L'
  1388   007F4D  3A                 	db	58	;':'
  1389   007F4E  20                 	db	32
  1390   007F4F  44                 	db	68	;'D'
  1391   007F50  45                 	db	69	;'E'
  1392   007F51  50                 	db	80	;'P'
  1393   007F52  4F                 	db	79	;'O'
  1394   007F53  52                 	db	82	;'R'
  1395   007F54  20                 	db	32
  1396   007F55  20                 	db	32
  1397   007F56  00                 	db	0
  1398   007F57                     STR_5:
  1399   007F57  50                 	db	80	;'P'
  1400   007F58  45                 	db	69	;'E'
  1401   007F59  52                 	db	82	;'R'
  1402   007F5A  46                 	db	70	;'F'
  1403   007F5B  49                 	db	73	;'I'
  1404   007F5C  4C                 	db	76	;'L'
  1405   007F5D  3A                 	db	58	;':'
  1406   007F5E  20                 	db	32
  1407   007F5F  4E                 	db	78	;'N'
  1408   007F60  4F                 	db	79	;'O'
  1409   007F61  52                 	db	82	;'R'
  1410   007F62  4D                 	db	77	;'M'
  1411   007F63  41                 	db	65	;'A'
  1412   007F64  4C                 	db	76	;'L'
  1413   007F65  20                 	db	32
  1414   007F66  00                 	db	0
  1415   007F67                     STR_1:
  1416   007F67  53                 	db	83	;'S'
  1417   007F68  49                 	db	73	;'I'
  1418   007F69  47                 	db	71	;'G'
  1419   007F6A  4E                 	db	78	;'N'
  1420   007F6B  4F                 	db	79	;'O'
  1421   007F6C  53                 	db	83	;'S'
  1422   007F6D  20                 	db	32
  1423   007F6E  56                 	db	86	;'V'
  1424   007F6F  49                 	db	73	;'I'
  1425   007F70  54                 	db	84	;'T'
  1426   007F71  41                 	db	65	;'A'
  1427   007F72  4C                 	db	76	;'L'
  1428   007F73  45                 	db	69	;'E'
  1429   007F74  53                 	db	83	;'S'
  1430   007F75  00                 	db	0
  1431   007F76                     STR_10:
  1432   007F76  41                 	db	65	;'A'
  1433   007F77  4C                 	db	76	;'L'
  1434   007F78  41                 	db	65	;'A'
  1435   007F79  52                 	db	82	;'R'
  1436   007F7A  4D                 	db	77	;'M'
  1437   007F7B  41                 	db	65	;'A'
  1438   007F7C  20                 	db	32
  1439   007F7D  41                 	db	65	;'A'
  1440   007F7E  43                 	db	67	;'C'
  1441   007F7F  54                 	db	84	;'T'
  1442   007F80  49                 	db	73	;'I'
  1443   007F81  56                 	db	86	;'V'
  1444   007F82  41                 	db	65	;'A'
  1445   007F83  00                 	db	0
  1446   007F84                     STR_14:
  1447   007F84  42                 	db	66	;'B'
  1448   007F85  54                 	db	84	;'T'
  1449   007F86  4E                 	db	78	;'N'
  1450   007F87  3A                 	db	58	;':'
  1451   007F88  20                 	db	32
  1452   007F89  52                 	db	82	;'R'
  1453   007F8A  45                 	db	69	;'E'
  1454   007F8B  41                 	db	65	;'A'
  1455   007F8C  4E                 	db	78	;'N'
  1456   007F8D  55                 	db	85	;'U'
  1457   007F8E  44                 	db	68	;'D'
  1458   007F8F  41                 	db	65	;'A'
  1459   007F90  52                 	db	82	;'R'
  1460   007F91  00                 	db	0
  1461   007F92                     STR_4:
  1462   007F92  49                 	db	73	;'I'
  1463   007F93  4E                 	db	78	;'N'
  1464   007F94  49                 	db	73	;'I'
  1465   007F95  43                 	db	67	;'C'
  1466   007F96  49                 	db	73	;'I'
  1467   007F97  41                 	db	65	;'A'
  1468   007F98  4E                 	db	78	;'N'
  1469   007F99  44                 	db	68	;'D'
  1470   007F9A  4F                 	db	79	;'O'
  1471   007F9B  2E                 	db	46
  1472   007F9C  2E                 	db	46
  1473   007F9D  2E                 	db	46
  1474   007F9E  00                 	db	0
  1475   007F9F                     STR_2:
  1476   007F9F  50                 	db	80	;'P'
  1477   007FA0  49                 	db	73	;'I'
  1478   007FA1  43                 	db	67	;'C'
  1479   007FA2  31                 	db	49	;'1'
  1480   007FA3  38                 	db	56	;'8'
  1481   007FA4  46                 	db	70	;'F'
  1482   007FA5  34                 	db	52	;'4'
  1483   007FA6  35                 	db	53	;'5'
  1484   007FA7  35                 	db	53	;'5'
  1485   007FA8  30                 	db	48	;'0'
  1486   007FA9  00                 	db	0
  1487   007FAA                     STR_3:
  1488   007FAA  49                 	db	73	;'I'
  1489   007FAB  32                 	db	50	;'2'
  1490   007FAC  43                 	db	67	;'C'
  1491   007FAD  20                 	db	32
  1492   007FAE  59                 	db	89	;'Y'
  1493   007FAF  20                 	db	32
  1494   007FB0  55                 	db	85	;'U'
  1495   007FB1  41                 	db	65	;'A'
  1496   007FB2  52                 	db	82	;'R'
  1497   007FB3  54                 	db	84	;'T'
  1498   007FB4  00                 	db	0
  1499   007FB5                     STR_17:
  1500   007FB5  44                 	db	68	;'D'
  1501   007FB6  53                 	db	83	;'S'
  1502   007FB7  31                 	db	49	;'1'
  1503   007FB8  38                 	db	56	;'8'
  1504   007FB9  20                 	db	32
  1505   007FBA  45                 	db	69	;'E'
  1506   007FBB  52                 	db	82	;'R'
  1507   007FBC  52                 	db	82	;'R'
  1508   007FBD  00                 	db	0
  1509   007FBE                     STR_13:
  1510   007FBE  45                 	db	69	;'E'
  1511   007FBF  4E                 	db	78	;'N'
  1512   007FC0  20                 	db	32
  1513   007FC1  50                 	db	80	;'P'
  1514   007FC2  41                 	db	65	;'A'
  1515   007FC3  55                 	db	85	;'U'
  1516   007FC4  53                 	db	83	;'S'
  1517   007FC5  41                 	db	65	;'A'
  1518   007FC6  00                 	db	0
  1519   007FC7                     STR_16:
  1520   007FC7  52                 	db	82	;'R'
  1521   007FC8  45                 	db	69	;'E'
  1522   007FC9  49                 	db	73	;'I'
  1523   007FCA  4E                 	db	78	;'N'
  1524   007FCB  49                 	db	73	;'I'
  1525   007FCC  43                 	db	67	;'C'
  1526   007FCD  49                 	db	73	;'I'
  1527   007FCE  45                 	db	69	;'E'
  1528   007FCF  00                 	db	0
  1529   007FD0                     STR_18:
  1530   007FD0  4D                 	db	77	;'M'
  1531   007FD1  41                 	db	65	;'A'
  1532   007FD2  58                 	db	88	;'X'
  1533   007FD3  20                 	db	32
  1534   007FD4  45                 	db	69	;'E'
  1535   007FD5  52                 	db	82	;'R'
  1536   007FD6  52                 	db	82	;'R'
  1537   007FD7  00                 	db	0
  1538   007FD8                     STR_12:
  1539   007FD8  53                 	db	83	;'S'
  1540   007FD9  49                 	db	73	;'I'
  1541   007FDA  53                 	db	83	;'S'
  1542   007FDB  54                 	db	84	;'T'
  1543   007FDC  45                 	db	69	;'E'
  1544   007FDD  4D                 	db	77	;'M'
  1545   007FDE  41                 	db	65	;'A'
  1546   007FDF  00                 	db	0
  1547   007FE0                     STR_9:
  1548   007FE0  42                 	db	66	;'B'
  1549   007FE1  50                 	db	80	;'P'
  1550   007FE2  4D                 	db	77	;'M'
  1551   007FE3  3A                 	db	58	;':'
  1552   007FE4  20                 	db	32
  1553   007FE5  20                 	db	32
  1554   007FE6  00                 	db	0
  1555   007FE7                     STR_7:
  1556   007FE7  54                 	db	84	;'T'
  1557   007FE8  45                 	db	69	;'E'
  1558   007FE9  4D                 	db	77	;'M'
  1559   007FEA  50                 	db	80	;'P'
  1560   007FEB  3A                 	db	58	;':'
  1561   007FEC  20                 	db	32
  1562   007FED  00                 	db	0
  1563   007FEE                     STR_11:
  1564   007FEE  4E                 	db	78	;'N'
  1565   007FEF  4F                 	db	79	;'O'
  1566   007FF0  52                 	db	82	;'R'
  1567   007FF1  4D                 	db	77	;'M'
  1568   007FF2  41                 	db	65	;'A'
  1569   007FF3  4C                 	db	76	;'L'
  1570   007FF4  00                 	db	0
  1571   007FF5                     STR_15:
  1572   007FF5  45                 	db	69	;'E'
  1573   007FF6  52                 	db	82	;'R'
  1574   007FF7  52                 	db	82	;'R'
  1575   007FF8  4F                 	db	79	;'O'
  1576   007FF9  52                 	db	82	;'R'
  1577   007FFA  00                 	db	0
  1578   007F9D                     STR_8           equ	STR_4+11
  1579   007FFB  00                 	db	0	; dummy byte at the end
  1580   007E7E                     __smallconst    set	__pmediumconst
  1581   007E7E                     __mediumconst   set	__pmediumconst
  1582   000002                     __activetblptr  equ	2
  1583                           
  1584                           ; #config settings
  1585                           
  1586                           	psect	cinit
  1587   00590A                     __pcinit:
  1588                           	callstack 0
  1589   00590A                     start_initialization:
  1590                           	callstack 0
  1591   00590A                     __initialization:
  1592                           	callstack 0
  1593                           
  1594                           ; Clear objects allocated to BANK0 (68 bytes)
  1595   00590A  EE00  F060         	lfsr	0,__pbssBANK0
  1596   00590E  0E44               	movlw	68
  1597   005910                     clear_0:
  1598   005910  6AEE               	clrf	postinc0,c
  1599   005912  06E8               	decf	wreg,f,c
  1600   005914  E1FD               	bnz	clear_0
  1601                           
  1602                           ; Clear objects allocated to COMRAM (10 bytes)
  1603   005916  EE00  F054         	lfsr	0,__pbssCOMRAM
  1604   00591A  0E0A               	movlw	10
  1605   00591C                     clear_1:
  1606   00591C  6AEE               	clrf	postinc0,c
  1607   00591E  06E8               	decf	wreg,f,c
  1608   005920  E1FD               	bnz	clear_1
  1609   005922                     end_of_initialization:
  1610                           	callstack 0
  1611   005922                     __end_of__initialization:
  1612                           	callstack 0
  1613   005922  0E00               	movlw	low (__Lmediumconst shr (0+16))
  1614   005924  6EF8               	movwf	tblptru,c
  1615   005926  0100               	movlb	0
  1616   005928  EFC9  F03A         	goto	_main	;jump to C main() function
  1617                           
  1618                           	psect	bssCOMRAM
  1619   000054                     __pbssCOMRAM:
  1620                           	callstack 0
  1621   000054                     _ir_promedio_ant:
  1622                           	callstack 0
  1623   000054                     	ds	4
  1624   000058                     _picos_contados:
  1625                           	callstack 0
  1626   000058                     	ds	1
  1627   000059                     _en_pico:
  1628                           	callstack 0
  1629   000059                     	ds	1
  1630   00005A                     _bpm_actual:
  1631                           	callstack 0
  1632   00005A                     	ds	1
  1633   00005B                     _buf_idx:
  1634                           	callstack 0
  1635   00005B                     	ds	1
  1636   00005C                     _muestras_pico:
  1637                           	callstack 0
  1638   00005C                     	ds	2
  1639                           
  1640                           	psect	bssBANK0
  1641   000060                     __pbssBANK0:
  1642                           	callstack 0
  1643   000060                     _ir_buffer:
  1644                           	callstack 0
  1645   000060                     	ds	64
  1646   0000A0                     _CAR_ultimo_delta:
  1647                           	callstack 0
  1648   0000A0                     	ds	4
  1649                           
  1650                           	psect	cstackCOMRAM
  1651   000001                     __pcstackCOMRAM:
  1652                           	callstack 0
  1653   000001                     ?___lwdiv:
  1654                           	callstack 0
  1655   000001                     ?___lwmod:
  1656                           	callstack 0
  1657   000001                     ?___fladd:
  1658                           	callstack 0
  1659   000001                     ?_calcular_promedio:
  1660                           	callstack 0
  1661   000001                     ?___lldiv:
  1662                           	callstack 0
  1663   000001                     ?___xxtofl:
  1664                           	callstack 0
  1665   000001                     DS18B20_Reset@presence:
  1666                           	callstack 0
  1667   000001                     OW_WriteBit@bit:
  1668                           	callstack 0
  1669   000001                     OW_ReadBit@bit:
  1670                           	callstack 0
  1671   000001                     ___lwdiv@dividend:
  1672                           	callstack 0
  1673   000001                     ___lwmod@dividend:
  1674                           	callstack 0
  1675   000001                     CAR_HayDedo@ir:
  1676                           	callstack 0
  1677   000001                     ___lldiv@dividend:
  1678                           	callstack 0
  1679   000001                     ___flge@ff1:
  1680                           	callstack 0
  1681   000001                     ___fladd@b:
  1682                           	callstack 0
  1683   000001                     ___xxtofl@val:
  1684                           	callstack 0
  1685   000001                     ??_DS18B20_WaitConversion:
  1686   000001                     ??_I2C_Write:
  1687   000001                     ??_I2C_Read:
  1688   000001                     ??_setup:
  1689   000001                     
  1690                           ; 1 bytes @ 0x0
  1691   000001                     	ds	1
  1692   000002                     I2C_Write@data:
  1693                           	callstack 0
  1694   000002                     I2C_Read@ack:
  1695                           	callstack 0
  1696   000002                     DS18B20_WriteByte@byte:
  1697                           	callstack 0
  1698   000002                     DS18B20_ReadByte@data:
  1699                           	callstack 0
  1700   000002                     
  1701                           ; 1 bytes @ 0x1
  1702   000002                     	ds	1
  1703   000003                     I2C_Write@i:
  1704                           	callstack 0
  1705   000003                     I2C_Read@data:
  1706                           	callstack 0
  1707   000003                     DS18B20_WriteByte@i:
  1708                           	callstack 0
  1709   000003                     DS18B20_ReadByte@i:
  1710                           	callstack 0
  1711   000003                     ___lwdiv@divisor:
  1712                           	callstack 0
  1713   000003                     ___lwmod@divisor:
  1714                           	callstack 0
  1715                           
  1716                           ; 2 bytes @ 0x2
  1717   000003                     	ds	1
  1718   000004                     I2C_Read@i:
  1719                           	callstack 0
  1720   000004                     OLED_Command@cmd:
  1721                           	callstack 0
  1722   000004                     MAX30102_WriteRegister@data:
  1723                           	callstack 0
  1724   000004                     ??_OLED_WriteChar:
  1725                           
  1726                           ; 1 bytes @ 0x3
  1727   000004                     	ds	1
  1728   000005                     OLED_Clear@i:
  1729                           	callstack 0
  1730   000005                     OLED_ClearLine@linea:
  1731                           	callstack 0
  1732   000005                     OLED_SetCursor@page:
  1733                           	callstack 0
  1734   000005                     MAX30102_WriteRegister@reg:
  1735                           	callstack 0
  1736   000005                     MAX30102_ReadRegister@data:
  1737                           	callstack 0
  1738   000005                     ___lwmod@counter:
  1739                           	callstack 0
  1740   000005                     ___lwdiv@quotient:
  1741                           	callstack 0
  1742   000005                     ___lldiv@divisor:
  1743                           	callstack 0
  1744   000005                     ___flge@ff2:
  1745                           	callstack 0
  1746   000005                     ___fladd@a:
  1747                           	callstack 0
  1748   000005                     ??_OLED_Init:
  1749   000005                     ??_calcular_promedio:
  1750   000005                     ??___xxtofl:
  1751                           
  1752                           ; 1 bytes @ 0x4
  1753   000005                     	ds	1
  1754   000006                     OLED_Clear@page:
  1755                           	callstack 0
  1756   000006                     OLED_ClearLine@i:
  1757                           	callstack 0
  1758   000006                     OLED_SetCursor@col:
  1759                           	callstack 0
  1760   000006                     MAX30102_ReadRegister@reg:
  1761                           	callstack 0
  1762   000006                     
  1763                           ; 1 bytes @ 0x5
  1764   000006                     	ds	1
  1765   000007                     MAX30102_Check@part_id:
  1766                           	callstack 0
  1767   000007                     MAX30102_SamplesAvailable@write_ptr:
  1768                           	callstack 0
  1769   000007                     ___lwdiv@counter:
  1770                           	callstack 0
  1771   000007                     
  1772                           ; 1 bytes @ 0x6
  1773   000007                     	ds	1
  1774   000008                     MAX30102_SamplesAvailable@read_ptr:
  1775                           	callstack 0
  1776   000008                     uint_to_str@num:
  1777                           	callstack 0
  1778   000008                     OLED_WriteChar@index:
  1779                           	callstack 0
  1780   000008                     ??_MAX30102_Init:
  1781                           
  1782                           ; 1 bytes @ 0x7
  1783   000008                     	ds	1
  1784   000009                     MAX30102_Init@status:
  1785                           	callstack 0
  1786   000009                     MAX30102_ReadSample@red:
  1787                           	callstack 0
  1788   000009                     ___xxtofl@sign:
  1789                           	callstack 0
  1790   000009                     calcular_promedio@suma:
  1791                           	callstack 0
  1792   000009                     ___lldiv@quotient:
  1793                           	callstack 0
  1794   000009                     ??___fladd:
  1795   000009                     ??___flge:
  1796                           
  1797                           ; 1 bytes @ 0x8
  1798   000009                     	ds	1
  1799   00000A                     uint_to_str@buf:
  1800                           	callstack 0
  1801   00000A                     OLED_WriteChar@i:
  1802                           	callstack 0
  1803   00000A                     MAX30102_ReadSample@ir:
  1804                           	callstack 0
  1805   00000A                     ___xxtofl@exp:
  1806                           	callstack 0
  1807                           
  1808                           ; 1 bytes @ 0x9
  1809   00000A                     	ds	1
  1810   00000B                     OLED_WriteChar@c:
  1811                           	callstack 0
  1812   00000B                     ___xxtofl@arg:
  1813                           	callstack 0
  1814   00000B                     uint_to_str@tmp:
  1815                           	callstack 0
  1816   00000B                     ??_MAX30102_ReadSample:
  1817   00000B                     
  1818                           ; 1 bytes @ 0xA
  1819   00000B                     	ds	1
  1820   00000C                     OLED_WriteString@str:
  1821                           	callstack 0
  1822                           
  1823                           ; 2 bytes @ 0xB
  1824   00000C                     	ds	1
  1825   00000D                     calcular_promedio@i:
  1826                           	callstack 0
  1827   00000D                     ___lldiv@counter:
  1828                           	callstack 0
  1829   00000D                     ___fladd@signs:
  1830                           	callstack 0
  1831                           
  1832                           ; 1 bytes @ 0xC
  1833   00000D                     	ds	1
  1834   00000E                     ___fladd@aexp:
  1835                           	callstack 0
  1836   00000E                     OLED_Error@msg:
  1837                           	callstack 0
  1838   00000E                     CAR_ProcesarMuestra@red:
  1839                           	callstack 0
  1840   00000E                     
  1841                           ; 1 bytes @ 0xD
  1842   00000E                     	ds	1
  1843   00000F                     ?___fldiv:
  1844                           	callstack 0
  1845   00000F                     ___fladd@bexp:
  1846                           	callstack 0
  1847   00000F                     ___fldiv@b:
  1848                           	callstack 0
  1849                           
  1850                           ; 4 bytes @ 0xE
  1851   00000F                     	ds	1
  1852   000010                     ___fladd@grs:
  1853                           	callstack 0
  1854   000010                     
  1855                           ; 1 bytes @ 0xF
  1856   000010                     	ds	1
  1857   000011                     ?___flsub:
  1858                           	callstack 0
  1859   000011                     uint_to_str@j:
  1860                           	callstack 0
  1861   000011                     ___flsub@b:
  1862                           	callstack 0
  1863                           
  1864                           ; 4 bytes @ 0x10
  1865   000011                     	ds	1
  1866   000012                     uint_to_str@i:
  1867                           	callstack 0
  1868   000012                     CAR_ProcesarMuestra@ir:
  1869                           	callstack 0
  1870                           
  1871                           ; 4 bytes @ 0x11
  1872   000012                     	ds	1
  1873   000013                     OLED_Vitals@temp_dec:
  1874                           	callstack 0
  1875   000013                     ___fldiv@a:
  1876                           	callstack 0
  1877                           
  1878                           ; 4 bytes @ 0x12
  1879   000013                     	ds	1
  1880   000014                     OLED_Vitals@bpm:
  1881                           	callstack 0
  1882                           
  1883                           ; 1 bytes @ 0x13
  1884   000014                     	ds	1
  1885   000015                     OLED_Vitals@alarma:
  1886                           	callstack 0
  1887   000015                     ___flsub@a:
  1888                           	callstack 0
  1889                           
  1890                           ; 4 bytes @ 0x14
  1891   000015                     	ds	1
  1892   000016                     OLED_Vitals@perfil:
  1893                           	callstack 0
  1894   000016                     _CAR_ProcesarMuestra$542:
  1895                           	callstack 0
  1896   000016                     
  1897                           ; 1 bytes @ 0x15
  1898   000016                     	ds	1
  1899   000017                     OLED_Vitals@buf:
  1900                           	callstack 0
  1901   000017                     ??___fldiv:
  1902   000017                     
  1903                           ; 1 bytes @ 0x16
  1904   000017                     	ds	1
  1905   000018                     CAR_ProcesarMuestra@promedio:
  1906                           	callstack 0
  1907                           
  1908                           ; 4 bytes @ 0x17
  1909   000018                     	ds	1
  1910   000019                     ?___flmul:
  1911                           	callstack 0
  1912   000019                     ___flmul@b:
  1913                           	callstack 0
  1914   000019                     
  1915                           ; 1 bytes @ 0x18
  1916   000019                     	ds	2
  1917   00001B                     ___fldiv@rem:
  1918                           	callstack 0
  1919                           
  1920                           ; 4 bytes @ 0x1A
  1921   00001B                     	ds	1
  1922   00001C                     CAR_ProcesarMuestra@delta:
  1923                           	callstack 0
  1924   00001C                     MAX30102_ReadSample@data:
  1925                           	callstack 0
  1926                           
  1927                           ; 6 bytes @ 0x1B
  1928   00001C                     	ds	1
  1929   00001D                     OLED_Vitals@temp_int:
  1930                           	callstack 0
  1931   00001D                     ___flmul@a:
  1932                           	callstack 0
  1933                           
  1934                           ; 4 bytes @ 0x1C
  1935   00001D                     	ds	2
  1936   00001F                     ___fldiv@sign:
  1937                           	callstack 0
  1938                           
  1939                           ; 1 bytes @ 0x1E
  1940   00001F                     	ds	1
  1941   000020                     CAR_ProcesarMuestra@bpm_calc:
  1942                           	callstack 0
  1943   000020                     ___fldiv@new_exp:
  1944                           	callstack 0
  1945                           
  1946                           ; 2 bytes @ 0x1F
  1947   000020                     	ds	1
  1948   000021                     ??___flmul:
  1949                           
  1950                           ; 1 bytes @ 0x20
  1951   000021                     	ds	1
  1952   000022                     CAR_ProcesarMuestra@i:
  1953                           	callstack 0
  1954   000022                     ___fldiv@grs:
  1955                           	callstack 0
  1956                           
  1957                           ; 4 bytes @ 0x21
  1958   000022                     	ds	3
  1959   000025                     ___flmul@sign:
  1960                           	callstack 0
  1961                           
  1962                           ; 1 bytes @ 0x24
  1963   000025                     	ds	1
  1964   000026                     ___fldiv@bexp:
  1965                           	callstack 0
  1966   000026                     ___flmul@grs:
  1967                           	callstack 0
  1968                           
  1969                           ; 4 bytes @ 0x25
  1970   000026                     	ds	1
  1971   000027                     ___fldiv@aexp:
  1972                           	callstack 0
  1973                           
  1974                           ; 1 bytes @ 0x26
  1975   000027                     	ds	1
  1976   000028                     ?_DS18B20_ReadTemp:
  1977                           	callstack 0
  1978                           
  1979                           ; 4 bytes @ 0x27
  1980   000028                     	ds	2
  1981   00002A                     ___flmul@aexp:
  1982                           	callstack 0
  1983                           
  1984                           ; 1 bytes @ 0x29
  1985   00002A                     	ds	1
  1986   00002B                     ___flmul@bexp:
  1987                           	callstack 0
  1988                           
  1989                           ; 1 bytes @ 0x2A
  1990   00002B                     	ds	1
  1991   00002C                     ___flmul@prod:
  1992                           	callstack 0
  1993   00002C                     ??_DS18B20_ReadTemp:
  1994                           
  1995                           ; 1 bytes @ 0x2B
  1996   00002C                     	ds	2
  1997   00002E                     DS18B20_ReadTemp@raw:
  1998                           	callstack 0
  1999                           
  2000                           ; 2 bytes @ 0x2D
  2001   00002E                     	ds	2
  2002   000030                     DS18B20_ReadTemp@lsb:
  2003                           	callstack 0
  2004   000030                     ___flmul@temp:
  2005                           	callstack 0
  2006                           
  2007                           ; 2 bytes @ 0x2F
  2008   000030                     	ds	1
  2009   000031                     DS18B20_ReadTemp@msb:
  2010                           	callstack 0
  2011                           
  2012                           ; 1 bytes @ 0x30
  2013   000031                     	ds	1
  2014   000032                     ?___fltol:
  2015                           	callstack 0
  2016   000032                     ___fltol@f1:
  2017                           	callstack 0
  2018                           
  2019                           ; 4 bytes @ 0x31
  2020   000032                     	ds	4
  2021   000036                     ??___fltol:
  2022                           
  2023                           ; 1 bytes @ 0x35
  2024   000036                     	ds	4
  2025   00003A                     ___fltol@sign1:
  2026                           	callstack 0
  2027                           
  2028                           ; 1 bytes @ 0x39
  2029   00003A                     	ds	1
  2030   00003B                     ___fltol@exp1:
  2031                           	callstack 0
  2032                           
  2033                           ; 1 bytes @ 0x3A
  2034   00003B                     	ds	1
  2035   00003C                     ??_main:
  2036                           
  2037                           ; 1 bytes @ 0x3B
  2038   00003C                     	ds	2
  2039   00003E                     main@bpm:
  2040                           	callstack 0
  2041                           
  2042                           ; 1 bytes @ 0x3D
  2043   00003E                     	ds	1
  2044   00003F                     main@hay_dedo:
  2045                           	callstack 0
  2046                           
  2047                           ; 1 bytes @ 0x3E
  2048   00003F                     	ds	1
  2049   000040                     _main$488:
  2050                           	callstack 0
  2051                           
  2052                           ; 1 bytes @ 0x3F
  2053   000040                     	ds	1
  2054   000041                     main@hay_temp:
  2055                           	callstack 0
  2056                           
  2057                           ; 1 bytes @ 0x40
  2058   000041                     	ds	1
  2059   000042                     main@ciclo_temp:
  2060                           	callstack 0
  2061                           
  2062                           ; 1 bytes @ 0x41
  2063   000042                     	ds	1
  2064   000043                     main@temp_dec:
  2065                           	callstack 0
  2066                           
  2067                           ; 1 bytes @ 0x42
  2068   000043                     	ds	1
  2069   000044                     main@red:
  2070                           	callstack 0
  2071                           
  2072                           ; 4 bytes @ 0x43
  2073   000044                     	ds	4
  2074   000048                     main@activo:
  2075                           	callstack 0
  2076                           
  2077                           ; 1 bytes @ 0x47
  2078   000048                     	ds	1
  2079   000049                     main@alarma:
  2080                           	callstack 0
  2081                           
  2082                           ; 1 bytes @ 0x48
  2083   000049                     	ds	1
  2084   00004A                     main@i:
  2085                           	callstack 0
  2086                           
  2087                           ; 1 bytes @ 0x49
  2088   00004A                     	ds	1
  2089   00004B                     main@ir:
  2090                           	callstack 0
  2091                           
  2092                           ; 4 bytes @ 0x4A
  2093   00004B                     	ds	4
  2094   00004F                     main@temp_int:
  2095                           	callstack 0
  2096                           
  2097                           ; 1 bytes @ 0x4E
  2098   00004F                     	ds	1
  2099   000050                     main@temp_f:
  2100                           	callstack 0
  2101                           
  2102                           ; 4 bytes @ 0x4F
  2103   000050                     	ds	4
  2104                           
  2105 ;;
  2106 ;;Main: autosize = 0, tempsize = 2, incstack = 0, save=0
  2107 ;;
  2108 ;; *************** function _main *****************
  2109 ;; Defined at:
  2110 ;;		line 35 in file "main.c"
  2111 ;; Parameters:    Size  Location     Type
  2112 ;;		None
  2113 ;; Auto vars:     Size  Location     Type
  2114 ;;  temp_f          4   79[COMRAM] float 
  2115 ;;  ir              4   74[COMRAM] unsigned long 
  2116 ;;  red             4   67[COMRAM] unsigned long 
  2117 ;;  temp_int        1   78[COMRAM] unsigned char 
  2118 ;;  i               1   73[COMRAM] unsigned char 
  2119 ;;  alarma          1   72[COMRAM] unsigned char 
  2120 ;;  activo          1   71[COMRAM] unsigned char 
  2121 ;;  temp_dec        1   66[COMRAM] unsigned char 
  2122 ;;  ciclo_temp      1   65[COMRAM] unsigned char 
  2123 ;;  hay_temp        1   64[COMRAM] unsigned char 
  2124 ;;  hay_dedo        1   62[COMRAM] unsigned char 
  2125 ;;  bpm             1   61[COMRAM] unsigned char 
  2126 ;; Return value:  Size  Location     Type
  2127 ;;                  1    wreg      void 
  2128 ;; Registers used:
  2129 ;;		wreg, fsr1l, fsr1h, fsr2l, fsr2h, status,2, status,0, tblptrl, tblptrh, tblptru, prodl, prodh, cstack
  2130 ;; Tracked objects:
  2131 ;;		On entry : 0/0
  2132 ;;		On exit  : 0/0
  2133 ;;		Unchanged: 0/0
  2134 ;; Data sizes:     COMRAM   BANK0   BANK1   BANK2   BANK3   BANK4   BANK5   BANK6   BANK7
  2135 ;;      Params:         0       0       0       0       0       0       0       0       0
  2136 ;;      Locals:        22       0       0       0       0       0       0       0       0
  2137 ;;      Temps:          2       0       0       0       0       0       0       0       0
  2138 ;;      Totals:        24       0       0       0       0       0       0       0       0
  2139 ;;Total ram usage:       24 bytes
  2140 ;; Hardware stack levels required when called: 5
  2141 ;; This function calls:
  2142 ;;		_CAR_HayDedo
  2143 ;;		_CAR_ProcesarMuestra
  2144 ;;		_DS18B20_ReadTemp
  2145 ;;		_DS18B20_Reset
  2146 ;;		_DS18B20_StartConversion
  2147 ;;		_DS18B20_WaitConversion
  2148 ;;		_I2C_Init
  2149 ;;		_MAX30102_Init
  2150 ;;		_MAX30102_ReadSample
  2151 ;;		_OLED_Clear
  2152 ;;		_OLED_Error
  2153 ;;		_OLED_Init
  2154 ;;		_OLED_Paused
  2155 ;;		_OLED_Splash
  2156 ;;		_OLED_Vitals
  2157 ;;		___flge
  2158 ;;		___flmul
  2159 ;;		___flsub
  2160 ;;		___fltol
  2161 ;;		___xxtofl
  2162 ;;		_setup
  2163 ;; This function is called by:
  2164 ;;		Startup code after reset
  2165 ;; This function uses a non-reentrant model
  2166 ;;
  2167                           
  2168                           	psect	text0
  2169   007592                     __ptext0:
  2170                           	callstack 0
  2171   007592                     _main:
  2172                           	callstack 26
  2173   007592                     
  2174                           ;main.c: 36:     unsigned long red, ir;;main.c: 37:     unsigned char bpm = 0;
  2175   007592  6A3E               	clrf	main@bpm^0,c
  2176                           
  2177                           ;main.c: 38:     unsigned char hay_dedo = 0;
  2178   007594  6A3F               	clrf	main@hay_dedo^0,c
  2179                           
  2180                           ;main.c: 39:     unsigned char hay_temp = 0;
  2181   007596  6A41               	clrf	main@hay_temp^0,c
  2182                           
  2183                           ;main.c: 41:     unsigned char alarma = 0;
  2184   007598  6A49               	clrf	main@alarma^0,c
  2185                           
  2186                           ;main.c: 42:     unsigned char i;;main.c: 43:     unsigned char ciclo_temp = 0;
  2187   00759A  6A42               	clrf	main@ciclo_temp^0,c
  2188   00759C                     
  2189                           ;main.c: 46:     unsigned char temp_int = 0;
  2190   00759C  6A4F               	clrf	main@temp_int^0,c
  2191   00759E                     
  2192                           ;main.c: 47:     unsigned char temp_dec = 0;
  2193   00759E  6A43               	clrf	main@temp_dec^0,c
  2194   0075A0                     
  2195                           ;main.c: 49:     setup();
  2196   0075A0  EC54  F02D         	call	_setup	;wreg free
  2197                           
  2198                           ;main.c: 50:     I2C_Init();
  2199   0075A4  EC17  F02C         	call	_I2C_Init	;wreg free
  2200   0075A8                     
  2201                           ;main.c: 51:     OLED_Init();
  2202   0075A8  EC3F  F031         	call	_OLED_Init	;wreg free
  2203   0075AC                     
  2204                           ;main.c: 53:     OLED_Splash();
  2205   0075AC  EC8A  F02E         	call	_OLED_Splash	;wreg free
  2206   0075B0                     
  2207                           ;main.c: 54:     _delay((unsigned long)((1500)*(8000000/4000.0)));
  2208   0075B0  0E10               	movlw	16
  2209   0075B2  6E3D               	movwf	(??_main+1)^0,c
  2210   0075B4  0E39               	movlw	57
  2211   0075B6  6E3C               	movwf	??_main^0,c
  2212   0075B8  0E0E               	movlw	14
  2213   0075BA                     u3857:
  2214   0075BA  2EE8               	decfsz	wreg,f,c
  2215   0075BC  D7FE               	bra	u3857
  2216   0075BE  2E3C               	decfsz	??_main^0,f,c
  2217   0075C0  D7FC               	bra	u3857
  2218   0075C2  2E3D               	decfsz	(??_main+1)^0,f,c
  2219   0075C4  D7FA               	bra	u3857
  2220   0075C6                     
  2221                           ;main.c: 56:     LATDbits.LATD2 = 1;
  2222   0075C6  848C               	bsf	140,2,c	;volatile
  2223   0075C8                     
  2224                           ;main.c: 57:     if (!DS18B20_Reset()) {
  2225   0075C8  EC03  F02E         	call	_DS18B20_Reset	;wreg free
  2226   0075CC  0900               	iorlw	0
  2227   0075CE  A4D8               	btfss	status,2,c
  2228   0075D0  EFEC  F03A         	goto	u3671
  2229   0075D4  EFEE  F03A         	goto	u3670
  2230   0075D8                     u3671:
  2231   0075D8  EF02  F03B         	goto	l4018
  2232   0075DC                     u3670:
  2233   0075DC                     
  2234                           ;main.c: 58:         OLED_Error("DS18 ERR");
  2235   0075DC  0EB5               	movlw	low STR_17
  2236   0075DE  6E0E               	movwf	OLED_Error@msg^0,c
  2237   0075E0  0E7F               	movlw	high STR_17
  2238   0075E2  6E0F               	movwf	(OLED_Error@msg+1)^0,c
  2239   0075E4  ECBB  F02D         	call	_OLED_Error	;wreg free
  2240   0075E8                     
  2241                           ;main.c: 59:         _delay((unsigned long)((2000)*(8000000/4000.0)));
  2242   0075E8  0E15               	movlw	21
  2243   0075EA  6E3D               	movwf	(??_main+1)^0,c
  2244   0075EC  0E4B               	movlw	75
  2245   0075EE  6E3C               	movwf	??_main^0,c
  2246   0075F0  0EBE               	movlw	190
  2247   0075F2                     u3867:
  2248   0075F2  2EE8               	decfsz	wreg,f,c
  2249   0075F4  D7FE               	bra	u3867
  2250   0075F6  2E3C               	decfsz	??_main^0,f,c
  2251   0075F8  D7FC               	bra	u3867
  2252   0075FA  2E3D               	decfsz	(??_main+1)^0,f,c
  2253   0075FC  D7FA               	bra	u3867
  2254   0075FE  D000               	nop2	
  2255                           
  2256                           ;main.c: 60:     } else {
  2257   007600  EFA4  F03B         	goto	l4036
  2258   007604                     l4018:
  2259                           
  2260                           ;main.c: 61:         DS18B20_StartConversion();
  2261   007604  ECA8  F02C         	call	_DS18B20_StartConversion	;wreg free
  2262   007608                     
  2263                           ;main.c: 62:         DS18B20_WaitConversion();
  2264   007608  ECDE  F030         	call	_DS18B20_WaitConversion	;wreg free
  2265   00760C                     
  2266                           ;main.c: 63:         temp_f = DS18B20_ReadTemp();
  2267   00760C  ECC9  F033         	call	_DS18B20_ReadTemp	;wreg free
  2268   007610  C028  F050         	movff	?_DS18B20_ReadTemp,main@temp_f
  2269   007614  C029  F051         	movff	?_DS18B20_ReadTemp+1,main@temp_f+1
  2270   007618  C02A  F052         	movff	?_DS18B20_ReadTemp+2,main@temp_f+2
  2271   00761C  C02B  F053         	movff	?_DS18B20_ReadTemp+3,main@temp_f+3
  2272   007620                     
  2273                           ;main.c: 65:         if (temp_f > -55.0f && temp_f < 125.0f) {
  2274   007620  0E00               	movlw	0
  2275   007622  6E01               	movwf	___flge@ff1^0,c
  2276   007624  0E00               	movlw	0
  2277   007626  6E02               	movwf	(___flge@ff1+1)^0,c
  2278   007628  0E5C               	movlw	92
  2279   00762A  6E03               	movwf	(___flge@ff1+2)^0,c
  2280   00762C  0EC2               	movlw	194
  2281   00762E  6E04               	movwf	(___flge@ff1+3)^0,c
  2282   007630  C050  F005         	movff	main@temp_f,___flge@ff2
  2283   007634  C051  F006         	movff	main@temp_f+1,___flge@ff2+1
  2284   007638  C052  F007         	movff	main@temp_f+2,___flge@ff2+2
  2285   00763C  C053  F008         	movff	main@temp_f+3,___flge@ff2+3
  2286   007640  ECA3  F031         	call	___flge	;wreg free
  2287   007644  B0D8               	btfsc	status,0,c
  2288   007646  EF27  F03B         	goto	u3681
  2289   00764A  EF29  F03B         	goto	u3680
  2290   00764E                     u3681:
  2291   00764E  EFA2  F03B         	goto	l4034
  2292   007652                     u3680:
  2293   007652  C050  F001         	movff	main@temp_f,___flge@ff1
  2294   007656  C051  F002         	movff	main@temp_f+1,___flge@ff1+1
  2295   00765A  C052  F003         	movff	main@temp_f+2,___flge@ff1+2
  2296   00765E  C053  F004         	movff	main@temp_f+3,___flge@ff1+3
  2297   007662  0E00               	movlw	0
  2298   007664  6E05               	movwf	___flge@ff2^0,c
  2299   007666  0E00               	movlw	0
  2300   007668  6E06               	movwf	(___flge@ff2+1)^0,c
  2301   00766A  0EFA               	movlw	250
  2302   00766C  6E07               	movwf	(___flge@ff2+2)^0,c
  2303   00766E  0E42               	movlw	66
  2304   007670  6E08               	movwf	(___flge@ff2+3)^0,c
  2305   007672  ECA3  F031         	call	___flge	;wreg free
  2306   007676  B0D8               	btfsc	status,0,c
  2307   007678  EF40  F03B         	goto	u3691
  2308   00767C  EF42  F03B         	goto	u3690
  2309   007680                     u3691:
  2310   007680  EFA2  F03B         	goto	l4034
  2311   007684                     u3690:
  2312   007684                     
  2313                           ;main.c: 66:             temp_int = (unsigned char)temp_f;
  2314   007684  C050  F032         	movff	main@temp_f,___fltol@f1
  2315   007688  C051  F033         	movff	main@temp_f+1,___fltol@f1+1
  2316   00768C  C052  F034         	movff	main@temp_f+2,___fltol@f1+2
  2317   007690  C053  F035         	movff	main@temp_f+3,___fltol@f1+3
  2318   007694  EC25  F032         	call	___fltol	;wreg free
  2319   007698  5032               	movf	?___fltol^0,w,c
  2320   00769A  6E4F               	movwf	main@temp_int^0,c
  2321   00769C                     
  2322                           ;main.c: 67:             temp_dec = (unsigned char)((temp_f - (float)temp_int) * 10.0f);
  2323   00769C  0E00               	movlw	0
  2324   00769E  6E1D               	movwf	___flmul@a^0,c
  2325   0076A0  0E00               	movlw	0
  2326   0076A2  6E1E               	movwf	(___flmul@a+1)^0,c
  2327   0076A4  0E20               	movlw	32
  2328   0076A6  6E1F               	movwf	(___flmul@a+2)^0,c
  2329   0076A8  0E41               	movlw	65
  2330   0076AA  6E20               	movwf	(___flmul@a+3)^0,c
  2331   0076AC  504F               	movf	main@temp_int^0,w,c
  2332   0076AE  6E01               	movwf	___xxtofl@val^0,c
  2333   0076B0  6A02               	clrf	(___xxtofl@val+1)^0,c
  2334   0076B2  6A03               	clrf	(___xxtofl@val+2)^0,c
  2335   0076B4  6A04               	clrf	(___xxtofl@val+3)^0,c
  2336   0076B6  0E00               	movlw	0
  2337   0076B8  EC17  F035         	call	___xxtofl
  2338   0076BC  C001  F015         	movff	?___xxtofl,___flsub@a
  2339   0076C0  C002  F016         	movff	?___xxtofl+1,___flsub@a+1
  2340   0076C4  C003  F017         	movff	?___xxtofl+2,___flsub@a+2
  2341   0076C8  C004  F018         	movff	?___xxtofl+3,___flsub@a+3
  2342   0076CC  C050  F011         	movff	main@temp_f,___flsub@b
  2343   0076D0  C051  F012         	movff	main@temp_f+1,___flsub@b+1
  2344   0076D4  C052  F013         	movff	main@temp_f+2,___flsub@b+2
  2345   0076D8  C053  F014         	movff	main@temp_f+3,___flsub@b+3
  2346   0076DC  EC98  F02D         	call	___flsub	;wreg free
  2347   0076E0  C011  F019         	movff	?___flsub,___flmul@b
  2348   0076E4  C012  F01A         	movff	?___flsub+1,___flmul@b+1
  2349   0076E8  C013  F01B         	movff	?___flsub+2,___flmul@b+2
  2350   0076EC  C014  F01C         	movff	?___flsub+3,___flmul@b+3
  2351   0076F0  ECB6  F038         	call	___flmul	;wreg free
  2352   0076F4  C019  F032         	movff	?___flmul,___fltol@f1
  2353   0076F8  C01A  F033         	movff	?___flmul+1,___fltol@f1+1
  2354   0076FC  C01B  F034         	movff	?___flmul+2,___fltol@f1+2
  2355   007700  C01C  F035         	movff	?___flmul+3,___fltol@f1+3
  2356   007704  EC25  F032         	call	___fltol	;wreg free
  2357   007708  5032               	movf	?___fltol^0,w,c
  2358   00770A  6E43               	movwf	main@temp_dec^0,c
  2359   00770C                     
  2360                           ;main.c: 68:             hay_temp = (temp_f >= 30.0f) ? 1 : 0;
  2361   00770C  C050  F001         	movff	main@temp_f,___flge@ff1
  2362   007710  C051  F002         	movff	main@temp_f+1,___flge@ff1+1
  2363   007714  C052  F003         	movff	main@temp_f+2,___flge@ff1+2
  2364   007718  C053  F004         	movff	main@temp_f+3,___flge@ff1+3
  2365   00771C  0E00               	movlw	0
  2366   00771E  6E05               	movwf	___flge@ff2^0,c
  2367   007720  0E00               	movlw	0
  2368   007722  6E06               	movwf	(___flge@ff2+1)^0,c
  2369   007724  0EF0               	movlw	240
  2370   007726  6E07               	movwf	(___flge@ff2+2)^0,c
  2371   007728  0E41               	movlw	65
  2372   00772A  6E08               	movwf	(___flge@ff2+3)^0,c
  2373   00772C  ECA3  F031         	call	___flge	;wreg free
  2374   007730  B0D8               	btfsc	status,0,c
  2375   007732  EF9D  F03B         	goto	u3701
  2376   007736  EFA0  F03B         	goto	u3700
  2377   00773A                     u3701:
  2378   00773A  0E01               	movlw	1
  2379   00773C  EFA1  F03B         	goto	u3710
  2380   007740                     u3700:
  2381   007740  0E00               	movlw	0
  2382   007742                     u3710:
  2383   007742  6E41               	movwf	main@hay_temp^0,c
  2384   007744                     l4034:
  2385                           
  2386                           ;main.c: 71:         DS18B20_StartConversion();
  2387   007744  ECA8  F02C         	call	_DS18B20_StartConversion	;wreg free
  2388   007748                     l4036:
  2389                           
  2390                           ;main.c: 73:     LATDbits.LATD2 = 0;
  2391   007748  948C               	bcf	140,2,c	;volatile
  2392   00774A                     
  2393                           ;main.c: 75:     if (!MAX30102_Init()) {
  2394   00774A  ECE4  F02F         	call	_MAX30102_Init	;wreg free
  2395   00774E  0900               	iorlw	0
  2396   007750  A4D8               	btfss	status,2,c
  2397   007752  EFAD  F03B         	goto	u3721
  2398   007756  EFAF  F03B         	goto	u3720
  2399   00775A                     u3721:
  2400   00775A  EFB7  F03B         	goto	l4042
  2401   00775E                     u3720:
  2402   00775E                     
  2403                           ;main.c: 76:         OLED_Error("MAX ERR");
  2404   00775E  0ED0               	movlw	low STR_18
  2405   007760  6E0E               	movwf	OLED_Error@msg^0,c
  2406   007762  0E7F               	movlw	high STR_18
  2407   007764  6E0F               	movwf	(OLED_Error@msg+1)^0,c
  2408   007766  ECBB  F02D         	call	_OLED_Error	;wreg free
  2409   00776A                     l182:
  2410   00776A  EFB5  F03B         	goto	l182
  2411   00776E                     l4042:
  2412                           
  2413                           ;main.c: 80:     OLED_Clear();
  2414   00776E  EC2F  F02E         	call	_OLED_Clear	;wreg free
  2415   007772                     
  2416                           ;main.c: 81:     LATDbits.LATD0 = 1;
  2417   007772  808C               	bsf	140,0,c	;volatile
  2418   007774                     l4046:
  2419                           
  2420                           ;main.c: 84:         for (i = 0; i < 20; i++) {
  2421   007774  6A4A               	clrf	main@i^0,c
  2422   007776                     l4052:
  2423                           
  2424                           ;main.c: 85:             if (MAX30102_ReadSample(&red, &ir)) {
  2425   007776  0E44               	movlw	low main@red
  2426   007778  6E09               	movwf	MAX30102_ReadSample@red^0,c
  2427   00777A  0E4B               	movlw	low main@ir
  2428   00777C  6E0A               	movwf	MAX30102_ReadSample@ir^0,c
  2429   00777E  EC6B  F034         	call	_MAX30102_ReadSample	;wreg free
  2430   007782  0900               	iorlw	0
  2431   007784  B4D8               	btfsc	status,2,c
  2432   007786  EFC7  F03B         	goto	u3731
  2433   00778A  EFC9  F03B         	goto	u3730
  2434   00778E                     u3731:
  2435   00778E  EFE7  F03B         	goto	l4058
  2436   007792                     u3730:
  2437   007792                     
  2438                           ;main.c: 86:                 bpm = CAR_ProcesarMuestra(red, ir);
  2439   007792  C044  F00E         	movff	main@red,CAR_ProcesarMuestra@red
  2440   007796  C045  F00F         	movff	main@red+1,CAR_ProcesarMuestra@red+1
  2441   00779A  C046  F010         	movff	main@red+2,CAR_ProcesarMuestra@red+2
  2442   00779E  C047  F011         	movff	main@red+3,CAR_ProcesarMuestra@red+3
  2443   0077A2  C04B  F012         	movff	main@ir,CAR_ProcesarMuestra@ir
  2444   0077A6  C04C  F013         	movff	main@ir+1,CAR_ProcesarMuestra@ir+1
  2445   0077AA  C04D  F014         	movff	main@ir+2,CAR_ProcesarMuestra@ir+2
  2446   0077AE  C04E  F015         	movff	main@ir+3,CAR_ProcesarMuestra@ir+3
  2447   0077B2  ECF1  F035         	call	_CAR_ProcesarMuestra	;wreg free
  2448   0077B6  6E3E               	movwf	main@bpm^0,c
  2449   0077B8                     
  2450                           ;main.c: 87:                 hay_dedo = CAR_HayDedo(ir);
  2451   0077B8  C04B  F001         	movff	main@ir,CAR_HayDedo@ir
  2452   0077BC  C04C  F002         	movff	main@ir+1,CAR_HayDedo@ir+1
  2453   0077C0  C04D  F003         	movff	main@ir+2,CAR_HayDedo@ir+2
  2454   0077C4  C04E  F004         	movff	main@ir+3,CAR_HayDedo@ir+3
  2455   0077C8  EC52  F02C         	call	_CAR_HayDedo	;wreg free
  2456   0077CC  6E3F               	movwf	main@hay_dedo^0,c
  2457   0077CE                     l4058:
  2458                           
  2459                           ;main.c: 90:             _delay((unsigned long)((15)*(8000000/4000.0)));
  2460   0077CE  0E27               	movlw	39
  2461   0077D0  6E3C               	movwf	??_main^0,c
  2462   0077D2  0EF5               	movlw	245
  2463   0077D4                     u3877:
  2464   0077D4  2EE8               	decfsz	wreg,f,c
  2465   0077D6  D7FE               	bra	u3877
  2466   0077D8  2E3C               	decfsz	??_main^0,f,c
  2467   0077DA  D7FC               	bra	u3877
  2468   0077DC  0000               	nop	
  2469   0077DE                     
  2470                           ;main.c: 91:         }
  2471   0077DE  2A4A               	incf	main@i^0,f,c
  2472   0077E0  0E13               	movlw	19
  2473   0077E2  644A               	cpfsgt	main@i^0,c
  2474   0077E4  EFF6  F03B         	goto	u3741
  2475   0077E8  EFF8  F03B         	goto	u3740
  2476   0077EC                     u3741:
  2477   0077EC  EFBB  F03B         	goto	l4052
  2478   0077F0                     u3740:
  2479   0077F0                     
  2480                           ;main.c: 93:         ciclo_temp++;
  2481   0077F0  2A42               	incf	main@ciclo_temp^0,f,c
  2482   0077F2                     
  2483                           ;main.c: 95:         if (ciclo_temp >= 25) {
  2484   0077F2  0E18               	movlw	24
  2485   0077F4  6442               	cpfsgt	main@ciclo_temp^0,c
  2486   0077F6  EFFF  F03B         	goto	u3751
  2487   0077FA  EF01  F03C         	goto	u3750
  2488   0077FE                     u3751:
  2489   0077FE  EFA0  F03C         	goto	l4082
  2490   007802                     u3750:
  2491   007802                     
  2492                           ;main.c: 96:             ciclo_temp = 0;
  2493   007802  6A42               	clrf	main@ciclo_temp^0,c
  2494   007804                     
  2495                           ;main.c: 98:             temp_f = DS18B20_ReadTemp();
  2496   007804  ECC9  F033         	call	_DS18B20_ReadTemp	;wreg free
  2497   007808  C028  F050         	movff	?_DS18B20_ReadTemp,main@temp_f
  2498   00780C  C029  F051         	movff	?_DS18B20_ReadTemp+1,main@temp_f+1
  2499   007810  C02A  F052         	movff	?_DS18B20_ReadTemp+2,main@temp_f+2
  2500   007814  C02B  F053         	movff	?_DS18B20_ReadTemp+3,main@temp_f+3
  2501                           
  2502                           ;main.c: 100:             if (temp_f > -55.0f && temp_f < 125.0f) {
  2503   007818  0E00               	movlw	0
  2504   00781A  6E01               	movwf	___flge@ff1^0,c
  2505   00781C  0E00               	movlw	0
  2506   00781E  6E02               	movwf	(___flge@ff1+1)^0,c
  2507   007820  0E5C               	movlw	92
  2508   007822  6E03               	movwf	(___flge@ff1+2)^0,c
  2509   007824  0EC2               	movlw	194
  2510   007826  6E04               	movwf	(___flge@ff1+3)^0,c
  2511   007828  C050  F005         	movff	main@temp_f,___flge@ff2
  2512   00782C  C051  F006         	movff	main@temp_f+1,___flge@ff2+1
  2513   007830  C052  F007         	movff	main@temp_f+2,___flge@ff2+2
  2514   007834  C053  F008         	movff	main@temp_f+3,___flge@ff2+3
  2515   007838  ECA3  F031         	call	___flge	;wreg free
  2516   00783C  B0D8               	btfsc	status,0,c
  2517   00783E  EF23  F03C         	goto	u3761
  2518   007842  EF25  F03C         	goto	u3760
  2519   007846                     u3761:
  2520   007846  EF9E  F03C         	goto	l4080
  2521   00784A                     u3760:
  2522   00784A  C050  F001         	movff	main@temp_f,___flge@ff1
  2523   00784E  C051  F002         	movff	main@temp_f+1,___flge@ff1+1
  2524   007852  C052  F003         	movff	main@temp_f+2,___flge@ff1+2
  2525   007856  C053  F004         	movff	main@temp_f+3,___flge@ff1+3
  2526   00785A  0E00               	movlw	0
  2527   00785C  6E05               	movwf	___flge@ff2^0,c
  2528   00785E  0E00               	movlw	0
  2529   007860  6E06               	movwf	(___flge@ff2+1)^0,c
  2530   007862  0EFA               	movlw	250
  2531   007864  6E07               	movwf	(___flge@ff2+2)^0,c
  2532   007866  0E42               	movlw	66
  2533   007868  6E08               	movwf	(___flge@ff2+3)^0,c
  2534   00786A  ECA3  F031         	call	___flge	;wreg free
  2535   00786E  B0D8               	btfsc	status,0,c
  2536   007870  EF3C  F03C         	goto	u3771
  2537   007874  EF3E  F03C         	goto	u3770
  2538   007878                     u3771:
  2539   007878  EF9E  F03C         	goto	l4080
  2540   00787C                     u3770:
  2541   00787C                     
  2542                           ;main.c: 101:                 temp_int = (unsigned char)temp_f;
  2543   00787C  C050  F032         	movff	main@temp_f,___fltol@f1
  2544   007880  C051  F033         	movff	main@temp_f+1,___fltol@f1+1
  2545   007884  C052  F034         	movff	main@temp_f+2,___fltol@f1+2
  2546   007888  C053  F035         	movff	main@temp_f+3,___fltol@f1+3
  2547   00788C  EC25  F032         	call	___fltol	;wreg free
  2548   007890  5032               	movf	?___fltol^0,w,c
  2549   007892  6E4F               	movwf	main@temp_int^0,c
  2550   007894                     
  2551                           ;main.c: 102:                 temp_dec = (unsigned char)((temp_f - (float)temp_int) * 10
      +                          .0f);
  2552   007894  0E00               	movlw	0
  2553   007896  6E1D               	movwf	___flmul@a^0,c
  2554   007898  0E00               	movlw	0
  2555   00789A  6E1E               	movwf	(___flmul@a+1)^0,c
  2556   00789C  0E20               	movlw	32
  2557   00789E  6E1F               	movwf	(___flmul@a+2)^0,c
  2558   0078A0  0E41               	movlw	65
  2559   0078A2  6E20               	movwf	(___flmul@a+3)^0,c
  2560   0078A4  504F               	movf	main@temp_int^0,w,c
  2561   0078A6  6E01               	movwf	___xxtofl@val^0,c
  2562   0078A8  6A02               	clrf	(___xxtofl@val+1)^0,c
  2563   0078AA  6A03               	clrf	(___xxtofl@val+2)^0,c
  2564   0078AC  6A04               	clrf	(___xxtofl@val+3)^0,c
  2565   0078AE  0E00               	movlw	0
  2566   0078B0  EC17  F035         	call	___xxtofl
  2567   0078B4  C001  F015         	movff	?___xxtofl,___flsub@a
  2568   0078B8  C002  F016         	movff	?___xxtofl+1,___flsub@a+1
  2569   0078BC  C003  F017         	movff	?___xxtofl+2,___flsub@a+2
  2570   0078C0  C004  F018         	movff	?___xxtofl+3,___flsub@a+3
  2571   0078C4  C050  F011         	movff	main@temp_f,___flsub@b
  2572   0078C8  C051  F012         	movff	main@temp_f+1,___flsub@b+1
  2573   0078CC  C052  F013         	movff	main@temp_f+2,___flsub@b+2
  2574   0078D0  C053  F014         	movff	main@temp_f+3,___flsub@b+3
  2575   0078D4  EC98  F02D         	call	___flsub	;wreg free
  2576   0078D8  C011  F019         	movff	?___flsub,___flmul@b
  2577   0078DC  C012  F01A         	movff	?___flsub+1,___flmul@b+1
  2578   0078E0  C013  F01B         	movff	?___flsub+2,___flmul@b+2
  2579   0078E4  C014  F01C         	movff	?___flsub+3,___flmul@b+3
  2580   0078E8  ECB6  F038         	call	___flmul	;wreg free
  2581   0078EC  C019  F032         	movff	?___flmul,___fltol@f1
  2582   0078F0  C01A  F033         	movff	?___flmul+1,___fltol@f1+1
  2583   0078F4  C01B  F034         	movff	?___flmul+2,___fltol@f1+2
  2584   0078F8  C01C  F035         	movff	?___flmul+3,___fltol@f1+3
  2585   0078FC  EC25  F032         	call	___fltol	;wreg free
  2586   007900  5032               	movf	?___fltol^0,w,c
  2587   007902  6E43               	movwf	main@temp_dec^0,c
  2588   007904                     
  2589                           ;main.c: 103:                 hay_temp = (temp_f >= 30.0f) ? 1 : 0;
  2590   007904  C050  F001         	movff	main@temp_f,___flge@ff1
  2591   007908  C051  F002         	movff	main@temp_f+1,___flge@ff1+1
  2592   00790C  C052  F003         	movff	main@temp_f+2,___flge@ff1+2
  2593   007910  C053  F004         	movff	main@temp_f+3,___flge@ff1+3
  2594   007914  0E00               	movlw	0
  2595   007916  6E05               	movwf	___flge@ff2^0,c
  2596   007918  0E00               	movlw	0
  2597   00791A  6E06               	movwf	(___flge@ff2+1)^0,c
  2598   00791C  0EF0               	movlw	240
  2599   00791E  6E07               	movwf	(___flge@ff2+2)^0,c
  2600   007920  0E41               	movlw	65
  2601   007922  6E08               	movwf	(___flge@ff2+3)^0,c
  2602   007924  ECA3  F031         	call	___flge	;wreg free
  2603   007928  B0D8               	btfsc	status,0,c
  2604   00792A  EF99  F03C         	goto	u3781
  2605   00792E  EF9C  F03C         	goto	u3780
  2606   007932                     u3781:
  2607   007932  0E01               	movlw	1
  2608   007934  EF9D  F03C         	goto	u3790
  2609   007938                     u3780:
  2610   007938  0E00               	movlw	0
  2611   00793A                     u3790:
  2612   00793A  6E41               	movwf	main@hay_temp^0,c
  2613   00793C                     l4080:
  2614                           
  2615                           ;main.c: 106:             DS18B20_StartConversion();
  2616   00793C  ECA8  F02C         	call	_DS18B20_StartConversion	;wreg free
  2617   007940                     l4082:
  2618                           
  2619                           ;main.c: 109:         activo = (hay_dedo || hay_temp) ? 1 : 0;
  2620   007940  0E01               	movlw	1
  2621   007942  6E40               	movwf	_main$488^0,c
  2622   007944  503F               	movf	main@hay_dedo^0,w,c
  2623   007946  A4D8               	btfss	status,2,c
  2624   007948  EFA8  F03C         	goto	u3801
  2625   00794C  EFAA  F03C         	goto	u3800
  2626   007950                     u3801:
  2627   007950  EFB3  F03C         	goto	l192
  2628   007954                     u3800:
  2629   007954  5041               	movf	main@hay_temp^0,w,c
  2630   007956  A4D8               	btfss	status,2,c
  2631   007958  EFB0  F03C         	goto	u3811
  2632   00795C  EFB2  F03C         	goto	u3810
  2633   007960                     u3811:
  2634   007960  EFB3  F03C         	goto	l192
  2635   007964                     u3810:
  2636   007964  6A40               	clrf	_main$488^0,c
  2637   007966                     l192:
  2638   007966  C040  F048         	movff	_main$488,main@activo
  2639                           
  2640                           ;main.c: 112:         LATDbits.LATD0 = 1;
  2641   00796A  808C               	bsf	140,0,c	;volatile
  2642   00796C                     
  2643                           ;main.c: 113:         LATDbits.LATD1 = activo ? 1 : 0;
  2644   00796C  5048               	movf	main@activo^0,w,c
  2645   00796E  A4D8               	btfss	status,2,c
  2646   007970  EFBC  F03C         	goto	u3821
  2647   007974  EFC0  F03C         	goto	u3820
  2648   007978                     u3821:
  2649   007978  6A3C               	clrf	??_main^0,c
  2650   00797A  2A3C               	incf	??_main^0,f,c
  2651   00797C  EFC1  F03C         	goto	u3838
  2652   007980                     u3820:
  2653   007980  6A3C               	clrf	??_main^0,c
  2654   007982                     u3838:
  2655   007982  463C               	rlncf	??_main^0,f,c
  2656   007984  508C               	movf	140,w,c	;volatile
  2657   007986  183C               	xorwf	??_main^0,w,c
  2658   007988  0BFD               	andlw	-3
  2659   00798A  183C               	xorwf	??_main^0,w,c
  2660   00798C  6E8C               	movwf	140,c	;volatile
  2661   00798E                     
  2662                           ;main.c: 114:         LATDbits.LATD2 = 0;
  2663   00798E  948C               	bcf	140,2,c	;volatile
  2664                           
  2665                           ;main.c: 115:         LATDbits.LATD3 = alarma ? 1 : 0;
  2666   007990  968C               	bcf	140,3,c	;volatile
  2667   007992                     
  2668                           ;main.c: 117:         if (!activo)
  2669   007992  5048               	movf	main@activo^0,w,c
  2670   007994  A4D8               	btfss	status,2,c
  2671   007996  EFCF  F03C         	goto	u3841
  2672   00799A  EFD1  F03C         	goto	u3840
  2673   00799E                     u3841:
  2674   00799E  EFD5  F03C         	goto	l4098
  2675   0079A2                     u3840:
  2676   0079A2                     
  2677                           ;main.c: 118:             OLED_Paused();
  2678   0079A2  ECDF  F02D         	call	_OLED_Paused	;wreg free
  2679   0079A6  EFBA  F03B         	goto	l4046
  2680   0079AA                     l4098:
  2681                           
  2682                           ;main.c: 120:             OLED_Vitals(temp_int, temp_dec, bpm, alarma, 0);
  2683   0079AA  C043  F013         	movff	main@temp_dec,OLED_Vitals@temp_dec
  2684   0079AE  C03E  F014         	movff	main@bpm,OLED_Vitals@bpm
  2685   0079B2  0E00               	movlw	0
  2686   0079B4  6E15               	movwf	OLED_Vitals@alarma^0,c
  2687   0079B6  0E00               	movlw	0
  2688   0079B8  6E16               	movwf	OLED_Vitals@perfil^0,c
  2689   0079BA  504F               	movf	main@temp_int^0,w,c
  2690   0079BC  ECA8  F032         	call	_OLED_Vitals
  2691   0079C0  EFBA  F03B         	goto	l4046
  2692   0079C4  EFFE  F03F         	goto	start
  2693   0079C8                     __end_of_main:
  2694                           	callstack 0
  2695                           
  2696 ;; *************** function _setup *****************
  2697 ;; Defined at:
  2698 ;;		line 19 in file "main.c"
  2699 ;; Parameters:    Size  Location     Type
  2700 ;;		None
  2701 ;; Auto vars:     Size  Location     Type
  2702 ;;		None
  2703 ;; Return value:  Size  Location     Type
  2704 ;;                  1    wreg      void 
  2705 ;; Registers used:
  2706 ;;		wreg, status,2
  2707 ;; Tracked objects:
  2708 ;;		On entry : 0/0
  2709 ;;		On exit  : 0/0
  2710 ;;		Unchanged: 0/0
  2711 ;; Data sizes:     COMRAM   BANK0   BANK1   BANK2   BANK3   BANK4   BANK5   BANK6   BANK7
  2712 ;;      Params:         0       0       0       0       0       0       0       0       0
  2713 ;;      Locals:         0       0       0       0       0       0       0       0       0
  2714 ;;      Temps:          2       0       0       0       0       0       0       0       0
  2715 ;;      Totals:         2       0       0       0       0       0       0       0       0
  2716 ;;Total ram usage:        2 bytes
  2717 ;; Hardware stack levels used: 1
  2718 ;; This function calls:
  2719 ;;		Nothing
  2720 ;; This function is called by:
  2721 ;;		_main
  2722 ;; This function uses a non-reentrant model
  2723 ;;
  2724                           
  2725                           	psect	text1
  2726   005AA8                     __ptext1:
  2727                           	callstack 0
  2728   005AA8                     _setup:
  2729                           	callstack 30
  2730   005AA8                     
  2731                           ;main.c: 20:     OSCCON = 0x72;
  2732   005AA8  0E72               	movlw	114
  2733   005AAA  6ED3               	movwf	211,c	;volatile
  2734   005AAC                     l170:
  2735   005AAC  A4D3               	btfss	211,2,c	;volatile
  2736   005AAE  EF5B  F02D         	goto	u3151
  2737   005AB2  EF5D  F02D         	goto	u3150
  2738   005AB6                     u3151:
  2739   005AB6  EF56  F02D         	goto	l170
  2740   005ABA                     u3150:
  2741   005ABA                     
  2742                           ;main.c: 22:     _delay((unsigned long)((100)*(8000000/4000.0)));
  2743   005ABA  0E02               	movlw	2
  2744   005ABC  6E02               	movwf	(??_setup+1)^0,c
  2745   005ABE  0E04               	movlw	4
  2746   005AC0  6E01               	movwf	??_setup^0,c
  2747   005AC2  0EBA               	movlw	186
  2748   005AC4                     u3887:
  2749   005AC4  2EE8               	decfsz	wreg,f,c
  2750   005AC6  D7FE               	bra	u3887
  2751   005AC8  2E01               	decfsz	??_setup^0,f,c
  2752   005ACA  D7FC               	bra	u3887
  2753   005ACC  2E02               	decfsz	(??_setup+1)^0,f,c
  2754   005ACE  D7FA               	bra	u3887
  2755   005AD0  D000               	nop2	
  2756   005AD2                     
  2757                           ;main.c: 24:     TRISD = 0x40;
  2758   005AD2  0E40               	movlw	64
  2759   005AD4  6E95               	movwf	149,c	;volatile
  2760   005AD6                     
  2761                           ;main.c: 25:     LATD = 0x00;
  2762   005AD6  6A8C               	clrf	140,c	;volatile
  2763   005AD8                     
  2764                           ;main.c: 27:     TRISB = 0xF8;
  2765   005AD8  0EF8               	movlw	248
  2766   005ADA  6E93               	movwf	147,c	;volatile
  2767   005ADC                     
  2768                           ;main.c: 28:     LATB = 0x00;
  2769   005ADC  6A8A               	clrf	138,c	;volatile
  2770   005ADE                     
  2771                           ;main.c: 30:     INTCON2bits.RBPU = 0;
  2772   005ADE  9EF1               	bcf	241,7,c	;volatile
  2773   005AE0                     
  2774                           ;main.c: 31:     CMCON = 0x07;
  2775   005AE0  0E07               	movlw	7
  2776   005AE2  6EB4               	movwf	180,c	;volatile
  2777   005AE4                     
  2778                           ;main.c: 32:     ADCON1 = 0x0F;
  2779   005AE4  0E0F               	movlw	15
  2780   005AE6  6EC1               	movwf	193,c	;volatile
  2781   005AE8  0012               	return		;funcret
  2782   005AEA                     __end_of_setup:
  2783                           	callstack 0
  2784                           
  2785 ;; *************** function ___fltol *****************
  2786 ;; Defined at:
  2787 ;;		line 43 in file "C:\Program Files\Microchip\xc8\v3.10\pic\sources\c99\common\fltol.c"
  2788 ;; Parameters:    Size  Location     Type
  2789 ;;  f1              4   49[COMRAM] void 
  2790 ;; Auto vars:     Size  Location     Type
  2791 ;;  exp1            1   58[COMRAM] unsigned char 
  2792 ;;  sign1           1   57[COMRAM] unsigned char 
  2793 ;; Return value:  Size  Location     Type
  2794 ;;                  4   49[COMRAM] long 
  2795 ;; Registers used:
  2796 ;;		wreg, status,2, status,0
  2797 ;; Tracked objects:
  2798 ;;		On entry : 0/0
  2799 ;;		On exit  : 0/0
  2800 ;;		Unchanged: 0/0
  2801 ;; Data sizes:     COMRAM   BANK0   BANK1   BANK2   BANK3   BANK4   BANK5   BANK6   BANK7
  2802 ;;      Params:         4       0       0       0       0       0       0       0       0
  2803 ;;      Locals:         2       0       0       0       0       0       0       0       0
  2804 ;;      Temps:          4       0       0       0       0       0       0       0       0
  2805 ;;      Totals:        10       0       0       0       0       0       0       0       0
  2806 ;;Total ram usage:       10 bytes
  2807 ;; Hardware stack levels used: 1
  2808 ;; This function calls:
  2809 ;;		Nothing
  2810 ;; This function is called by:
  2811 ;;		_main
  2812 ;; This function uses a non-reentrant model
  2813 ;;
  2814                           
  2815                           	psect	text2
  2816   00644A                     __ptext2:
  2817                           	callstack 0
  2818   00644A                     ___fltol:
  2819                           	callstack 30
  2820   00644A  3434               	rlcf	(___fltol@f1+2)^0,w,c
  2821   00644C  3435               	rlcf	(___fltol@f1+3)^0,w,c
  2822   00644E  6E3B               	movwf	___fltol@exp1^0,c
  2823   006450  503B               	movf	___fltol@exp1^0,w,c
  2824   006452  A4D8               	btfss	status,2,c
  2825   006454  EF2E  F032         	goto	u3601
  2826   006458  EF30  F032         	goto	u3600
  2827   00645C                     u3601:
  2828   00645C  EF3A  F032         	goto	l3946
  2829   006460                     u3600:
  2830   006460                     l3942:
  2831   006460  0E00               	movlw	0
  2832   006462  6E32               	movwf	?___fltol^0,c
  2833   006464  0E00               	movlw	0
  2834   006466  6E33               	movwf	(?___fltol+1)^0,c
  2835   006468  0E00               	movlw	0
  2836   00646A  6E34               	movwf	(?___fltol+2)^0,c
  2837   00646C  0E00               	movlw	0
  2838   00646E  6E35               	movwf	(?___fltol+3)^0,c
  2839   006470  EFA7  F032         	goto	l730
  2840   006474                     l3946:
  2841   006474  C032  F036         	movff	___fltol@f1,??___fltol
  2842   006478  C033  F037         	movff	___fltol@f1+1,??___fltol+1
  2843   00647C  C034  F038         	movff	___fltol@f1+2,??___fltol+2
  2844   006480  C035  F039         	movff	___fltol@f1+3,??___fltol+3
  2845   006484  0E20               	movlw	32
  2846   006486  EF4A  F032         	goto	u3610
  2847   00648A                     u3615:
  2848   00648A  90D8               	bcf	status,0,c
  2849   00648C  3239               	rrcf	(??___fltol+3)^0,f,c
  2850   00648E  3238               	rrcf	(??___fltol+2)^0,f,c
  2851   006490  3237               	rrcf	(??___fltol+1)^0,f,c
  2852   006492  3236               	rrcf	??___fltol^0,f,c
  2853   006494                     u3610:
  2854   006494  2EE8               	decfsz	wreg,f,c
  2855   006496  EF45  F032         	goto	u3615
  2856   00649A  5036               	movf	??___fltol^0,w,c
  2857   00649C  6E3A               	movwf	___fltol@sign1^0,c
  2858   00649E  8E34               	bsf	(___fltol@f1+2)^0,7,c
  2859   0064A0  0EFF               	movlw	255
  2860   0064A2  1632               	andwf	___fltol@f1^0,f,c
  2861   0064A4  0EFF               	movlw	255
  2862   0064A6  1633               	andwf	(___fltol@f1+1)^0,f,c
  2863   0064A8  0EFF               	movlw	255
  2864   0064AA  1634               	andwf	(___fltol@f1+2)^0,f,c
  2865   0064AC  0E00               	movlw	0
  2866   0064AE  1635               	andwf	(___fltol@f1+3)^0,f,c
  2867   0064B0  0E96               	movlw	150
  2868   0064B2  5E3B               	subwf	___fltol@exp1^0,f,c
  2869   0064B4  BE3B               	btfsc	___fltol@exp1^0,7,c
  2870   0064B6  EF61  F032         	goto	u3620
  2871   0064BA  EF5F  F032         	goto	u3621
  2872   0064BE                     u3621:
  2873   0064BE  EF77  F032         	goto	l3966
  2874   0064C2                     u3620:
  2875   0064C2  503B               	movf	___fltol@exp1^0,w,c
  2876   0064C4  0A80               	xorlw	128
  2877   0064C6  0F97               	addlw	151
  2878   0064C8  B0D8               	btfsc	status,0,c
  2879   0064CA  EF69  F032         	goto	u3631
  2880   0064CE  EF6B  F032         	goto	u3630
  2881   0064D2                     u3631:
  2882   0064D2  EF6D  F032         	goto	l3962
  2883   0064D6                     u3630:
  2884   0064D6  EF30  F032         	goto	l3942
  2885   0064DA                     l3962:
  2886   0064DA  90D8               	bcf	status,0,c
  2887   0064DC  3235               	rrcf	(___fltol@f1+3)^0,f,c
  2888   0064DE  3234               	rrcf	(___fltol@f1+2)^0,f,c
  2889   0064E0  3233               	rrcf	(___fltol@f1+1)^0,f,c
  2890   0064E2  3232               	rrcf	___fltol@f1^0,f,c
  2891   0064E4  3E3B               	incfsz	___fltol@exp1^0,f,c
  2892   0064E6  EF6D  F032         	goto	l3962
  2893   0064EA  EF8F  F032         	goto	l3976
  2894   0064EE                     l3966:
  2895   0064EE  0E1F               	movlw	31
  2896   0064F0  643B               	cpfsgt	___fltol@exp1^0,c
  2897   0064F2  EF7D  F032         	goto	u3641
  2898   0064F6  EF7F  F032         	goto	u3640
  2899   0064FA                     u3641:
  2900   0064FA  EF87  F032         	goto	l3974
  2901   0064FE                     u3640:
  2902   0064FE  EF30  F032         	goto	l3942
  2903   006502                     l3972:
  2904   006502  90D8               	bcf	status,0,c
  2905   006504  3632               	rlcf	___fltol@f1^0,f,c
  2906   006506  3633               	rlcf	(___fltol@f1+1)^0,f,c
  2907   006508  3634               	rlcf	(___fltol@f1+2)^0,f,c
  2908   00650A  3635               	rlcf	(___fltol@f1+3)^0,f,c
  2909   00650C  063B               	decf	___fltol@exp1^0,f,c
  2910   00650E                     l3974:
  2911   00650E  503B               	movf	___fltol@exp1^0,w,c
  2912   006510  A4D8               	btfss	status,2,c
  2913   006512  EF8D  F032         	goto	u3651
  2914   006516  EF8F  F032         	goto	u3650
  2915   00651A                     u3651:
  2916   00651A  EF81  F032         	goto	l3972
  2917   00651E                     u3650:
  2918   00651E                     l3976:
  2919   00651E  503A               	movf	___fltol@sign1^0,w,c
  2920   006520  B4D8               	btfsc	status,2,c
  2921   006522  EF95  F032         	goto	u3661
  2922   006526  EF97  F032         	goto	u3660
  2923   00652A                     u3661:
  2924   00652A  EF9F  F032         	goto	l3980
  2925   00652E                     u3660:
  2926   00652E  1E35               	comf	(___fltol@f1+3)^0,f,c
  2927   006530  1E34               	comf	(___fltol@f1+2)^0,f,c
  2928   006532  1E33               	comf	(___fltol@f1+1)^0,f,c
  2929   006534  6C32               	negf	___fltol@f1^0,c
  2930   006536  0E00               	movlw	0
  2931   006538  2233               	addwfc	(___fltol@f1+1)^0,f,c
  2932   00653A  2234               	addwfc	(___fltol@f1+2)^0,f,c
  2933   00653C  2235               	addwfc	(___fltol@f1+3)^0,f,c
  2934   00653E                     l3980:
  2935   00653E  C032  F032         	movff	___fltol@f1,?___fltol
  2936   006542  C033  F033         	movff	___fltol@f1+1,?___fltol+1
  2937   006546  C034  F034         	movff	___fltol@f1+2,?___fltol+2
  2938   00654A  C035  F035         	movff	___fltol@f1+3,?___fltol+3
  2939   00654E                     l730:
  2940   00654E  0012               	return		;funcret
  2941   006550                     __end_of___fltol:
  2942                           	callstack 0
  2943                           
  2944 ;; *************** function ___flsub *****************
  2945 ;; Defined at:
  2946 ;;		line 245 in file "C:\Program Files\Microchip\xc8\v3.10\pic\sources\c99\common\sprcadd.c"
  2947 ;; Parameters:    Size  Location     Type
  2948 ;;  b               4   16[COMRAM] long 
  2949 ;;  a               4   20[COMRAM] long 
  2950 ;; Auto vars:     Size  Location     Type
  2951 ;;		None
  2952 ;; Return value:  Size  Location     Type
  2953 ;;                  4   16[COMRAM] long 
  2954 ;; Registers used:
  2955 ;;		wreg, status,2, status,0, cstack
  2956 ;; Tracked objects:
  2957 ;;		On entry : 0/0
  2958 ;;		On exit  : 0/0
  2959 ;;		Unchanged: 0/0
  2960 ;; Data sizes:     COMRAM   BANK0   BANK1   BANK2   BANK3   BANK4   BANK5   BANK6   BANK7
  2961 ;;      Params:         8       0       0       0       0       0       0       0       0
  2962 ;;      Locals:         0       0       0       0       0       0       0       0       0
  2963 ;;      Temps:          0       0       0       0       0       0       0       0       0
  2964 ;;      Totals:         8       0       0       0       0       0       0       0       0
  2965 ;;Total ram usage:        8 bytes
  2966 ;; Hardware stack levels used: 1
  2967 ;; Hardware stack levels required when called: 1
  2968 ;; This function calls:
  2969 ;;		___fladd
  2970 ;; This function is called by:
  2971 ;;		_main
  2972 ;; This function uses a non-reentrant model
  2973 ;;
  2974                           
  2975                           	psect	text3
  2976   005B30                     __ptext3:
  2977                           	callstack 0
  2978   005B30                     ___flsub:
  2979                           	callstack 29
  2980   005B30  0E00               	movlw	0
  2981   005B32  1A15               	xorwf	___flsub@a^0,f,c
  2982   005B34  0E00               	movlw	0
  2983   005B36  1A16               	xorwf	(___flsub@a+1)^0,f,c
  2984   005B38  0E00               	movlw	0
  2985   005B3A  1A17               	xorwf	(___flsub@a+2)^0,f,c
  2986   005B3C  0E80               	movlw	128
  2987   005B3E  1A18               	xorwf	(___flsub@a+3)^0,f,c
  2988   005B40  C011  F001         	movff	___flsub@b,___fladd@b
  2989   005B44  C012  F002         	movff	___flsub@b+1,___fladd@b+1
  2990   005B48  C013  F003         	movff	___flsub@b+2,___fladd@b+2
  2991   005B4C  C014  F004         	movff	___flsub@b+3,___fladd@b+3
  2992   005B50  C015  F005         	movff	___flsub@a,___fladd@a
  2993   005B54  C016  F006         	movff	___flsub@a+1,___fladd@a+1
  2994   005B58  C017  F007         	movff	___flsub@a+2,___fladd@a+2
  2995   005B5C  C018  F008         	movff	___flsub@a+3,___fladd@a+3
  2996   005B60  ECE4  F03C         	call	___fladd	;wreg free
  2997   005B64  C001  F011         	movff	?___fladd,?___flsub
  2998   005B68  C002  F012         	movff	?___fladd+1,?___flsub+1
  2999   005B6C  C003  F013         	movff	?___fladd+2,?___flsub+2
  3000   005B70  C004  F014         	movff	?___fladd+3,?___flsub+3
  3001   005B74  0012               	return		;funcret
  3002   005B76                     __end_of___flsub:
  3003                           	callstack 0
  3004                           
  3005 ;; *************** function ___fladd *****************
  3006 ;; Defined at:
  3007 ;;		line 10 in file "C:\Program Files\Microchip\xc8\v3.10\pic\sources\c99\common\sprcadd.c"
  3008 ;; Parameters:    Size  Location     Type
  3009 ;;  b               4    0[COMRAM] long 
  3010 ;;  a               4    4[COMRAM] long 
  3011 ;; Auto vars:     Size  Location     Type
  3012 ;;  grs             1   15[COMRAM] unsigned char 
  3013 ;;  bexp            1   14[COMRAM] unsigned char 
  3014 ;;  aexp            1   13[COMRAM] unsigned char 
  3015 ;;  signs           1   12[COMRAM] unsigned char 
  3016 ;; Return value:  Size  Location     Type
  3017 ;;                  4    0[COMRAM] unsigned char 
  3018 ;; Registers used:
  3019 ;;		wreg, status,2, status,0
  3020 ;; Tracked objects:
  3021 ;;		On entry : 0/0
  3022 ;;		On exit  : 0/0
  3023 ;;		Unchanged: 0/0
  3024 ;; Data sizes:     COMRAM   BANK0   BANK1   BANK2   BANK3   BANK4   BANK5   BANK6   BANK7
  3025 ;;      Params:         8       0       0       0       0       0       0       0       0
  3026 ;;      Locals:         4       0       0       0       0       0       0       0       0
  3027 ;;      Temps:          4       0       0       0       0       0       0       0       0
  3028 ;;      Totals:        16       0       0       0       0       0       0       0       0
  3029 ;;Total ram usage:       16 bytes
  3030 ;; Hardware stack levels used: 1
  3031 ;; This function calls:
  3032 ;;		Nothing
  3033 ;; This function is called by:
  3034 ;;		___flsub
  3035 ;; This function uses a non-reentrant model
  3036 ;;
  3037                           
  3038                           	psect	text4
  3039   0079C8                     __ptext4:
  3040                           	callstack 0
  3041   0079C8                     ___fladd:
  3042                           	callstack 29
  3043   0079C8  5004               	movf	(___fladd@b+3)^0,w,c
  3044   0079CA  0B80               	andlw	128
  3045   0079CC  6E0D               	movwf	___fladd@signs^0,c
  3046   0079CE  5004               	movf	(___fladd@b+3)^0,w,c
  3047   0079D0  2404               	addwf	(___fladd@b+3)^0,w,c
  3048   0079D2  6E0F               	movwf	___fladd@bexp^0,c
  3049   0079D4  AE03               	btfss	(___fladd@b+2)^0,7,c
  3050   0079D6  EFEF  F03C         	goto	u2411
  3051   0079DA  EFF1  F03C         	goto	u2410
  3052   0079DE                     u2411:
  3053   0079DE  EFF2  F03C         	goto	l3076
  3054   0079E2                     u2410:
  3055   0079E2  800F               	bsf	___fladd@bexp^0,0,c
  3056   0079E4                     l3076:
  3057   0079E4  500F               	movf	___fladd@bexp^0,w,c
  3058   0079E6  B4D8               	btfsc	status,2,c
  3059   0079E8  EFF8  F03C         	goto	u2421
  3060   0079EC  EFFA  F03C         	goto	u2420
  3061   0079F0                     u2421:
  3062   0079F0  EF0E  F03D         	goto	l3086
  3063   0079F4                     u2420:
  3064   0079F4  280F               	incf	___fladd@bexp^0,w,c
  3065   0079F6  A4D8               	btfss	status,2,c
  3066   0079F8  EF00  F03D         	goto	u2431
  3067   0079FC  EF02  F03D         	goto	u2430
  3068   007A00                     u2431:
  3069   007A00  EF0A  F03D         	goto	l3082
  3070   007A04                     u2430:
  3071   007A04  0E00               	movlw	0
  3072   007A06  6E01               	movwf	___fladd@b^0,c
  3073   007A08  0E00               	movlw	0
  3074   007A0A  6E02               	movwf	(___fladd@b+1)^0,c
  3075   007A0C  0E00               	movlw	0
  3076   007A0E  6E03               	movwf	(___fladd@b+2)^0,c
  3077   007A10  0E00               	movlw	0
  3078   007A12  6E04               	movwf	(___fladd@b+3)^0,c
  3079   007A14                     l3082:
  3080   007A14  8E03               	bsf	(___fladd@b+2)^0,7,c
  3081   007A16  6A04               	clrf	(___fladd@b+3)^0,c
  3082   007A18  EF16  F03D         	goto	l3088
  3083   007A1C                     l3086:
  3084   007A1C  0E00               	movlw	0
  3085   007A1E  6E01               	movwf	___fladd@b^0,c
  3086   007A20  0E00               	movlw	0
  3087   007A22  6E02               	movwf	(___fladd@b+1)^0,c
  3088   007A24  0E00               	movlw	0
  3089   007A26  6E03               	movwf	(___fladd@b+2)^0,c
  3090   007A28  0E00               	movlw	0
  3091   007A2A  6E04               	movwf	(___fladd@b+3)^0,c
  3092   007A2C                     l3088:
  3093   007A2C  5008               	movf	(___fladd@a+3)^0,w,c
  3094   007A2E  0B80               	andlw	128
  3095   007A30  6E0E               	movwf	___fladd@aexp^0,c
  3096   007A32  500D               	movf	___fladd@signs^0,w,c
  3097   007A34  180E               	xorwf	___fladd@aexp^0,w,c
  3098   007A36  B4D8               	btfsc	status,2,c
  3099   007A38  EF20  F03D         	goto	u2441
  3100   007A3C  EF22  F03D         	goto	u2440
  3101   007A40                     u2441:
  3102   007A40  EF23  F03D         	goto	l3094
  3103   007A44                     u2440:
  3104   007A44  8C0D               	bsf	___fladd@signs^0,6,c
  3105   007A46                     l3094:
  3106   007A46  5008               	movf	(___fladd@a+3)^0,w,c
  3107   007A48  2408               	addwf	(___fladd@a+3)^0,w,c
  3108   007A4A  6E0E               	movwf	___fladd@aexp^0,c
  3109   007A4C  AE07               	btfss	(___fladd@a+2)^0,7,c
  3110   007A4E  EF2B  F03D         	goto	u2451
  3111   007A52  EF2D  F03D         	goto	u2450
  3112   007A56                     u2451:
  3113   007A56  EF2E  F03D         	goto	l3100
  3114   007A5A                     u2450:
  3115   007A5A  800E               	bsf	___fladd@aexp^0,0,c
  3116   007A5C                     l3100:
  3117   007A5C  500E               	movf	___fladd@aexp^0,w,c
  3118   007A5E  B4D8               	btfsc	status,2,c
  3119   007A60  EF34  F03D         	goto	u2461
  3120   007A64  EF36  F03D         	goto	u2460
  3121   007A68                     u2461:
  3122   007A68  EF4A  F03D         	goto	l3110
  3123   007A6C                     u2460:
  3124   007A6C  280E               	incf	___fladd@aexp^0,w,c
  3125   007A6E  A4D8               	btfss	status,2,c
  3126   007A70  EF3C  F03D         	goto	u2471
  3127   007A74  EF3E  F03D         	goto	u2470
  3128   007A78                     u2471:
  3129   007A78  EF46  F03D         	goto	l3106
  3130   007A7C                     u2470:
  3131   007A7C  0E00               	movlw	0
  3132   007A7E  6E05               	movwf	___fladd@a^0,c
  3133   007A80  0E00               	movlw	0
  3134   007A82  6E06               	movwf	(___fladd@a+1)^0,c
  3135   007A84  0E00               	movlw	0
  3136   007A86  6E07               	movwf	(___fladd@a+2)^0,c
  3137   007A88  0E00               	movlw	0
  3138   007A8A  6E08               	movwf	(___fladd@a+3)^0,c
  3139   007A8C                     l3106:
  3140   007A8C  8E07               	bsf	(___fladd@a+2)^0,7,c
  3141   007A8E  6A08               	clrf	(___fladd@a+3)^0,c
  3142   007A90  EF52  F03D         	goto	l3112
  3143   007A94                     l3110:
  3144   007A94  0E00               	movlw	0
  3145   007A96  6E05               	movwf	___fladd@a^0,c
  3146   007A98  0E00               	movlw	0
  3147   007A9A  6E06               	movwf	(___fladd@a+1)^0,c
  3148   007A9C  0E00               	movlw	0
  3149   007A9E  6E07               	movwf	(___fladd@a+2)^0,c
  3150   007AA0  0E00               	movlw	0
  3151   007AA2  6E08               	movwf	(___fladd@a+3)^0,c
  3152   007AA4                     l3112:
  3153   007AA4  500F               	movf	___fladd@bexp^0,w,c
  3154   007AA6  5C0E               	subwf	___fladd@aexp^0,w,c
  3155   007AA8  B0D8               	btfsc	status,0,c
  3156   007AAA  EF59  F03D         	goto	u2481
  3157   007AAE  EF5B  F03D         	goto	u2480
  3158   007AB2                     u2481:
  3159   007AB2  EF82  F03D         	goto	l3148
  3160   007AB6                     u2480:
  3161   007AB6  AC0D               	btfss	___fladd@signs^0,6,c
  3162   007AB8  EF60  F03D         	goto	u2491
  3163   007ABC  EF62  F03D         	goto	u2490
  3164   007AC0                     u2491:
  3165   007AC0  EF64  F03D         	goto	l3118
  3166   007AC4                     u2490:
  3167   007AC4  0E80               	movlw	128
  3168   007AC6  1A0D               	xorwf	___fladd@signs^0,f,c
  3169   007AC8                     l3118:
  3170   007AC8  C00F  F010         	movff	___fladd@bexp,___fladd@grs
  3171   007ACC  C00E  F00F         	movff	___fladd@aexp,___fladd@bexp
  3172   007AD0  C010  F00E         	movff	___fladd@grs,___fladd@aexp
  3173   007AD4  C001  F010         	movff	___fladd@b,___fladd@grs
  3174   007AD8  C005  F001         	movff	___fladd@a,___fladd@b
  3175   007ADC  C010  F005         	movff	___fladd@grs,___fladd@a
  3176   007AE0  C002  F010         	movff	___fladd@b+1,___fladd@grs
  3177   007AE4  C006  F002         	movff	___fladd@a+1,___fladd@b+1
  3178   007AE8  C010  F006         	movff	___fladd@grs,___fladd@a+1
  3179   007AEC  C003  F010         	movff	___fladd@b+2,___fladd@grs
  3180   007AF0  C007  F003         	movff	___fladd@a+2,___fladd@b+2
  3181   007AF4  C010  F007         	movff	___fladd@grs,___fladd@a+2
  3182   007AF8  C004  F010         	movff	___fladd@b+3,___fladd@grs
  3183   007AFC  C008  F004         	movff	___fladd@a+3,___fladd@b+3
  3184   007B00  C010  F008         	movff	___fladd@grs,___fladd@a+3
  3185   007B04                     l3148:
  3186   007B04  6A10               	clrf	___fladd@grs^0,c
  3187   007B06  500F               	movf	___fladd@bexp^0,w,c
  3188   007B08  C00E  F009         	movff	___fladd@aexp,??___fladd
  3189   007B0C  6A0A               	clrf	(??___fladd+1)^0,c
  3190   007B0E  5E09               	subwf	??___fladd^0,f,c
  3191   007B10  0E00               	movlw	0
  3192   007B12  5A0A               	subwfb	(??___fladd+1)^0,f,c
  3193   007B14  BE0A               	btfsc	(??___fladd+1)^0,7,c
  3194   007B16  EF96  F03D         	goto	u2501
  3195   007B1A  500A               	movf	(??___fladd+1)^0,w,c
  3196   007B1C  E109               	bnz	u2500
  3197   007B1E  0E1A               	movlw	26
  3198   007B20  5C09               	subwf	??___fladd^0,w,c
  3199   007B22  A0D8               	btfss	status,0,c
  3200   007B24  EF96  F03D         	goto	u2501
  3201   007B28  EF98  F03D         	goto	u2500
  3202   007B2C                     u2501:
  3203   007B2C  EFCF  F03D         	goto	l962
  3204   007B30                     u2500:
  3205   007B30  5001               	movf	___fladd@b^0,w,c
  3206   007B32  1002               	iorwf	(___fladd@b+1)^0,w,c
  3207   007B34  1003               	iorwf	(___fladd@b+2)^0,w,c
  3208   007B36  1004               	iorwf	(___fladd@b+3)^0,w,c
  3209   007B38  A4D8               	btfss	status,2,c
  3210   007B3A  EFA1  F03D         	goto	u2511
  3211   007B3E  EFA4  F03D         	goto	u2510
  3212   007B42                     u2511:
  3213   007B42  0E01               	movlw	1
  3214   007B44  EFA5  F03D         	goto	u2520
  3215   007B48                     u2510:
  3216   007B48  0E00               	movlw	0
  3217   007B4A                     u2520:
  3218   007B4A  6E10               	movwf	___fladd@grs^0,c
  3219   007B4C  0E00               	movlw	0
  3220   007B4E  6E01               	movwf	___fladd@b^0,c
  3221   007B50  0E00               	movlw	0
  3222   007B52  6E02               	movwf	(___fladd@b+1)^0,c
  3223   007B54  0E00               	movlw	0
  3224   007B56  6E03               	movwf	(___fladd@b+2)^0,c
  3225   007B58  0E00               	movlw	0
  3226   007B5A  6E04               	movwf	(___fladd@b+3)^0,c
  3227   007B5C  C00E  F00F         	movff	___fladd@aexp,___fladd@bexp
  3228   007B60  EFD8  F03D         	goto	l961
  3229   007B64                     l963:
  3230   007B64  A010               	btfss	___fladd@grs^0,0,c
  3231   007B66  EFB7  F03D         	goto	u2531
  3232   007B6A  EFB9  F03D         	goto	u2530
  3233   007B6E                     u2531:
  3234   007B6E  EFBF  F03D         	goto	l3158
  3235   007B72                     u2530:
  3236   007B72  90D8               	bcf	status,0,c
  3237   007B74  3010               	rrcf	___fladd@grs^0,w,c
  3238   007B76  0901               	iorlw	1
  3239   007B78  6E10               	movwf	___fladd@grs^0,c
  3240   007B7A  EFC1  F03D         	goto	l3160
  3241   007B7E                     l3158:
  3242   007B7E  90D8               	bcf	status,0,c
  3243   007B80  3210               	rrcf	___fladd@grs^0,f,c
  3244   007B82                     l3160:
  3245   007B82  A001               	btfss	___fladd@b^0,0,c
  3246   007B84  EFC6  F03D         	goto	u2541
  3247   007B88  EFC8  F03D         	goto	u2540
  3248   007B8C                     u2541:
  3249   007B8C  EFC9  F03D         	goto	l3164
  3250   007B90                     u2540:
  3251   007B90  8E10               	bsf	___fladd@grs^0,7,c
  3252   007B92                     l3164:
  3253   007B92  3404               	rlcf	(___fladd@b+3)^0,w,c
  3254   007B94  3204               	rrcf	(___fladd@b+3)^0,f,c
  3255   007B96  3203               	rrcf	(___fladd@b+2)^0,f,c
  3256   007B98  3202               	rrcf	(___fladd@b+1)^0,f,c
  3257   007B9A  3201               	rrcf	___fladd@b^0,f,c
  3258   007B9C  2A0F               	incf	___fladd@bexp^0,f,c
  3259   007B9E                     l962:
  3260   007B9E  500E               	movf	___fladd@aexp^0,w,c
  3261   007BA0  5C0F               	subwf	___fladd@bexp^0,w,c
  3262   007BA2  A0D8               	btfss	status,0,c
  3263   007BA4  EFD6  F03D         	goto	u2551
  3264   007BA8  EFD8  F03D         	goto	u2550
  3265   007BAC                     u2551:
  3266   007BAC  EFB2  F03D         	goto	l963
  3267   007BB0                     u2550:
  3268   007BB0                     l961:
  3269   007BB0  BC0D               	btfsc	___fladd@signs^0,6,c
  3270   007BB2  EFDD  F03D         	goto	u2561
  3271   007BB6  EFDF  F03D         	goto	u2560
  3272   007BBA                     u2561:
  3273   007BBA  EF1F  F03E         	goto	l3192
  3274   007BBE                     u2560:
  3275   007BBE  500F               	movf	___fladd@bexp^0,w,c
  3276   007BC0  A4D8               	btfss	status,2,c
  3277   007BC2  EFE5  F03D         	goto	u2571
  3278   007BC6  EFE7  F03D         	goto	u2570
  3279   007BCA                     u2571:
  3280   007BCA  EFF1  F03D         	goto	l3174
  3281   007BCE                     u2570:
  3282   007BCE  0E00               	movlw	0
  3283   007BD0  6E01               	movwf	?___fladd^0,c
  3284   007BD2  0E00               	movlw	0
  3285   007BD4  6E02               	movwf	(?___fladd+1)^0,c
  3286   007BD6  0E00               	movlw	0
  3287   007BD8  6E03               	movwf	(?___fladd+2)^0,c
  3288   007BDA  0E00               	movlw	0
  3289   007BDC  6E04               	movwf	(?___fladd+3)^0,c
  3290   007BDE  EF3E  F03F         	goto	l970
  3291   007BE2                     l3174:
  3292   007BE2  5005               	movf	___fladd@a^0,w,c
  3293   007BE4  2601               	addwf	___fladd@b^0,f,c
  3294   007BE6  5006               	movf	(___fladd@a+1)^0,w,c
  3295   007BE8  2202               	addwfc	(___fladd@b+1)^0,f,c
  3296   007BEA  5007               	movf	(___fladd@a+2)^0,w,c
  3297   007BEC  2203               	addwfc	(___fladd@b+2)^0,f,c
  3298   007BEE  5008               	movf	(___fladd@a+3)^0,w,c
  3299   007BF0  2204               	addwfc	(___fladd@b+3)^0,f,c
  3300   007BF2  A004               	btfss	(___fladd@b+3)^0,0,c
  3301   007BF4  EFFE  F03D         	goto	u2581
  3302   007BF8  EF00  F03E         	goto	u2580
  3303   007BFC                     u2581:
  3304   007BFC  EFAC  F03E         	goto	l975
  3305   007C00                     u2580:
  3306   007C00  A010               	btfss	___fladd@grs^0,0,c
  3307   007C02  EF05  F03E         	goto	u2591
  3308   007C06  EF07  F03E         	goto	u2590
  3309   007C0A                     u2591:
  3310   007C0A  EF0D  F03E         	goto	l3182
  3311   007C0E                     u2590:
  3312   007C0E  90D8               	bcf	status,0,c
  3313   007C10  3010               	rrcf	___fladd@grs^0,w,c
  3314   007C12  0901               	iorlw	1
  3315   007C14  6E10               	movwf	___fladd@grs^0,c
  3316   007C16  EF0F  F03E         	goto	l3184
  3317   007C1A                     l3182:
  3318   007C1A  90D8               	bcf	status,0,c
  3319   007C1C  3210               	rrcf	___fladd@grs^0,f,c
  3320   007C1E                     l3184:
  3321   007C1E  A001               	btfss	___fladd@b^0,0,c
  3322   007C20  EF14  F03E         	goto	u2601
  3323   007C24  EF16  F03E         	goto	u2600
  3324   007C28                     u2601:
  3325   007C28  EF17  F03E         	goto	l3188
  3326   007C2C                     u2600:
  3327   007C2C  8E10               	bsf	___fladd@grs^0,7,c
  3328   007C2E                     l3188:
  3329   007C2E  3404               	rlcf	(___fladd@b+3)^0,w,c
  3330   007C30  3204               	rrcf	(___fladd@b+3)^0,f,c
  3331   007C32  3203               	rrcf	(___fladd@b+2)^0,f,c
  3332   007C34  3202               	rrcf	(___fladd@b+1)^0,f,c
  3333   007C36  3201               	rrcf	___fladd@b^0,f,c
  3334   007C38  2A0F               	incf	___fladd@bexp^0,f,c
  3335   007C3A  EFAC  F03E         	goto	l975
  3336   007C3E                     l3192:
  3337   007C3E  5005               	movf	___fladd@a^0,w,c
  3338   007C40  5C01               	subwf	___fladd@b^0,w,c
  3339   007C42  5006               	movf	(___fladd@a+1)^0,w,c
  3340   007C44  5802               	subwfb	(___fladd@b+1)^0,w,c
  3341   007C46  5007               	movf	(___fladd@a+2)^0,w,c
  3342   007C48  5803               	subwfb	(___fladd@b+2)^0,w,c
  3343   007C4A  5004               	movf	(___fladd@b+3)^0,w,c
  3344   007C4C  0A80               	xorlw	128
  3345   007C4E  6E09               	movwf	??___fladd^0,c
  3346   007C50  5008               	movf	(___fladd@a+3)^0,w,c
  3347   007C52  0A80               	xorlw	128
  3348   007C54  5809               	subwfb	??___fladd^0,w,c
  3349   007C56  B0D8               	btfsc	status,0,c
  3350   007C58  EF30  F03E         	goto	u2611
  3351   007C5C  EF32  F03E         	goto	u2610
  3352   007C60                     u2611:
  3353   007C60  EF5D  F03E         	goto	l3202
  3354   007C64                     u2610:
  3355   007C64  5001               	movf	___fladd@b^0,w,c
  3356   007C66  5C05               	subwf	___fladd@a^0,w,c
  3357   007C68  6E09               	movwf	??___fladd^0,c
  3358   007C6A  5002               	movf	(___fladd@b+1)^0,w,c
  3359   007C6C  5806               	subwfb	(___fladd@a+1)^0,w,c
  3360   007C6E  6E0A               	movwf	(??___fladd+1)^0,c
  3361   007C70  5003               	movf	(___fladd@b+2)^0,w,c
  3362   007C72  5807               	subwfb	(___fladd@a+2)^0,w,c
  3363   007C74  6E0B               	movwf	(??___fladd+2)^0,c
  3364   007C76  5004               	movf	(___fladd@b+3)^0,w,c
  3365   007C78  5808               	subwfb	(___fladd@a+3)^0,w,c
  3366   007C7A  6E0C               	movwf	(??___fladd+3)^0,c
  3367   007C7C  0EFF               	movlw	255
  3368   007C7E  2409               	addwf	??___fladd^0,w,c
  3369   007C80  6E01               	movwf	___fladd@b^0,c
  3370   007C82  0EFF               	movlw	255
  3371   007C84  200A               	addwfc	(??___fladd+1)^0,w,c
  3372   007C86  6E02               	movwf	(___fladd@b+1)^0,c
  3373   007C88  0EFF               	movlw	255
  3374   007C8A  200B               	addwfc	(??___fladd+2)^0,w,c
  3375   007C8C  6E03               	movwf	(___fladd@b+2)^0,c
  3376   007C8E  0EFF               	movlw	255
  3377   007C90  200C               	addwfc	(??___fladd+3)^0,w,c
  3378   007C92  6E04               	movwf	(___fladd@b+3)^0,c
  3379   007C94  0E80               	movlw	128
  3380   007C96  1A0D               	xorwf	___fladd@signs^0,f,c
  3381   007C98  6C10               	negf	___fladd@grs^0,c
  3382   007C9A  5010               	movf	___fladd@grs^0,w,c
  3383   007C9C  A4D8               	btfss	status,2,c
  3384   007C9E  EF53  F03E         	goto	u2621
  3385   007CA2  EF55  F03E         	goto	u2620
  3386   007CA6                     u2621:
  3387   007CA6  EF65  F03E         	goto	l978
  3388   007CAA                     u2620:
  3389   007CAA  0E01               	movlw	1
  3390   007CAC  2601               	addwf	___fladd@b^0,f,c
  3391   007CAE  0E00               	movlw	0
  3392   007CB0  2202               	addwfc	(___fladd@b+1)^0,f,c
  3393   007CB2  2203               	addwfc	(___fladd@b+2)^0,f,c
  3394   007CB4  2204               	addwfc	(___fladd@b+3)^0,f,c
  3395   007CB6  EF65  F03E         	goto	l978
  3396   007CBA                     l3202:
  3397   007CBA  5005               	movf	___fladd@a^0,w,c
  3398   007CBC  5E01               	subwf	___fladd@b^0,f,c
  3399   007CBE  5006               	movf	(___fladd@a+1)^0,w,c
  3400   007CC0  5A02               	subwfb	(___fladd@b+1)^0,f,c
  3401   007CC2  5007               	movf	(___fladd@a+2)^0,w,c
  3402   007CC4  5A03               	subwfb	(___fladd@b+2)^0,f,c
  3403   007CC6  5008               	movf	(___fladd@a+3)^0,w,c
  3404   007CC8  5A04               	subwfb	(___fladd@b+3)^0,f,c
  3405   007CCA                     l978:
  3406   007CCA  5001               	movf	___fladd@b^0,w,c
  3407   007CCC  1002               	iorwf	(___fladd@b+1)^0,w,c
  3408   007CCE  1003               	iorwf	(___fladd@b+2)^0,w,c
  3409   007CD0  1004               	iorwf	(___fladd@b+3)^0,w,c
  3410   007CD2  A4D8               	btfss	status,2,c
  3411   007CD4  EF6E  F03E         	goto	u2631
  3412   007CD8  EF70  F03E         	goto	u2630
  3413   007CDC                     u2631:
  3414   007CDC  EFA5  F03E         	goto	l3226
  3415   007CE0                     u2630:
  3416   007CE0  5010               	movf	___fladd@grs^0,w,c
  3417   007CE2  A4D8               	btfss	status,2,c
  3418   007CE4  EF76  F03E         	goto	u2641
  3419   007CE8  EF78  F03E         	goto	u2640
  3420   007CEC                     u2641:
  3421   007CEC  EFA5  F03E         	goto	l3226
  3422   007CF0                     u2640:
  3423   007CF0  0E00               	movlw	0
  3424   007CF2  6E01               	movwf	?___fladd^0,c
  3425   007CF4  0E00               	movlw	0
  3426   007CF6  6E02               	movwf	(?___fladd+1)^0,c
  3427   007CF8  0E00               	movlw	0
  3428   007CFA  6E03               	movwf	(?___fladd+2)^0,c
  3429   007CFC  0E00               	movlw	0
  3430   007CFE  6E04               	movwf	(?___fladd+3)^0,c
  3431   007D00  EF3E  F03F         	goto	l970
  3432   007D04                     l3210:
  3433   007D04  90D8               	bcf	status,0,c
  3434   007D06  3601               	rlcf	___fladd@b^0,f,c
  3435   007D08  3602               	rlcf	(___fladd@b+1)^0,f,c
  3436   007D0A  3603               	rlcf	(___fladd@b+2)^0,f,c
  3437   007D0C  3604               	rlcf	(___fladd@b+3)^0,f,c
  3438   007D0E  AE10               	btfss	___fladd@grs^0,7,c
  3439   007D10  EF8C  F03E         	goto	u2651
  3440   007D14  EF8E  F03E         	goto	u2650
  3441   007D18                     u2651:
  3442   007D18  EF8F  F03E         	goto	l3216
  3443   007D1C                     u2650:
  3444   007D1C  8001               	bsf	___fladd@b^0,0,c
  3445   007D1E                     l3216:
  3446   007D1E  A010               	btfss	___fladd@grs^0,0,c
  3447   007D20  EF94  F03E         	goto	u2661
  3448   007D24  EF96  F03E         	goto	u2660
  3449   007D28                     u2661:
  3450   007D28  EF9A  F03E         	goto	l3220
  3451   007D2C                     u2660:
  3452   007D2C  80D8               	bsf	status,0,c
  3453   007D2E  3610               	rlcf	___fladd@grs^0,f,c
  3454   007D30  EF9C  F03E         	goto	l3222
  3455   007D34                     l3220:
  3456   007D34  90D8               	bcf	status,0,c
  3457   007D36  3610               	rlcf	___fladd@grs^0,f,c
  3458   007D38                     l3222:
  3459   007D38  500F               	movf	___fladd@bexp^0,w,c
  3460   007D3A  B4D8               	btfsc	status,2,c
  3461   007D3C  EFA2  F03E         	goto	u2671
  3462   007D40  EFA4  F03E         	goto	u2670
  3463   007D44                     u2671:
  3464   007D44  EFA5  F03E         	goto	l3226
  3465   007D48                     u2670:
  3466   007D48  060F               	decf	___fladd@bexp^0,f,c
  3467   007D4A                     l3226:
  3468   007D4A  AE03               	btfss	(___fladd@b+2)^0,7,c
  3469   007D4C  EFAA  F03E         	goto	u2681
  3470   007D50  EFAC  F03E         	goto	u2680
  3471   007D54                     u2681:
  3472   007D54  EF82  F03E         	goto	l3210
  3473   007D58                     u2680:
  3474   007D58                     l975:
  3475   007D58  6A0E               	clrf	___fladd@aexp^0,c
  3476   007D5A  AE10               	btfss	___fladd@grs^0,7,c
  3477   007D5C  EFB2  F03E         	goto	u2691
  3478   007D60  EFB4  F03E         	goto	u2690
  3479   007D64                     u2691:
  3480   007D64  EFCC  F03E         	goto	l987
  3481   007D68                     u2690:
  3482   007D68  C010  F009         	movff	___fladd@grs,??___fladd
  3483   007D6C  0E7F               	movlw	127
  3484   007D6E  1609               	andwf	??___fladd^0,f,c
  3485   007D70  B4D8               	btfsc	status,2,c
  3486   007D72  EFBD  F03E         	goto	u2701
  3487   007D76  EFBF  F03E         	goto	u2700
  3488   007D7A                     u2701:
  3489   007D7A  EFC3  F03E         	goto	l988
  3490   007D7E                     u2700:
  3491   007D7E                     l3230:
  3492   007D7E  0E01               	movlw	1
  3493   007D80  6E0E               	movwf	___fladd@aexp^0,c
  3494   007D82  EFCC  F03E         	goto	l987
  3495   007D86                     l988:
  3496   007D86  A001               	btfss	___fladd@b^0,0,c
  3497   007D88  EFC8  F03E         	goto	u2711
  3498   007D8C  EFCA  F03E         	goto	u2710
  3499   007D90                     u2711:
  3500   007D90  EFCC  F03E         	goto	l987
  3501   007D94                     u2710:
  3502   007D94  EFBF  F03E         	goto	l3230
  3503   007D98                     l987:
  3504   007D98  500E               	movf	___fladd@aexp^0,w,c
  3505   007D9A  B4D8               	btfsc	status,2,c
  3506   007D9C  EFD2  F03E         	goto	u2721
  3507   007DA0  EFD4  F03E         	goto	u2720
  3508   007DA4                     u2721:
  3509   007DA4  EFFF  F03E         	goto	l3242
  3510   007DA8                     u2720:
  3511   007DA8  0E01               	movlw	1
  3512   007DAA  2601               	addwf	___fladd@b^0,f,c
  3513   007DAC  0E00               	movlw	0
  3514   007DAE  2202               	addwfc	(___fladd@b+1)^0,f,c
  3515   007DB0  2203               	addwfc	(___fladd@b+2)^0,f,c
  3516   007DB2  2204               	addwfc	(___fladd@b+3)^0,f,c
  3517   007DB4  A004               	btfss	(___fladd@b+3)^0,0,c
  3518   007DB6  EFDF  F03E         	goto	u2731
  3519   007DBA  EFE1  F03E         	goto	u2730
  3520   007DBE                     u2731:
  3521   007DBE  EFFF  F03E         	goto	l3242
  3522   007DC2                     u2730:
  3523   007DC2  C001  F009         	movff	___fladd@b,??___fladd
  3524   007DC6  C002  F00A         	movff	___fladd@b+1,??___fladd+1
  3525   007DCA  C003  F00B         	movff	___fladd@b+2,??___fladd+2
  3526   007DCE  C004  F00C         	movff	___fladd@b+3,??___fladd+3
  3527   007DD2  340C               	rlcf	(??___fladd+3)^0,w,c
  3528   007DD4  320C               	rrcf	(??___fladd+3)^0,f,c
  3529   007DD6  320B               	rrcf	(??___fladd+2)^0,f,c
  3530   007DD8  320A               	rrcf	(??___fladd+1)^0,f,c
  3531   007DDA  3209               	rrcf	??___fladd^0,f,c
  3532   007DDC  C009  F001         	movff	??___fladd,___fladd@b
  3533   007DE0  C00A  F002         	movff	??___fladd+1,___fladd@b+1
  3534   007DE4  C00B  F003         	movff	??___fladd+2,___fladd@b+2
  3535   007DE8  C00C  F004         	movff	??___fladd+3,___fladd@b+3
  3536   007DEC  280F               	incf	___fladd@bexp^0,w,c
  3537   007DEE  B4D8               	btfsc	status,2,c
  3538   007DF0  EFFC  F03E         	goto	u2741
  3539   007DF4  EFFE  F03E         	goto	u2740
  3540   007DF8                     u2741:
  3541   007DF8  EFFF  F03E         	goto	l3242
  3542   007DFC                     u2740:
  3543   007DFC  2A0F               	incf	___fladd@bexp^0,f,c
  3544   007DFE                     l3242:
  3545   007DFE  280F               	incf	___fladd@bexp^0,w,c
  3546   007E00  B4D8               	btfsc	status,2,c
  3547   007E02  EF05  F03F         	goto	u2751
  3548   007E06  EF07  F03F         	goto	u2750
  3549   007E0A                     u2751:
  3550   007E0A  EF0F  F03F         	goto	l3246
  3551   007E0E                     u2750:
  3552   007E0E  500F               	movf	___fladd@bexp^0,w,c
  3553   007E10  A4D8               	btfss	status,2,c
  3554   007E12  EF0D  F03F         	goto	u2761
  3555   007E16  EF0F  F03F         	goto	u2760
  3556   007E1A                     u2761:
  3557   007E1A  EF20  F03F         	goto	l994
  3558   007E1E                     u2760:
  3559   007E1E                     l3246:
  3560   007E1E  0E00               	movlw	0
  3561   007E20  6E01               	movwf	___fladd@b^0,c
  3562   007E22  0E00               	movlw	0
  3563   007E24  6E02               	movwf	(___fladd@b+1)^0,c
  3564   007E26  0E00               	movlw	0
  3565   007E28  6E03               	movwf	(___fladd@b+2)^0,c
  3566   007E2A  0E00               	movlw	0
  3567   007E2C  6E04               	movwf	(___fladd@b+3)^0,c
  3568   007E2E  500F               	movf	___fladd@bexp^0,w,c
  3569   007E30  A4D8               	btfss	status,2,c
  3570   007E32  EF1D  F03F         	goto	u2771
  3571   007E36  EF1F  F03F         	goto	u2770
  3572   007E3A                     u2771:
  3573   007E3A  EF20  F03F         	goto	l994
  3574   007E3E                     u2770:
  3575   007E3E  6A0D               	clrf	___fladd@signs^0,c
  3576   007E40                     l994:
  3577   007E40  A00F               	btfss	___fladd@bexp^0,0,c
  3578   007E42  EF25  F03F         	goto	u2781
  3579   007E46  EF27  F03F         	goto	u2780
  3580   007E4A                     u2781:
  3581   007E4A  EF2A  F03F         	goto	l3252
  3582   007E4E                     u2780:
  3583   007E4E  8E03               	bsf	(___fladd@b+2)^0,7,c
  3584   007E50  EF2B  F03F         	goto	l3254
  3585   007E54                     l3252:
  3586   007E54  9E03               	bcf	(___fladd@b+2)^0,7,c
  3587   007E56                     l3254:
  3588   007E56  90D8               	bcf	status,0,c
  3589   007E58  300F               	rrcf	___fladd@bexp^0,w,c
  3590   007E5A  6E04               	movwf	(___fladd@b+3)^0,c
  3591   007E5C  AE0D               	btfss	___fladd@signs^0,7,c
  3592   007E5E  EF33  F03F         	goto	u2791
  3593   007E62  EF35  F03F         	goto	u2790
  3594   007E66                     u2791:
  3595   007E66  EF36  F03F         	goto	l3260
  3596   007E6A                     u2790:
  3597   007E6A  8E04               	bsf	(___fladd@b+3)^0,7,c
  3598   007E6C                     l3260:
  3599   007E6C  C001  F001         	movff	___fladd@b,?___fladd
  3600   007E70  C002  F002         	movff	___fladd@b+1,?___fladd+1
  3601   007E74  C003  F003         	movff	___fladd@b+2,?___fladd+2
  3602   007E78  C004  F004         	movff	___fladd@b+3,?___fladd+3
  3603   007E7C                     l970:
  3604   007E7C  0012               	return		;funcret
  3605   007E7E                     __end_of___fladd:
  3606                           	callstack 0
  3607                           
  3608 ;; *************** function ___flmul *****************
  3609 ;; Defined at:
  3610 ;;		line 8 in file "C:\Program Files\Microchip\xc8\v3.10\pic\sources\c99\common\sprcmul.c"
  3611 ;; Parameters:    Size  Location     Type
  3612 ;;  b               4   24[COMRAM] unsigned char 
  3613 ;;  a               4   28[COMRAM] unsigned char 
  3614 ;; Auto vars:     Size  Location     Type
  3615 ;;  prod            4   43[COMRAM] struct .
  3616 ;;  grs             4   37[COMRAM] unsigned long 
  3617 ;;  temp            2   47[COMRAM] struct .
  3618 ;;  bexp            1   42[COMRAM] unsigned char 
  3619 ;;  aexp            1   41[COMRAM] unsigned char 
  3620 ;;  sign            1   36[COMRAM] unsigned char 
  3621 ;; Return value:  Size  Location     Type
  3622 ;;                  4   24[COMRAM] unsigned char 
  3623 ;; Registers used:
  3624 ;;		wreg, status,2, status,0, prodl, prodh
  3625 ;; Tracked objects:
  3626 ;;		On entry : 0/0
  3627 ;;		On exit  : 0/0
  3628 ;;		Unchanged: 0/0
  3629 ;; Data sizes:     COMRAM   BANK0   BANK1   BANK2   BANK3   BANK4   BANK5   BANK6   BANK7
  3630 ;;      Params:         8       0       0       0       0       0       0       0       0
  3631 ;;      Locals:        13       0       0       0       0       0       0       0       0
  3632 ;;      Temps:          4       0       0       0       0       0       0       0       0
  3633 ;;      Totals:        25       0       0       0       0       0       0       0       0
  3634 ;;Total ram usage:       25 bytes
  3635 ;; Hardware stack levels used: 1
  3636 ;; This function calls:
  3637 ;;		Nothing
  3638 ;; This function is called by:
  3639 ;;		_main
  3640 ;; This function uses a non-reentrant model
  3641 ;;
  3642                           
  3643                           	psect	text5
  3644   00716C                     __ptext5:
  3645                           	callstack 0
  3646   00716C                     ___flmul:
  3647                           	callstack 30
  3648   00716C  501C               	movf	(___flmul@b+3)^0,w,c
  3649   00716E  0B80               	andlw	128
  3650   007170  6E25               	movwf	___flmul@sign^0,c
  3651   007172  501C               	movf	(___flmul@b+3)^0,w,c
  3652   007174  241C               	addwf	(___flmul@b+3)^0,w,c
  3653   007176  6E2B               	movwf	___flmul@bexp^0,c
  3654   007178  AE1B               	btfss	(___flmul@b+2)^0,7,c
  3655   00717A  EFC1  F038         	goto	u3361
  3656   00717E  EFC3  F038         	goto	u3360
  3657   007182                     u3361:
  3658   007182  EFC4  F038         	goto	l3790
  3659   007186                     u3360:
  3660   007186  802B               	bsf	___flmul@bexp^0,0,c
  3661   007188                     l3790:
  3662   007188  502B               	movf	___flmul@bexp^0,w,c
  3663   00718A  B4D8               	btfsc	status,2,c
  3664   00718C  EFCA  F038         	goto	u3371
  3665   007190  EFCC  F038         	goto	u3370
  3666   007194                     u3371:
  3667   007194  EFDF  F038         	goto	l3798
  3668   007198                     u3370:
  3669   007198  282B               	incf	___flmul@bexp^0,w,c
  3670   00719A  A4D8               	btfss	status,2,c
  3671   00719C  EFD2  F038         	goto	u3381
  3672   0071A0  EFD4  F038         	goto	u3380
  3673   0071A4                     u3381:
  3674   0071A4  EFDC  F038         	goto	l3796
  3675   0071A8                     u3380:
  3676   0071A8  0E00               	movlw	0
  3677   0071AA  6E19               	movwf	___flmul@b^0,c
  3678   0071AC  0E00               	movlw	0
  3679   0071AE  6E1A               	movwf	(___flmul@b+1)^0,c
  3680   0071B0  0E00               	movlw	0
  3681   0071B2  6E1B               	movwf	(___flmul@b+2)^0,c
  3682   0071B4  0E00               	movlw	0
  3683   0071B6  6E1C               	movwf	(___flmul@b+3)^0,c
  3684   0071B8                     l3796:
  3685   0071B8  8E1B               	bsf	(___flmul@b+2)^0,7,c
  3686   0071BA  EFE7  F038         	goto	l3800
  3687   0071BE                     l3798:
  3688   0071BE  0E00               	movlw	0
  3689   0071C0  6E19               	movwf	___flmul@b^0,c
  3690   0071C2  0E00               	movlw	0
  3691   0071C4  6E1A               	movwf	(___flmul@b+1)^0,c
  3692   0071C6  0E00               	movlw	0
  3693   0071C8  6E1B               	movwf	(___flmul@b+2)^0,c
  3694   0071CA  0E00               	movlw	0
  3695   0071CC  6E1C               	movwf	(___flmul@b+3)^0,c
  3696   0071CE                     l3800:
  3697   0071CE  5020               	movf	(___flmul@a+3)^0,w,c
  3698   0071D0  0B80               	andlw	128
  3699   0071D2  1A25               	xorwf	___flmul@sign^0,f,c
  3700   0071D4  5020               	movf	(___flmul@a+3)^0,w,c
  3701   0071D6  2420               	addwf	(___flmul@a+3)^0,w,c
  3702   0071D8  6E2A               	movwf	___flmul@aexp^0,c
  3703   0071DA  AE1F               	btfss	(___flmul@a+2)^0,7,c
  3704   0071DC  EFF2  F038         	goto	u3391
  3705   0071E0  EFF4  F038         	goto	u3390
  3706   0071E4                     u3391:
  3707   0071E4  EFF5  F038         	goto	l3808
  3708   0071E8                     u3390:
  3709   0071E8  802A               	bsf	___flmul@aexp^0,0,c
  3710   0071EA                     l3808:
  3711   0071EA  502A               	movf	___flmul@aexp^0,w,c
  3712   0071EC  B4D8               	btfsc	status,2,c
  3713   0071EE  EFFB  F038         	goto	u3401
  3714   0071F2  EFFD  F038         	goto	u3400
  3715   0071F6                     u3401:
  3716   0071F6  EF10  F039         	goto	l3816
  3717   0071FA                     u3400:
  3718   0071FA  282A               	incf	___flmul@aexp^0,w,c
  3719   0071FC  A4D8               	btfss	status,2,c
  3720   0071FE  EF03  F039         	goto	u3411
  3721   007202  EF05  F039         	goto	u3410
  3722   007206                     u3411:
  3723   007206  EF0D  F039         	goto	l3814
  3724   00720A                     u3410:
  3725   00720A  0E00               	movlw	0
  3726   00720C  6E1D               	movwf	___flmul@a^0,c
  3727   00720E  0E00               	movlw	0
  3728   007210  6E1E               	movwf	(___flmul@a+1)^0,c
  3729   007212  0E00               	movlw	0
  3730   007214  6E1F               	movwf	(___flmul@a+2)^0,c
  3731   007216  0E00               	movlw	0
  3732   007218  6E20               	movwf	(___flmul@a+3)^0,c
  3733   00721A                     l3814:
  3734   00721A  8E1F               	bsf	(___flmul@a+2)^0,7,c
  3735   00721C  EF18  F039         	goto	l1047
  3736   007220                     l3816:
  3737   007220  0E00               	movlw	0
  3738   007222  6E1D               	movwf	___flmul@a^0,c
  3739   007224  0E00               	movlw	0
  3740   007226  6E1E               	movwf	(___flmul@a+1)^0,c
  3741   007228  0E00               	movlw	0
  3742   00722A  6E1F               	movwf	(___flmul@a+2)^0,c
  3743   00722C  0E00               	movlw	0
  3744   00722E  6E20               	movwf	(___flmul@a+3)^0,c
  3745   007230                     l1047:
  3746   007230  502A               	movf	___flmul@aexp^0,w,c
  3747   007232  B4D8               	btfsc	status,2,c
  3748   007234  EF1E  F039         	goto	u3421
  3749   007238  EF20  F039         	goto	u3420
  3750   00723C                     u3421:
  3751   00723C  EF28  F039         	goto	l3820
  3752   007240                     u3420:
  3753   007240  502B               	movf	___flmul@bexp^0,w,c
  3754   007242  A4D8               	btfss	status,2,c
  3755   007244  EF26  F039         	goto	u3431
  3756   007248  EF28  F039         	goto	u3430
  3757   00724C                     u3431:
  3758   00724C  EF32  F039         	goto	l3824
  3759   007250                     u3430:
  3760   007250                     l3820:
  3761   007250  0E00               	movlw	0
  3762   007252  6E19               	movwf	?___flmul^0,c
  3763   007254  0E00               	movlw	0
  3764   007256  6E1A               	movwf	(?___flmul+1)^0,c
  3765   007258  0E00               	movlw	0
  3766   00725A  6E1B               	movwf	(?___flmul+2)^0,c
  3767   00725C  0E00               	movlw	0
  3768   00725E  6E1C               	movwf	(?___flmul+3)^0,c
  3769   007260  EFC8  F03A         	goto	l1051
  3770   007264                     l3824:
  3771   007264  501F               	movf	(___flmul@a+2)^0,w,c
  3772   007266  0219               	mulwf	___flmul@b^0,c
  3773   007268  CFF3 F030          	movff	prodl,___flmul@temp
  3774   00726C  CFF4 F031          	movff	prodh,___flmul@temp+1
  3775   007270  5030               	movf	___flmul@temp^0,w,c
  3776   007272  6E26               	movwf	___flmul@grs^0,c
  3777   007274  6A27               	clrf	(___flmul@grs+1)^0,c
  3778   007276  6A28               	clrf	(___flmul@grs+2)^0,c
  3779   007278  6A29               	clrf	(___flmul@grs+3)^0,c
  3780   00727A  5031               	movf	(___flmul@temp+1)^0,w,c
  3781   00727C  6E2C               	movwf	___flmul@prod^0,c
  3782   00727E  6A2D               	clrf	(___flmul@prod+1)^0,c
  3783   007280  6A2E               	clrf	(___flmul@prod+2)^0,c
  3784   007282  6A2F               	clrf	(___flmul@prod+3)^0,c
  3785   007284  501E               	movf	(___flmul@a+1)^0,w,c
  3786   007286  021A               	mulwf	(___flmul@b+1)^0,c
  3787   007288  CFF3 F030          	movff	prodl,___flmul@temp
  3788   00728C  CFF4 F031          	movff	prodh,___flmul@temp+1
  3789   007290  5030               	movf	___flmul@temp^0,w,c
  3790   007292  2626               	addwf	___flmul@grs^0,f,c
  3791   007294  0E00               	movlw	0
  3792   007296  2227               	addwfc	(___flmul@grs+1)^0,f,c
  3793   007298  2228               	addwfc	(___flmul@grs+2)^0,f,c
  3794   00729A  2229               	addwfc	(___flmul@grs+3)^0,f,c
  3795   00729C  5031               	movf	(___flmul@temp+1)^0,w,c
  3796   00729E  262C               	addwf	___flmul@prod^0,f,c
  3797   0072A0  0E00               	movlw	0
  3798   0072A2  222D               	addwfc	(___flmul@prod+1)^0,f,c
  3799   0072A4  222E               	addwfc	(___flmul@prod+2)^0,f,c
  3800   0072A6  222F               	addwfc	(___flmul@prod+3)^0,f,c
  3801   0072A8  501D               	movf	___flmul@a^0,w,c
  3802   0072AA  021B               	mulwf	(___flmul@b+2)^0,c
  3803   0072AC  CFF3 F030          	movff	prodl,___flmul@temp
  3804   0072B0  CFF4 F031          	movff	prodh,___flmul@temp+1
  3805   0072B4  5030               	movf	___flmul@temp^0,w,c
  3806   0072B6  2626               	addwf	___flmul@grs^0,f,c
  3807   0072B8  0E00               	movlw	0
  3808   0072BA  2227               	addwfc	(___flmul@grs+1)^0,f,c
  3809   0072BC  2228               	addwfc	(___flmul@grs+2)^0,f,c
  3810   0072BE  2229               	addwfc	(___flmul@grs+3)^0,f,c
  3811   0072C0  5031               	movf	(___flmul@temp+1)^0,w,c
  3812   0072C2  262C               	addwf	___flmul@prod^0,f,c
  3813   0072C4  0E00               	movlw	0
  3814   0072C6  222D               	addwfc	(___flmul@prod+1)^0,f,c
  3815   0072C8  222E               	addwfc	(___flmul@prod+2)^0,f,c
  3816   0072CA  222F               	addwfc	(___flmul@prod+3)^0,f,c
  3817   0072CC  C028  F029         	movff	___flmul@grs+2,___flmul@grs+3
  3818   0072D0  C027  F028         	movff	___flmul@grs+1,___flmul@grs+2
  3819   0072D4  C026  F027         	movff	___flmul@grs,___flmul@grs+1
  3820   0072D8  6A26               	clrf	___flmul@grs^0,c
  3821   0072DA  501D               	movf	___flmul@a^0,w,c
  3822   0072DC  021A               	mulwf	(___flmul@b+1)^0,c
  3823   0072DE  CFF3 F030          	movff	prodl,___flmul@temp
  3824   0072E2  CFF4 F031          	movff	prodh,___flmul@temp+1
  3825   0072E6  5030               	movf	___flmul@temp^0,w,c
  3826   0072E8  2626               	addwf	___flmul@grs^0,f,c
  3827   0072EA  5031               	movf	(___flmul@temp+1)^0,w,c
  3828   0072EC  2227               	addwfc	(___flmul@grs+1)^0,f,c
  3829   0072EE  0E00               	movlw	0
  3830   0072F0  2228               	addwfc	(___flmul@grs+2)^0,f,c
  3831   0072F2  0E00               	movlw	0
  3832   0072F4  2229               	addwfc	(___flmul@grs+3)^0,f,c
  3833   0072F6  501E               	movf	(___flmul@a+1)^0,w,c
  3834   0072F8  0219               	mulwf	___flmul@b^0,c
  3835   0072FA  CFF3 F030          	movff	prodl,___flmul@temp
  3836   0072FE  CFF4 F031          	movff	prodh,___flmul@temp+1
  3837   007302  5030               	movf	___flmul@temp^0,w,c
  3838   007304  2626               	addwf	___flmul@grs^0,f,c
  3839   007306  5031               	movf	(___flmul@temp+1)^0,w,c
  3840   007308  2227               	addwfc	(___flmul@grs+1)^0,f,c
  3841   00730A  0E00               	movlw	0
  3842   00730C  2228               	addwfc	(___flmul@grs+2)^0,f,c
  3843   00730E  0E00               	movlw	0
  3844   007310  2229               	addwfc	(___flmul@grs+3)^0,f,c
  3845   007312  C028  F029         	movff	___flmul@grs+2,___flmul@grs+3
  3846   007316  C027  F028         	movff	___flmul@grs+1,___flmul@grs+2
  3847   00731A  C026  F027         	movff	___flmul@grs,___flmul@grs+1
  3848   00731E  6A26               	clrf	___flmul@grs^0,c
  3849   007320  501D               	movf	___flmul@a^0,w,c
  3850   007322  0219               	mulwf	___flmul@b^0,c
  3851   007324  CFF3 F030          	movff	prodl,___flmul@temp
  3852   007328  CFF4 F031          	movff	prodh,___flmul@temp+1
  3853   00732C  5030               	movf	___flmul@temp^0,w,c
  3854   00732E  2626               	addwf	___flmul@grs^0,f,c
  3855   007330  5031               	movf	(___flmul@temp+1)^0,w,c
  3856   007332  2227               	addwfc	(___flmul@grs+1)^0,f,c
  3857   007334  0E00               	movlw	0
  3858   007336  2228               	addwfc	(___flmul@grs+2)^0,f,c
  3859   007338  0E00               	movlw	0
  3860   00733A  2229               	addwfc	(___flmul@grs+3)^0,f,c
  3861   00733C  501F               	movf	(___flmul@a+2)^0,w,c
  3862   00733E  021A               	mulwf	(___flmul@b+1)^0,c
  3863   007340  CFF3 F030          	movff	prodl,___flmul@temp
  3864   007344  CFF4 F031          	movff	prodh,___flmul@temp+1
  3865   007348  5030               	movf	___flmul@temp^0,w,c
  3866   00734A  262C               	addwf	___flmul@prod^0,f,c
  3867   00734C  5031               	movf	(___flmul@temp+1)^0,w,c
  3868   00734E  222D               	addwfc	(___flmul@prod+1)^0,f,c
  3869   007350  0E00               	movlw	0
  3870   007352  222E               	addwfc	(___flmul@prod+2)^0,f,c
  3871   007354  0E00               	movlw	0
  3872   007356  222F               	addwfc	(___flmul@prod+3)^0,f,c
  3873   007358  501E               	movf	(___flmul@a+1)^0,w,c
  3874   00735A  021B               	mulwf	(___flmul@b+2)^0,c
  3875   00735C  CFF3 F030          	movff	prodl,___flmul@temp
  3876   007360  CFF4 F031          	movff	prodh,___flmul@temp+1
  3877   007364  5030               	movf	___flmul@temp^0,w,c
  3878   007366  262C               	addwf	___flmul@prod^0,f,c
  3879   007368  5031               	movf	(___flmul@temp+1)^0,w,c
  3880   00736A  222D               	addwfc	(___flmul@prod+1)^0,f,c
  3881   00736C  0E00               	movlw	0
  3882   00736E  222E               	addwfc	(___flmul@prod+2)^0,f,c
  3883   007370  0E00               	movlw	0
  3884   007372  222F               	addwfc	(___flmul@prod+3)^0,f,c
  3885   007374  501F               	movf	(___flmul@a+2)^0,w,c
  3886   007376  021B               	mulwf	(___flmul@b+2)^0,c
  3887   007378  CFF3 F030          	movff	prodl,___flmul@temp
  3888   00737C  CFF4 F031          	movff	prodh,___flmul@temp+1
  3889   007380  5030               	movf	___flmul@temp^0,w,c
  3890   007382  6E21               	movwf	??___flmul^0,c
  3891   007384  5031               	movf	(___flmul@temp+1)^0,w,c
  3892   007386  6E22               	movwf	(??___flmul+1)^0,c
  3893   007388  6A23               	clrf	(??___flmul+2)^0,c
  3894   00738A  6A24               	clrf	(??___flmul+3)^0,c
  3895   00738C  C023  F024         	movff	??___flmul+2,??___flmul+3
  3896   007390  C022  F023         	movff	??___flmul+1,??___flmul+2
  3897   007394  C021  F022         	movff	??___flmul,??___flmul+1
  3898   007398  6A21               	clrf	??___flmul^0,c
  3899   00739A  5021               	movf	??___flmul^0,w,c
  3900   00739C  262C               	addwf	___flmul@prod^0,f,c
  3901   00739E  5022               	movf	(??___flmul+1)^0,w,c
  3902   0073A0  222D               	addwfc	(___flmul@prod+1)^0,f,c
  3903   0073A2  5023               	movf	(??___flmul+2)^0,w,c
  3904   0073A4  222E               	addwfc	(___flmul@prod+2)^0,f,c
  3905   0073A6  5024               	movf	(??___flmul+3)^0,w,c
  3906   0073A8  222F               	addwfc	(___flmul@prod+3)^0,f,c
  3907   0073AA  C026  F021         	movff	___flmul@grs,??___flmul
  3908   0073AE  C027  F022         	movff	___flmul@grs+1,??___flmul+1
  3909   0073B2  C028  F023         	movff	___flmul@grs+2,??___flmul+2
  3910   0073B6  C029  F024         	movff	___flmul@grs+3,??___flmul+3
  3911   0073BA  0E19               	movlw	25
  3912   0073BC  EFE5  F039         	goto	u3440
  3913   0073C0                     u3445:
  3914   0073C0  90D8               	bcf	status,0,c
  3915   0073C2  3224               	rrcf	(??___flmul+3)^0,f,c
  3916   0073C4  3223               	rrcf	(??___flmul+2)^0,f,c
  3917   0073C6  3222               	rrcf	(??___flmul+1)^0,f,c
  3918   0073C8  3221               	rrcf	??___flmul^0,f,c
  3919   0073CA                     u3440:
  3920   0073CA  2EE8               	decfsz	wreg,f,c
  3921   0073CC  EFE0  F039         	goto	u3445
  3922   0073D0  5021               	movf	??___flmul^0,w,c
  3923   0073D2  262C               	addwf	___flmul@prod^0,f,c
  3924   0073D4  5022               	movf	(??___flmul+1)^0,w,c
  3925   0073D6  222D               	addwfc	(___flmul@prod+1)^0,f,c
  3926   0073D8  5023               	movf	(??___flmul+2)^0,w,c
  3927   0073DA  222E               	addwfc	(___flmul@prod+2)^0,f,c
  3928   0073DC  5024               	movf	(??___flmul+3)^0,w,c
  3929   0073DE  222F               	addwfc	(___flmul@prod+3)^0,f,c
  3930   0073E0  C028  F029         	movff	___flmul@grs+2,___flmul@grs+3
  3931   0073E4  C027  F028         	movff	___flmul@grs+1,___flmul@grs+2
  3932   0073E8  C026  F027         	movff	___flmul@grs,___flmul@grs+1
  3933   0073EC  6A26               	clrf	___flmul@grs^0,c
  3934   0073EE  502A               	movf	___flmul@aexp^0,w,c
  3935   0073F0  C02B  F021         	movff	___flmul@bexp,??___flmul
  3936   0073F4  6A22               	clrf	(??___flmul+1)^0,c
  3937   0073F6  2621               	addwf	??___flmul^0,f,c
  3938   0073F8  0E00               	movlw	0
  3939   0073FA  2222               	addwfc	(??___flmul+1)^0,f,c
  3940   0073FC  0E82               	movlw	130
  3941   0073FE  2421               	addwf	??___flmul^0,w,c
  3942   007400  6E30               	movwf	___flmul@temp^0,c
  3943   007402  0EFF               	movlw	255
  3944   007404  2022               	addwfc	(??___flmul+1)^0,w,c
  3945   007406  6E31               	movwf	(___flmul@temp+1)^0,c
  3946   007408  EF1B  F03A         	goto	l3872
  3947   00740C                     l3866:
  3948   00740C  90D8               	bcf	status,0,c
  3949   00740E  362C               	rlcf	___flmul@prod^0,f,c
  3950   007410  362D               	rlcf	(___flmul@prod+1)^0,f,c
  3951   007412  362E               	rlcf	(___flmul@prod+2)^0,f,c
  3952   007414  362F               	rlcf	(___flmul@prod+3)^0,f,c
  3953   007416  AE29               	btfss	(___flmul@grs+3)^0,7,c
  3954   007418  EF10  F03A         	goto	u3451
  3955   00741C  EF12  F03A         	goto	u3450
  3956   007420                     u3451:
  3957   007420  EF13  F03A         	goto	l1054
  3958   007424                     u3450:
  3959   007424  802C               	bsf	___flmul@prod^0,0,c
  3960   007426                     l1054:
  3961   007426  90D8               	bcf	status,0,c
  3962   007428  3626               	rlcf	___flmul@grs^0,f,c
  3963   00742A  3627               	rlcf	(___flmul@grs+1)^0,f,c
  3964   00742C  3628               	rlcf	(___flmul@grs+2)^0,f,c
  3965   00742E  3629               	rlcf	(___flmul@grs+3)^0,f,c
  3966   007430  0630               	decf	___flmul@temp^0,f,c
  3967   007432  A0D8               	btfss	status,0,c
  3968   007434  0631               	decf	(___flmul@temp+1)^0,f,c
  3969   007436                     l3872:
  3970   007436  AE2E               	btfss	(___flmul@prod+2)^0,7,c
  3971   007438  EF20  F03A         	goto	u3461
  3972   00743C  EF22  F03A         	goto	u3460
  3973   007440                     u3461:
  3974   007440  EF06  F03A         	goto	l3866
  3975   007444                     u3460:
  3976   007444  6A2A               	clrf	___flmul@aexp^0,c
  3977   007446  AE29               	btfss	(___flmul@grs+3)^0,7,c
  3978   007448  EF28  F03A         	goto	u3471
  3979   00744C  EF2A  F03A         	goto	u3470
  3980   007450                     u3471:
  3981   007450  EF4E  F03A         	goto	l1056
  3982   007454                     u3470:
  3983   007454  0EFF               	movlw	255
  3984   007456  1426               	andwf	___flmul@grs^0,w,c
  3985   007458  6E21               	movwf	??___flmul^0,c
  3986   00745A  0EFF               	movlw	255
  3987   00745C  1427               	andwf	(___flmul@grs+1)^0,w,c
  3988   00745E  6E22               	movwf	(??___flmul+1)^0,c
  3989   007460  0EFF               	movlw	255
  3990   007462  1428               	andwf	(___flmul@grs+2)^0,w,c
  3991   007464  6E23               	movwf	(??___flmul+2)^0,c
  3992   007466  0E7F               	movlw	127
  3993   007468  1429               	andwf	(___flmul@grs+3)^0,w,c
  3994   00746A  6E24               	movwf	(??___flmul+3)^0,c
  3995   00746C  5021               	movf	??___flmul^0,w,c
  3996   00746E  1022               	iorwf	(??___flmul+1)^0,w,c
  3997   007470  1023               	iorwf	(??___flmul+2)^0,w,c
  3998   007472  1024               	iorwf	(??___flmul+3)^0,w,c
  3999   007474  B4D8               	btfsc	status,2,c
  4000   007476  EF3F  F03A         	goto	u3481
  4001   00747A  EF41  F03A         	goto	u3480
  4002   00747E                     u3481:
  4003   00747E  EF45  F03A         	goto	l1057
  4004   007482                     u3480:
  4005   007482                     l3876:
  4006   007482  0E01               	movlw	1
  4007   007484  6E2A               	movwf	___flmul@aexp^0,c
  4008   007486  EF4E  F03A         	goto	l1056
  4009   00748A                     l1057:
  4010   00748A  A02C               	btfss	___flmul@prod^0,0,c
  4011   00748C  EF4A  F03A         	goto	u3491
  4012   007490  EF4C  F03A         	goto	u3490
  4013   007494                     u3491:
  4014   007494  EF4E  F03A         	goto	l1056
  4015   007498                     u3490:
  4016   007498  EF41  F03A         	goto	l3876
  4017   00749C                     l1056:
  4018   00749C  502A               	movf	___flmul@aexp^0,w,c
  4019   00749E  B4D8               	btfsc	status,2,c
  4020   0074A0  EF54  F03A         	goto	u3501
  4021   0074A4  EF56  F03A         	goto	u3500
  4022   0074A8                     u3501:
  4023   0074A8  EF7A  F03A         	goto	l3888
  4024   0074AC                     u3500:
  4025   0074AC  0E01               	movlw	1
  4026   0074AE  262C               	addwf	___flmul@prod^0,f,c
  4027   0074B0  0E00               	movlw	0
  4028   0074B2  222D               	addwfc	(___flmul@prod+1)^0,f,c
  4029   0074B4  222E               	addwfc	(___flmul@prod+2)^0,f,c
  4030   0074B6  222F               	addwfc	(___flmul@prod+3)^0,f,c
  4031   0074B8  A02F               	btfss	(___flmul@prod+3)^0,0,c
  4032   0074BA  EF61  F03A         	goto	u3511
  4033   0074BE  EF63  F03A         	goto	u3510
  4034   0074C2                     u3511:
  4035   0074C2  EF7A  F03A         	goto	l3888
  4036   0074C6                     u3510:
  4037   0074C6  C02C  F021         	movff	___flmul@prod,??___flmul
  4038   0074CA  C02D  F022         	movff	___flmul@prod+1,??___flmul+1
  4039   0074CE  C02E  F023         	movff	___flmul@prod+2,??___flmul+2
  4040   0074D2  C02F  F024         	movff	___flmul@prod+3,??___flmul+3
  4041   0074D6  3424               	rlcf	(??___flmul+3)^0,w,c
  4042   0074D8  3224               	rrcf	(??___flmul+3)^0,f,c
  4043   0074DA  3223               	rrcf	(??___flmul+2)^0,f,c
  4044   0074DC  3222               	rrcf	(??___flmul+1)^0,f,c
  4045   0074DE  3221               	rrcf	??___flmul^0,f,c
  4046   0074E0  C021  F02C         	movff	??___flmul,___flmul@prod
  4047   0074E4  C022  F02D         	movff	??___flmul+1,___flmul@prod+1
  4048   0074E8  C023  F02E         	movff	??___flmul+2,___flmul@prod+2
  4049   0074EC  C024  F02F         	movff	??___flmul+3,___flmul@prod+3
  4050   0074F0  4A30               	infsnz	___flmul@temp^0,f,c
  4051   0074F2  2A31               	incf	(___flmul@temp+1)^0,f,c
  4052   0074F4                     l3888:
  4053   0074F4  BE31               	btfsc	(___flmul@temp+1)^0,7,c
  4054   0074F6  EF85  F03A         	goto	u3521
  4055   0074FA  5031               	movf	(___flmul@temp+1)^0,w,c
  4056   0074FC  E108               	bnz	u3520
  4057   0074FE  2830               	incf	___flmul@temp^0,w,c
  4058   007500  A0D8               	btfss	status,0,c
  4059   007502  EF85  F03A         	goto	u3521
  4060   007506  EF87  F03A         	goto	u3520
  4061   00750A                     u3521:
  4062   00750A  EF91  F03A         	goto	l3892
  4063   00750E                     u3520:
  4064   00750E  0E00               	movlw	0
  4065   007510  6E2C               	movwf	___flmul@prod^0,c
  4066   007512  0E00               	movlw	0
  4067   007514  6E2D               	movwf	(___flmul@prod+1)^0,c
  4068   007516  0E80               	movlw	128
  4069   007518  6E2E               	movwf	(___flmul@prod+2)^0,c
  4070   00751A  0E7F               	movlw	127
  4071   00751C  6E2F               	movwf	(___flmul@prod+3)^0,c
  4072   00751E  EFBE  F03A         	goto	l3906
  4073   007522                     l3892:
  4074   007522  BE31               	btfsc	(___flmul@temp+1)^0,7,c
  4075   007524  EF9E  F03A         	goto	u3530
  4076   007528  5031               	movf	(___flmul@temp+1)^0,w,c
  4077   00752A  E106               	bnz	u3531
  4078   00752C  0430               	decf	___flmul@temp^0,w,c
  4079   00752E  B0D8               	btfsc	status,0,c
  4080   007530  EF9C  F03A         	goto	u3531
  4081   007534  EF9E  F03A         	goto	u3530
  4082   007538                     u3531:
  4083   007538  EFA9  F03A         	goto	l1064
  4084   00753C                     u3530:
  4085   00753C  0E00               	movlw	0
  4086   00753E  6E2C               	movwf	___flmul@prod^0,c
  4087   007540  0E00               	movlw	0
  4088   007542  6E2D               	movwf	(___flmul@prod+1)^0,c
  4089   007544  0E00               	movlw	0
  4090   007546  6E2E               	movwf	(___flmul@prod+2)^0,c
  4091   007548  0E00               	movlw	0
  4092   00754A  6E2F               	movwf	(___flmul@prod+3)^0,c
  4093   00754C  6A25               	clrf	___flmul@sign^0,c
  4094   00754E  EFBE  F03A         	goto	l3906
  4095   007552                     l1064:
  4096   007552  C030  F02B         	movff	___flmul@temp,___flmul@bexp
  4097   007556  0EFF               	movlw	255
  4098   007558  162C               	andwf	___flmul@prod^0,f,c
  4099   00755A  0EFF               	movlw	255
  4100   00755C  162D               	andwf	(___flmul@prod+1)^0,f,c
  4101   00755E  0E7F               	movlw	127
  4102   007560  162E               	andwf	(___flmul@prod+2)^0,f,c
  4103   007562  0E00               	movlw	0
  4104   007564  162F               	andwf	(___flmul@prod+3)^0,f,c
  4105   007566  A02B               	btfss	___flmul@bexp^0,0,c
  4106   007568  EFB8  F03A         	goto	u3541
  4107   00756C  EFBA  F03A         	goto	u3540
  4108   007570                     u3541:
  4109   007570  EFBB  F03A         	goto	l3904
  4110   007574                     u3540:
  4111   007574  8E2E               	bsf	(___flmul@prod+2)^0,7,c
  4112   007576                     l3904:
  4113   007576  90D8               	bcf	status,0,c
  4114   007578  302B               	rrcf	___flmul@bexp^0,w,c
  4115   00757A  6E2F               	movwf	(___flmul@prod+3)^0,c
  4116   00757C                     l3906:
  4117   00757C  5025               	movf	___flmul@sign^0,w,c
  4118   00757E  122F               	iorwf	(___flmul@prod+3)^0,f,c
  4119   007580  C02C  F019         	movff	___flmul@prod,?___flmul
  4120   007584  C02D  F01A         	movff	___flmul@prod+1,?___flmul+1
  4121   007588  C02E  F01B         	movff	___flmul@prod+2,?___flmul+2
  4122   00758C  C02F  F01C         	movff	___flmul@prod+3,?___flmul+3
  4123   007590                     l1051:
  4124   007590  0012               	return		;funcret
  4125   007592                     __end_of___flmul:
  4126                           	callstack 0
  4127                           
  4128 ;; *************** function ___flge *****************
  4129 ;; Defined at:
  4130 ;;		line 4 in file "C:\Program Files\Microchip\xc8\v3.10\pic\sources\c99\common\flge.c"
  4131 ;; Parameters:    Size  Location     Type
  4132 ;;  ff1             4    0[COMRAM] unsigned char 
  4133 ;;  ff2             4    4[COMRAM] unsigned char 
  4134 ;; Auto vars:     Size  Location     Type
  4135 ;;		None
  4136 ;; Return value:  Size  Location     Type
  4137 ;;		None               void
  4138 ;; Registers used:
  4139 ;;		wreg, status,2, status,0
  4140 ;; Tracked objects:
  4141 ;;		On entry : 0/0
  4142 ;;		On exit  : 0/0
  4143 ;;		Unchanged: 0/0
  4144 ;; Data sizes:     COMRAM   BANK0   BANK1   BANK2   BANK3   BANK4   BANK5   BANK6   BANK7
  4145 ;;      Params:         8       0       0       0       0       0       0       0       0
  4146 ;;      Locals:         0       0       0       0       0       0       0       0       0
  4147 ;;      Temps:          4       0       0       0       0       0       0       0       0
  4148 ;;      Totals:        12       0       0       0       0       0       0       0       0
  4149 ;;Total ram usage:       12 bytes
  4150 ;; Hardware stack levels used: 1
  4151 ;; This function calls:
  4152 ;;		Nothing
  4153 ;; This function is called by:
  4154 ;;		_main
  4155 ;; This function uses a non-reentrant model
  4156 ;;
  4157                           
  4158                           	psect	text6
  4159   006346                     __ptext6:
  4160                           	callstack 0
  4161   006346                     ___flge:
  4162                           	callstack 30
  4163   006346  0E00               	movlw	0
  4164   006348  1401               	andwf	___flge@ff1^0,w,c
  4165   00634A  6E09               	movwf	??___flge^0,c
  4166   00634C  0E00               	movlw	0
  4167   00634E  1402               	andwf	(___flge@ff1+1)^0,w,c
  4168   006350  6E0A               	movwf	(??___flge+1)^0,c
  4169   006352  0E80               	movlw	128
  4170   006354  1403               	andwf	(___flge@ff1+2)^0,w,c
  4171   006356  6E0B               	movwf	(??___flge+2)^0,c
  4172   006358  0E7F               	movlw	127
  4173   00635A  1404               	andwf	(___flge@ff1+3)^0,w,c
  4174   00635C  6E0C               	movwf	(??___flge+3)^0,c
  4175   00635E  5009               	movf	??___flge^0,w,c
  4176   006360  100A               	iorwf	(??___flge+1)^0,w,c
  4177   006362  100B               	iorwf	(??___flge+2)^0,w,c
  4178   006364  100C               	iorwf	(??___flge+3)^0,w,c
  4179   006366  A4D8               	btfss	status,2,c
  4180   006368  EFB8  F031         	goto	u3551
  4181   00636C  EFBA  F031         	goto	u3550
  4182   006370                     u3551:
  4183   006370  EFC2  F031         	goto	l3922
  4184   006374                     u3550:
  4185   006374  0E00               	movlw	0
  4186   006376  6E01               	movwf	___flge@ff1^0,c
  4187   006378  0E00               	movlw	0
  4188   00637A  6E02               	movwf	(___flge@ff1+1)^0,c
  4189   00637C  0E00               	movlw	0
  4190   00637E  6E03               	movwf	(___flge@ff1+2)^0,c
  4191   006380  0E00               	movlw	0
  4192   006382  6E04               	movwf	(___flge@ff1+3)^0,c
  4193   006384                     l3922:
  4194   006384  0E00               	movlw	0
  4195   006386  1405               	andwf	___flge@ff2^0,w,c
  4196   006388  6E09               	movwf	??___flge^0,c
  4197   00638A  0E00               	movlw	0
  4198   00638C  1406               	andwf	(___flge@ff2+1)^0,w,c
  4199   00638E  6E0A               	movwf	(??___flge+1)^0,c
  4200   006390  0E80               	movlw	128
  4201   006392  1407               	andwf	(___flge@ff2+2)^0,w,c
  4202   006394  6E0B               	movwf	(??___flge+2)^0,c
  4203   006396  0E7F               	movlw	127
  4204   006398  1408               	andwf	(___flge@ff2+3)^0,w,c
  4205   00639A  6E0C               	movwf	(??___flge+3)^0,c
  4206   00639C  5009               	movf	??___flge^0,w,c
  4207   00639E  100A               	iorwf	(??___flge+1)^0,w,c
  4208   0063A0  100B               	iorwf	(??___flge+2)^0,w,c
  4209   0063A2  100C               	iorwf	(??___flge+3)^0,w,c
  4210   0063A4  A4D8               	btfss	status,2,c
  4211   0063A6  EFD7  F031         	goto	u3561
  4212   0063AA  EFD9  F031         	goto	u3560
  4213   0063AE                     u3561:
  4214   0063AE  EFE1  F031         	goto	l3926
  4215   0063B2                     u3560:
  4216   0063B2  0E00               	movlw	0
  4217   0063B4  6E05               	movwf	___flge@ff2^0,c
  4218   0063B6  0E00               	movlw	0
  4219   0063B8  6E06               	movwf	(___flge@ff2+1)^0,c
  4220   0063BA  0E00               	movlw	0
  4221   0063BC  6E07               	movwf	(___flge@ff2+2)^0,c
  4222   0063BE  0E00               	movlw	0
  4223   0063C0  6E08               	movwf	(___flge@ff2+3)^0,c
  4224   0063C2                     l3926:
  4225   0063C2  AE04               	btfss	(___flge@ff1+3)^0,7,c
  4226   0063C4  EFE6  F031         	goto	u3571
  4227   0063C8  EFE8  F031         	goto	u3570
  4228   0063CC                     u3571:
  4229   0063CC  EFF1  F031         	goto	l3930
  4230   0063D0                     u3570:
  4231   0063D0  6C01               	negf	___flge@ff1^0,c
  4232   0063D2  1E02               	comf	(___flge@ff1+1)^0,f,c
  4233   0063D4  B0D8               	btfsc	status,0,c
  4234   0063D6  2A02               	incf	(___flge@ff1+1)^0,f,c
  4235   0063D8  1E03               	comf	(___flge@ff1+2)^0,f,c
  4236   0063DA  B0D8               	btfsc	status,0,c
  4237   0063DC  2A03               	incf	(___flge@ff1+2)^0,f,c
  4238   0063DE  0E80               	movlw	128
  4239   0063E0  5604               	subfwb	(___flge@ff1+3)^0,f,c
  4240   0063E2                     l3930:
  4241   0063E2  AE08               	btfss	(___flge@ff2+3)^0,7,c
  4242   0063E4  EFF6  F031         	goto	u3581
  4243   0063E8  EFF8  F031         	goto	u3580
  4244   0063EC                     u3581:
  4245   0063EC  EF01  F032         	goto	l698
  4246   0063F0                     u3580:
  4247   0063F0  6C05               	negf	___flge@ff2^0,c
  4248   0063F2  1E06               	comf	(___flge@ff2+1)^0,f,c
  4249   0063F4  B0D8               	btfsc	status,0,c
  4250   0063F6  2A06               	incf	(___flge@ff2+1)^0,f,c
  4251   0063F8  1E07               	comf	(___flge@ff2+2)^0,f,c
  4252   0063FA  B0D8               	btfsc	status,0,c
  4253   0063FC  2A07               	incf	(___flge@ff2+2)^0,f,c
  4254   0063FE  0E80               	movlw	128
  4255   006400  5608               	subfwb	(___flge@ff2+3)^0,f,c
  4256   006402                     l698:
  4257   006402  0E00               	movlw	0
  4258   006404  1A01               	xorwf	___flge@ff1^0,f,c
  4259   006406  0E00               	movlw	0
  4260   006408  1A02               	xorwf	(___flge@ff1+1)^0,f,c
  4261   00640A  0E00               	movlw	0
  4262   00640C  1A03               	xorwf	(___flge@ff1+2)^0,f,c
  4263   00640E  0E80               	movlw	128
  4264   006410  1A04               	xorwf	(___flge@ff1+3)^0,f,c
  4265   006412  0E00               	movlw	0
  4266   006414  1A05               	xorwf	___flge@ff2^0,f,c
  4267   006416  0E00               	movlw	0
  4268   006418  1A06               	xorwf	(___flge@ff2+1)^0,f,c
  4269   00641A  0E00               	movlw	0
  4270   00641C  1A07               	xorwf	(___flge@ff2+2)^0,f,c
  4271   00641E  0E80               	movlw	128
  4272   006420  1A08               	xorwf	(___flge@ff2+3)^0,f,c
  4273   006422  5005               	movf	___flge@ff2^0,w,c
  4274   006424  5C01               	subwf	___flge@ff1^0,w,c
  4275   006426  5006               	movf	(___flge@ff2+1)^0,w,c
  4276   006428  5802               	subwfb	(___flge@ff1+1)^0,w,c
  4277   00642A  5007               	movf	(___flge@ff2+2)^0,w,c
  4278   00642C  5803               	subwfb	(___flge@ff1+2)^0,w,c
  4279   00642E  5008               	movf	(___flge@ff2+3)^0,w,c
  4280   006430  5804               	subwfb	(___flge@ff1+3)^0,w,c
  4281   006432  B0D8               	btfsc	status,0,c
  4282   006434  EF1E  F032         	goto	u3591
  4283   006438  EF20  F032         	goto	u3590
  4284   00643C                     u3591:
  4285   00643C  EF23  F032         	goto	l3936
  4286   006440                     u3590:
  4287   006440  90D8               	bcf	status,0,c
  4288   006442  EF24  F032         	goto	l703
  4289   006446                     l3936:
  4290   006446  80D8               	bsf	status,0,c
  4291   006448                     l703:
  4292   006448  0012               	return		;funcret
  4293   00644A                     __end_of___flge:
  4294                           	callstack 0
  4295                           
  4296 ;; *************** function _OLED_Vitals *****************
  4297 ;; Defined at:
  4298 ;;		line 443 in file "oled.c"
  4299 ;; Parameters:    Size  Location     Type
  4300 ;;  temp_int        1    wreg     unsigned char 
  4301 ;;  temp_dec        1   18[COMRAM] unsigned char 
  4302 ;;  bpm             1   19[COMRAM] unsigned char 
  4303 ;;  alarma          1   20[COMRAM] unsigned char 
  4304 ;;  perfil          1   21[COMRAM] unsigned char 
  4305 ;; Auto vars:     Size  Location     Type
  4306 ;;  temp_int        1   28[COMRAM] unsigned char 
  4307 ;;  buf             6   22[COMRAM] unsigned char [6]
  4308 ;; Return value:  Size  Location     Type
  4309 ;;                  1    wreg      void 
  4310 ;; Registers used:
  4311 ;;		wreg, fsr1l, fsr1h, fsr2l, fsr2h, status,2, status,0, tblptrl, tblptrh, tblptru, prodl, prodh, cstack
  4312 ;; Tracked objects:
  4313 ;;		On entry : 0/0
  4314 ;;		On exit  : 0/0
  4315 ;;		Unchanged: 0/0
  4316 ;; Data sizes:     COMRAM   BANK0   BANK1   BANK2   BANK3   BANK4   BANK5   BANK6   BANK7
  4317 ;;      Params:         4       0       0       0       0       0       0       0       0
  4318 ;;      Locals:         7       0       0       0       0       0       0       0       0
  4319 ;;      Temps:          0       0       0       0       0       0       0       0       0
  4320 ;;      Totals:        11       0       0       0       0       0       0       0       0
  4321 ;;Total ram usage:       11 bytes
  4322 ;; Hardware stack levels used: 1
  4323 ;; Hardware stack levels required when called: 2
  4324 ;; This function calls:
  4325 ;;		_OLED_ClearLine
  4326 ;;		_OLED_SetCursor
  4327 ;;		_OLED_WriteString
  4328 ;;		_uint_to_str
  4329 ;; This function is called by:
  4330 ;;		_main
  4331 ;; This function uses a non-reentrant model
  4332 ;;
  4333                           
  4334                           	psect	text7
  4335   006550                     __ptext7:
  4336                           	callstack 0
  4337   006550                     _OLED_Vitals:
  4338                           	callstack 28
  4339                           
  4340                           ;incstack = 0
  4341                           ;OLED_Vitals@temp_int stored from wreg
  4342   006550  6E1D               	movwf	OLED_Vitals@temp_int^0,c
  4343   006552                     
  4344                           ;oled.c: 443: void OLED_Vitals(unsigned char temp_int, unsigned char temp_dec,;oled.c: 4
      +                          44:                  unsigned char bpm, unsigned char alarma,;oled.c: 445:              
      +                              unsigned char perfil);oled.c: 446: {;oled.c: 447:     char buf[6];;oled.c: 450:     
      +                          OLED_ClearLine(0);
  4345   006552  0E00               	movlw	0
  4346   006554  EC75  F02D         	call	_OLED_ClearLine
  4347                           
  4348                           ;oled.c: 451:     OLED_SetCursor(0, 0);
  4349   006558  0E00               	movlw	0
  4350   00655A  6E05               	movwf	OLED_SetCursor@page^0,c
  4351   00655C  0E00               	movlw	0
  4352   00655E  EC74  F02C         	call	_OLED_SetCursor
  4353   006562                     
  4354                           ;oled.c: 452:     if (perfil == 0) {
  4355   006562  5016               	movf	OLED_Vitals@perfil^0,w,c
  4356   006564  A4D8               	btfss	status,2,c
  4357   006566  EFB7  F032         	goto	u3131
  4358   00656A  EFB9  F032         	goto	u3130
  4359   00656E                     u3131:
  4360   00656E  EFC1  F032         	goto	l3520
  4361   006572                     u3130:
  4362   006572                     
  4363                           ;oled.c: 453:         OLED_WriteString("PERFIL: NORMAL ");
  4364   006572  0E57               	movlw	low STR_5
  4365   006574  6E0C               	movwf	OLED_WriteString@str^0,c
  4366   006576  0E7F               	movlw	high STR_5
  4367   006578  6E0D               	movwf	(OLED_WriteString@str+1)^0,c
  4368   00657A  EC5B  F02E         	call	_OLED_WriteString	;wreg free
  4369                           
  4370                           ;oled.c: 454:     } else {
  4371   00657E  EFC7  F032         	goto	l3522
  4372   006582                     l3520:
  4373                           
  4374                           ;oled.c: 455:         OLED_WriteString("PERFIL: DEPOR  ");
  4375   006582  0E47               	movlw	low STR_6
  4376   006584  6E0C               	movwf	OLED_WriteString@str^0,c
  4377   006586  0E7F               	movlw	high STR_6
  4378   006588  6E0D               	movwf	(OLED_WriteString@str+1)^0,c
  4379   00658A  EC5B  F02E         	call	_OLED_WriteString	;wreg free
  4380   00658E                     l3522:
  4381                           
  4382                           ;oled.c: 459:     OLED_ClearLine(2);
  4383   00658E  0E02               	movlw	2
  4384   006590  EC75  F02D         	call	_OLED_ClearLine
  4385   006594                     
  4386                           ;oled.c: 460:     OLED_SetCursor(0, 2);
  4387   006594  0E02               	movlw	2
  4388   006596  6E05               	movwf	OLED_SetCursor@page^0,c
  4389   006598  0E00               	movlw	0
  4390   00659A  EC74  F02C         	call	_OLED_SetCursor
  4391                           
  4392                           ;oled.c: 461:     OLED_WriteString("TEMP: ");
  4393   00659E  0EE7               	movlw	low STR_7
  4394   0065A0  6E0C               	movwf	OLED_WriteString@str^0,c
  4395   0065A2  0E7F               	movlw	high STR_7
  4396   0065A4  6E0D               	movwf	(OLED_WriteString@str+1)^0,c
  4397   0065A6  EC5B  F02E         	call	_OLED_WriteString	;wreg free
  4398   0065AA                     
  4399                           ;oled.c: 462:     uint_to_str(temp_int, buf);
  4400   0065AA  C01D  F008         	movff	OLED_Vitals@temp_int,uint_to_str@num
  4401   0065AE  6A09               	clrf	(uint_to_str@num+1)^0,c
  4402   0065B0  0E17               	movlw	low OLED_Vitals@buf
  4403   0065B2  6E0A               	movwf	uint_to_str@buf^0,c
  4404   0065B4  EC83  F030         	call	_uint_to_str	;wreg free
  4405   0065B8                     
  4406                           ;oled.c: 463:     OLED_WriteString(buf);
  4407   0065B8  0E17               	movlw	low OLED_Vitals@buf
  4408   0065BA  6E0C               	movwf	OLED_WriteString@str^0,c
  4409   0065BC  6A0D               	clrf	(OLED_WriteString@str+1)^0,c
  4410   0065BE  EC5B  F02E         	call	_OLED_WriteString	;wreg free
  4411   0065C2                     
  4412                           ;oled.c: 464:     OLED_WriteString(".");
  4413   0065C2  0E9D               	movlw	low (STR_4+11)
  4414   0065C4  6E0C               	movwf	OLED_WriteString@str^0,c
  4415   0065C6  0E7F               	movlw	high (STR_4+11)
  4416   0065C8  6E0D               	movwf	(OLED_WriteString@str+1)^0,c
  4417   0065CA  EC5B  F02E         	call	_OLED_WriteString	;wreg free
  4418   0065CE                     
  4419                           ;oled.c: 465:     uint_to_str(temp_dec, buf);
  4420   0065CE  C013  F008         	movff	OLED_Vitals@temp_dec,uint_to_str@num
  4421   0065D2  6A09               	clrf	(uint_to_str@num+1)^0,c
  4422   0065D4  0E17               	movlw	low OLED_Vitals@buf
  4423   0065D6  6E0A               	movwf	uint_to_str@buf^0,c
  4424   0065D8  EC83  F030         	call	_uint_to_str	;wreg free
  4425                           
  4426                           ;oled.c: 466:     OLED_WriteString(buf);
  4427   0065DC  0E17               	movlw	low OLED_Vitals@buf
  4428   0065DE  6E0C               	movwf	OLED_WriteString@str^0,c
  4429   0065E0  6A0D               	clrf	(OLED_WriteString@str+1)^0,c
  4430   0065E2  EC5B  F02E         	call	_OLED_WriteString	;wreg free
  4431   0065E6                     
  4432                           ;oled.c: 469:     OLED_ClearLine(4);
  4433   0065E6  0E04               	movlw	4
  4434   0065E8  EC75  F02D         	call	_OLED_ClearLine
  4435   0065EC                     
  4436                           ;oled.c: 470:     OLED_SetCursor(0, 4);
  4437   0065EC  0E04               	movlw	4
  4438   0065EE  6E05               	movwf	OLED_SetCursor@page^0,c
  4439   0065F0  0E00               	movlw	0
  4440   0065F2  EC74  F02C         	call	_OLED_SetCursor
  4441                           
  4442                           ;oled.c: 471:     OLED_WriteString("BPM:  ");
  4443   0065F6  0EE0               	movlw	low STR_9
  4444   0065F8  6E0C               	movwf	OLED_WriteString@str^0,c
  4445   0065FA  0E7F               	movlw	high STR_9
  4446   0065FC  6E0D               	movwf	(OLED_WriteString@str+1)^0,c
  4447   0065FE  EC5B  F02E         	call	_OLED_WriteString	;wreg free
  4448   006602                     
  4449                           ;oled.c: 472:     uint_to_str(bpm, buf);
  4450   006602  C014  F008         	movff	OLED_Vitals@bpm,uint_to_str@num
  4451   006606  6A09               	clrf	(uint_to_str@num+1)^0,c
  4452   006608  0E17               	movlw	low OLED_Vitals@buf
  4453   00660A  6E0A               	movwf	uint_to_str@buf^0,c
  4454   00660C  EC83  F030         	call	_uint_to_str	;wreg free
  4455   006610                     
  4456                           ;oled.c: 473:     OLED_WriteString(buf);
  4457   006610  0E17               	movlw	low OLED_Vitals@buf
  4458   006612  6E0C               	movwf	OLED_WriteString@str^0,c
  4459   006614  6A0D               	clrf	(OLED_WriteString@str+1)^0,c
  4460   006616  EC5B  F02E         	call	_OLED_WriteString	;wreg free
  4461   00661A                     
  4462                           ;oled.c: 476:     OLED_ClearLine(6);
  4463   00661A  0E06               	movlw	6
  4464   00661C  EC75  F02D         	call	_OLED_ClearLine
  4465   006620                     
  4466                           ;oled.c: 477:     OLED_SetCursor(0, 6);
  4467   006620  0E06               	movlw	6
  4468   006622  6E05               	movwf	OLED_SetCursor@page^0,c
  4469   006624  0E00               	movlw	0
  4470   006626  EC74  F02C         	call	_OLED_SetCursor
  4471   00662A                     
  4472                           ;oled.c: 478:     if (alarma)
  4473   00662A  5015               	movf	OLED_Vitals@alarma^0,w,c
  4474   00662C  B4D8               	btfsc	status,2,c
  4475   00662E  EF1B  F033         	goto	u3141
  4476   006632  EF1D  F033         	goto	u3140
  4477   006636                     u3141:
  4478   006636  EF25  F033         	goto	l3550
  4479   00663A                     u3140:
  4480   00663A                     
  4481                           ;oled.c: 479:         OLED_WriteString("ALARMA ACTIVA");
  4482   00663A  0E76               	movlw	low STR_10
  4483   00663C  6E0C               	movwf	OLED_WriteString@str^0,c
  4484   00663E  0E7F               	movlw	high STR_10
  4485   006640  6E0D               	movwf	(OLED_WriteString@str+1)^0,c
  4486   006642  EC5B  F02E         	call	_OLED_WriteString	;wreg free
  4487   006646  EF2B  F033         	goto	l109
  4488   00664A                     l3550:
  4489                           
  4490                           ;oled.c: 481:         OLED_WriteString("NORMAL");
  4491   00664A  0EEE               	movlw	low STR_11
  4492   00664C  6E0C               	movwf	OLED_WriteString@str^0,c
  4493   00664E  0E7F               	movlw	high STR_11
  4494   006650  6E0D               	movwf	(OLED_WriteString@str+1)^0,c
  4495   006652  EC5B  F02E         	call	_OLED_WriteString	;wreg free
  4496   006656                     l109:
  4497   006656  0012               	return		;funcret
  4498   006658                     __end_of_OLED_Vitals:
  4499                           	callstack 0
  4500                           
  4501 ;; *************** function _uint_to_str *****************
  4502 ;; Defined at:
  4503 ;;		line 111 in file "oled.c"
  4504 ;; Parameters:    Size  Location     Type
  4505 ;;  num             2    7[COMRAM] unsigned int 
  4506 ;;  buf             1    9[COMRAM] PTR unsigned char 
  4507 ;;		 -> OLED_Vitals@buf(6), 
  4508 ;; Auto vars:     Size  Location     Type
  4509 ;;  tmp             6   10[COMRAM] unsigned char [6]
  4510 ;;  i               1   17[COMRAM] unsigned char 
  4511 ;;  j               1   16[COMRAM] unsigned char 
  4512 ;; Return value:  Size  Location     Type
  4513 ;;                  1    wreg      void 
  4514 ;; Registers used:
  4515 ;;		wreg, fsr1l, fsr1h, fsr2l, fsr2h, status,2, status,0, cstack
  4516 ;; Tracked objects:
  4517 ;;		On entry : 0/0
  4518 ;;		On exit  : 0/0
  4519 ;;		Unchanged: 0/0
  4520 ;; Data sizes:     COMRAM   BANK0   BANK1   BANK2   BANK3   BANK4   BANK5   BANK6   BANK7
  4521 ;;      Params:         3       0       0       0       0       0       0       0       0
  4522 ;;      Locals:         8       0       0       0       0       0       0       0       0
  4523 ;;      Temps:          0       0       0       0       0       0       0       0       0
  4524 ;;      Totals:        11       0       0       0       0       0       0       0       0
  4525 ;;Total ram usage:       11 bytes
  4526 ;; Hardware stack levels used: 1
  4527 ;; Hardware stack levels required when called: 1
  4528 ;; This function calls:
  4529 ;;		___lwdiv
  4530 ;;		___lwmod
  4531 ;; This function is called by:
  4532 ;;		_OLED_Vitals
  4533 ;; This function uses a non-reentrant model
  4534 ;;
  4535                           
  4536                           	psect	text8
  4537   006106                     __ptext8:
  4538                           	callstack 0
  4539   006106                     _uint_to_str:
  4540                           	callstack 28
  4541   006106                     
  4542                           ;oled.c: 111: static void uint_to_str(unsigned int num, char *buf);oled.c: 112: {;oled.c
      +                          : 113:     unsigned char i = 0;
  4543   006106  6A12               	clrf	uint_to_str@i^0,c
  4544                           
  4545                           ;oled.c: 114:     unsigned char j = 0;
  4546   006108  6A11               	clrf	uint_to_str@j^0,c
  4547   00610A                     
  4548                           ;oled.c: 115:     char tmp[6];;oled.c: 117:     if (num == 0) { buf[0]='0'; buf[1]='\0';
      +                           return; }
  4549   00610A  5008               	movf	uint_to_str@num^0,w,c
  4550   00610C  1009               	iorwf	(uint_to_str@num+1)^0,w,c
  4551   00610E  A4D8               	btfss	status,2,c
  4552   006110  EF8C  F030         	goto	u2161
  4553   006114  EF8E  F030         	goto	u2160
  4554   006118                     u2161:
  4555   006118  EFB9  F030         	goto	l2862
  4556   00611C                     u2160:
  4557   00611C  500A               	movf	uint_to_str@buf^0,w,c
  4558   00611E  6ED9               	movwf	fsr2l,c
  4559   006120  6ADA               	clrf	fsr2h,c
  4560   006122  0E30               	movlw	48
  4561   006124  6EDF               	movwf	indf2,c
  4562   006126  500A               	movf	uint_to_str@buf^0,w,c
  4563   006128  6ED9               	movwf	fsr2l,c
  4564   00612A  6ADA               	clrf	fsr2h,c
  4565   00612C  0E01               	movlw	1
  4566   00612E  26D9               	addwf	fsr2l,f,c
  4567   006130  6ADF               	clrf	indf2,c
  4568   006132  EFDD  F030         	goto	l47
  4569   006136                     l2856:
  4570                           
  4571                           ;oled.c: 120:         tmp[i++] = '0' + (num % 10);
  4572   006136  5012               	movf	uint_to_str@i^0,w,c
  4573   006138  0F0B               	addlw	low uint_to_str@tmp
  4574   00613A  6ED9               	movwf	fsr2l,c
  4575   00613C  6ADA               	clrf	fsr2h,c
  4576   00613E  C008  F001         	movff	uint_to_str@num,___lwmod@dividend
  4577   006142  C009  F002         	movff	uint_to_str@num+1,___lwmod@dividend+1
  4578   006146  6A04               	clrf	(___lwmod@divisor+1)^0,c
  4579   006148  0E0A               	movlw	10
  4580   00614A  6E03               	movwf	___lwmod@divisor^0,c
  4581   00614C  ECB9  F02E         	call	___lwmod	;wreg free
  4582   006150  5001               	movf	?___lwmod^0,w,c
  4583   006152  0F30               	addlw	48
  4584   006154  6EDF               	movwf	indf2,c
  4585   006156  2A12               	incf	uint_to_str@i^0,f,c
  4586   006158                     
  4587                           ;oled.c: 121:         num /= 10;
  4588   006158  C008  F001         	movff	uint_to_str@num,___lwdiv@dividend
  4589   00615C  C009  F002         	movff	uint_to_str@num+1,___lwdiv@dividend+1
  4590   006160  6A04               	clrf	(___lwdiv@divisor+1)^0,c
  4591   006162  0E0A               	movlw	10
  4592   006164  6E03               	movwf	___lwdiv@divisor^0,c
  4593   006166  ECEB  F02E         	call	___lwdiv	;wreg free
  4594   00616A  C001  F008         	movff	?___lwdiv,uint_to_str@num
  4595   00616E  C002  F009         	movff	?___lwdiv+1,uint_to_str@num+1
  4596   006172                     l2862:
  4597                           
  4598                           ;oled.c: 119:     while (num > 0) {
  4599   006172  5008               	movf	uint_to_str@num^0,w,c
  4600   006174  1009               	iorwf	(uint_to_str@num+1)^0,w,c
  4601   006176  A4D8               	btfss	status,2,c
  4602   006178  EFC0  F030         	goto	u2171
  4603   00617C  EFC2  F030         	goto	u2170
  4604   006180                     u2171:
  4605   006180  EF9B  F030         	goto	l2856
  4606   006184                     u2170:
  4607   006184  EFD0  F030         	goto	l2868
  4608   006188                     l2864:
  4609   006188  0612               	decf	uint_to_str@i^0,f,c
  4610   00618A  5012               	movf	uint_to_str@i^0,w,c
  4611   00618C  0F0B               	addlw	low uint_to_str@tmp
  4612   00618E  6ED9               	movwf	fsr2l,c
  4613   006190  6ADA               	clrf	fsr2h,c
  4614   006192  500A               	movf	uint_to_str@buf^0,w,c
  4615   006194  2411               	addwf	uint_to_str@j^0,w,c
  4616   006196  6EE1               	movwf	fsr1l,c
  4617   006198  6AE2               	clrf	fsr1h,c
  4618   00619A  CFDF FFE7          	movff	indf2,indf1
  4619   00619E  2A11               	incf	uint_to_str@j^0,f,c
  4620   0061A0                     l2868:
  4621   0061A0  5012               	movf	uint_to_str@i^0,w,c
  4622   0061A2  A4D8               	btfss	status,2,c
  4623   0061A4  EFD6  F030         	goto	u2181
  4624   0061A8  EFD8  F030         	goto	u2180
  4625   0061AC                     u2181:
  4626   0061AC  EFC4  F030         	goto	l2864
  4627   0061B0                     u2180:
  4628   0061B0                     
  4629                           ;oled.c: 125:     buf[j] = '\0';
  4630   0061B0  500A               	movf	uint_to_str@buf^0,w,c
  4631   0061B2  2411               	addwf	uint_to_str@j^0,w,c
  4632   0061B4  6ED9               	movwf	fsr2l,c
  4633   0061B6  6ADA               	clrf	fsr2h,c
  4634   0061B8  6ADF               	clrf	indf2,c
  4635   0061BA                     l47:
  4636   0061BA  0012               	return		;funcret
  4637   0061BC                     __end_of_uint_to_str:
  4638                           	callstack 0
  4639                           
  4640 ;; *************** function ___lwmod *****************
  4641 ;; Defined at:
  4642 ;;		line 7 in file "C:\Program Files\Microchip\xc8\v3.10\pic\sources\c99\common\lwmod.c"
  4643 ;; Parameters:    Size  Location     Type
  4644 ;;  dividend        2    0[COMRAM] unsigned int 
  4645 ;;  divisor         2    2[COMRAM] unsigned int 
  4646 ;; Auto vars:     Size  Location     Type
  4647 ;;  counter         1    4[COMRAM] unsigned char 
  4648 ;; Return value:  Size  Location     Type
  4649 ;;                  2    0[COMRAM] unsigned int 
  4650 ;; Registers used:
  4651 ;;		wreg, status,2, status,0
  4652 ;; Tracked objects:
  4653 ;;		On entry : 0/0
  4654 ;;		On exit  : 0/0
  4655 ;;		Unchanged: 0/0
  4656 ;; Data sizes:     COMRAM   BANK0   BANK1   BANK2   BANK3   BANK4   BANK5   BANK6   BANK7
  4657 ;;      Params:         4       0       0       0       0       0       0       0       0
  4658 ;;      Locals:         1       0       0       0       0       0       0       0       0
  4659 ;;      Temps:          0       0       0       0       0       0       0       0       0
  4660 ;;      Totals:         5       0       0       0       0       0       0       0       0
  4661 ;;Total ram usage:        5 bytes
  4662 ;; Hardware stack levels used: 1
  4663 ;; This function calls:
  4664 ;;		Nothing
  4665 ;; This function is called by:
  4666 ;;		_uint_to_str
  4667 ;; This function uses a non-reentrant model
  4668 ;;
  4669                           
  4670                           	psect	text9
  4671   005D72                     __ptext9:
  4672                           	callstack 0
  4673   005D72                     ___lwmod:
  4674                           	callstack 28
  4675   005D72  5003               	movf	___lwmod@divisor^0,w,c
  4676   005D74  1004               	iorwf	(___lwmod@divisor+1)^0,w,c
  4677   005D76  B4D8               	btfsc	status,2,c
  4678   005D78  EFC0  F02E         	goto	u2131
  4679   005D7C  EFC2  F02E         	goto	u2130
  4680   005D80                     u2131:
  4681   005D80  EFE6  F02E         	goto	l934
  4682   005D84                     u2130:
  4683   005D84  0E01               	movlw	1
  4684   005D86  6E05               	movwf	___lwmod@counter^0,c
  4685   005D88  EFCA  F02E         	goto	l2836
  4686   005D8C                     l2834:
  4687   005D8C  90D8               	bcf	status,0,c
  4688   005D8E  3603               	rlcf	___lwmod@divisor^0,f,c
  4689   005D90  3604               	rlcf	(___lwmod@divisor+1)^0,f,c
  4690   005D92  2A05               	incf	___lwmod@counter^0,f,c
  4691   005D94                     l2836:
  4692   005D94  AE04               	btfss	(___lwmod@divisor+1)^0,7,c
  4693   005D96  EFCF  F02E         	goto	u2141
  4694   005D9A  EFD1  F02E         	goto	u2140
  4695   005D9E                     u2141:
  4696   005D9E  EFC6  F02E         	goto	l2834
  4697   005DA2                     u2140:
  4698   005DA2                     l2838:
  4699   005DA2  5003               	movf	___lwmod@divisor^0,w,c
  4700   005DA4  5C01               	subwf	___lwmod@dividend^0,w,c
  4701   005DA6  5004               	movf	(___lwmod@divisor+1)^0,w,c
  4702   005DA8  5802               	subwfb	(___lwmod@dividend+1)^0,w,c
  4703   005DAA  A0D8               	btfss	status,0,c
  4704   005DAC  EFDA  F02E         	goto	u2151
  4705   005DB0  EFDC  F02E         	goto	u2150
  4706   005DB4                     u2151:
  4707   005DB4  EFE0  F02E         	goto	l2842
  4708   005DB8                     u2150:
  4709   005DB8  5003               	movf	___lwmod@divisor^0,w,c
  4710   005DBA  5E01               	subwf	___lwmod@dividend^0,f,c
  4711   005DBC  5004               	movf	(___lwmod@divisor+1)^0,w,c
  4712   005DBE  5A02               	subwfb	(___lwmod@dividend+1)^0,f,c
  4713   005DC0                     l2842:
  4714   005DC0  90D8               	bcf	status,0,c
  4715   005DC2  3204               	rrcf	(___lwmod@divisor+1)^0,f,c
  4716   005DC4  3203               	rrcf	___lwmod@divisor^0,f,c
  4717   005DC6  2E05               	decfsz	___lwmod@counter^0,f,c
  4718   005DC8  EFD1  F02E         	goto	l2838
  4719   005DCC                     l934:
  4720   005DCC  C001  F001         	movff	___lwmod@dividend,?___lwmod
  4721   005DD0  C002  F002         	movff	___lwmod@dividend+1,?___lwmod+1
  4722   005DD4  0012               	return		;funcret
  4723   005DD6                     __end_of___lwmod:
  4724                           	callstack 0
  4725                           
  4726 ;; *************** function ___lwdiv *****************
  4727 ;; Defined at:
  4728 ;;		line 7 in file "C:\Program Files\Microchip\xc8\v3.10\pic\sources\c99\common\lwdiv.c"
  4729 ;; Parameters:    Size  Location     Type
  4730 ;;  dividend        2    0[COMRAM] unsigned int 
  4731 ;;  divisor         2    2[COMRAM] unsigned int 
  4732 ;; Auto vars:     Size  Location     Type
  4733 ;;  quotient        2    4[COMRAM] unsigned int 
  4734 ;;  counter         1    6[COMRAM] unsigned char 
  4735 ;; Return value:  Size  Location     Type
  4736 ;;                  2    0[COMRAM] unsigned int 
  4737 ;; Registers used:
  4738 ;;		wreg, status,2, status,0
  4739 ;; Tracked objects:
  4740 ;;		On entry : 0/0
  4741 ;;		On exit  : 0/0
  4742 ;;		Unchanged: 0/0
  4743 ;; Data sizes:     COMRAM   BANK0   BANK1   BANK2   BANK3   BANK4   BANK5   BANK6   BANK7
  4744 ;;      Params:         4       0       0       0       0       0       0       0       0
  4745 ;;      Locals:         3       0       0       0       0       0       0       0       0
  4746 ;;      Temps:          0       0       0       0       0       0       0       0       0
  4747 ;;      Totals:         7       0       0       0       0       0       0       0       0
  4748 ;;Total ram usage:        7 bytes
  4749 ;; Hardware stack levels used: 1
  4750 ;; This function calls:
  4751 ;;		Nothing
  4752 ;; This function is called by:
  4753 ;;		_uint_to_str
  4754 ;; This function uses a non-reentrant model
  4755 ;;
  4756                           
  4757                           	psect	text10
  4758   005DD6                     __ptext10:
  4759                           	callstack 0
  4760   005DD6                     ___lwdiv:
  4761                           	callstack 28
  4762   005DD6  6A06               	clrf	(___lwdiv@quotient+1)^0,c
  4763   005DD8  0E00               	movlw	0
  4764   005DDA  6E05               	movwf	___lwdiv@quotient^0,c
  4765   005DDC  5003               	movf	___lwdiv@divisor^0,w,c
  4766   005DDE  1004               	iorwf	(___lwdiv@divisor+1)^0,w,c
  4767   005DE0  B4D8               	btfsc	status,2,c
  4768   005DE2  EFF5  F02E         	goto	u2101
  4769   005DE6  EFF7  F02E         	goto	u2100
  4770   005DEA                     u2101:
  4771   005DEA  EF1F  F02F         	goto	l924
  4772   005DEE                     u2100:
  4773   005DEE  0E01               	movlw	1
  4774   005DF0  6E07               	movwf	___lwdiv@counter^0,c
  4775   005DF2  EFFF  F02E         	goto	l2816
  4776   005DF6                     l2814:
  4777   005DF6  90D8               	bcf	status,0,c
  4778   005DF8  3603               	rlcf	___lwdiv@divisor^0,f,c
  4779   005DFA  3604               	rlcf	(___lwdiv@divisor+1)^0,f,c
  4780   005DFC  2A07               	incf	___lwdiv@counter^0,f,c
  4781   005DFE                     l2816:
  4782   005DFE  AE04               	btfss	(___lwdiv@divisor+1)^0,7,c
  4783   005E00  EF04  F02F         	goto	u2111
  4784   005E04  EF06  F02F         	goto	u2110
  4785   005E08                     u2111:
  4786   005E08  EFFB  F02E         	goto	l2814
  4787   005E0C                     u2110:
  4788   005E0C                     l2818:
  4789   005E0C  90D8               	bcf	status,0,c
  4790   005E0E  3605               	rlcf	___lwdiv@quotient^0,f,c
  4791   005E10  3606               	rlcf	(___lwdiv@quotient+1)^0,f,c
  4792   005E12  5003               	movf	___lwdiv@divisor^0,w,c
  4793   005E14  5C01               	subwf	___lwdiv@dividend^0,w,c
  4794   005E16  5004               	movf	(___lwdiv@divisor+1)^0,w,c
  4795   005E18  5802               	subwfb	(___lwdiv@dividend+1)^0,w,c
  4796   005E1A  A0D8               	btfss	status,0,c
  4797   005E1C  EF12  F02F         	goto	u2121
  4798   005E20  EF14  F02F         	goto	u2120
  4799   005E24                     u2121:
  4800   005E24  EF19  F02F         	goto	l2826
  4801   005E28                     u2120:
  4802   005E28  5003               	movf	___lwdiv@divisor^0,w,c
  4803   005E2A  5E01               	subwf	___lwdiv@dividend^0,f,c
  4804   005E2C  5004               	movf	(___lwdiv@divisor+1)^0,w,c
  4805   005E2E  5A02               	subwfb	(___lwdiv@dividend+1)^0,f,c
  4806   005E30  8005               	bsf	___lwdiv@quotient^0,0,c
  4807   005E32                     l2826:
  4808   005E32  90D8               	bcf	status,0,c
  4809   005E34  3204               	rrcf	(___lwdiv@divisor+1)^0,f,c
  4810   005E36  3203               	rrcf	___lwdiv@divisor^0,f,c
  4811   005E38  2E07               	decfsz	___lwdiv@counter^0,f,c
  4812   005E3A  EF06  F02F         	goto	l2818
  4813   005E3E                     l924:
  4814   005E3E  C005  F001         	movff	___lwdiv@quotient,?___lwdiv
  4815   005E42  C006  F002         	movff	___lwdiv@quotient+1,?___lwdiv+1
  4816   005E46  0012               	return		;funcret
  4817   005E48                     __end_of___lwdiv:
  4818                           	callstack 0
  4819                           
  4820 ;; *************** function _OLED_ClearLine *****************
  4821 ;; Defined at:
  4822 ;;		line 280 in file "oled.c"
  4823 ;; Parameters:    Size  Location     Type
  4824 ;;  linea           1    wreg     unsigned char 
  4825 ;; Auto vars:     Size  Location     Type
  4826 ;;  linea           1    4[COMRAM] unsigned char 
  4827 ;;  i               1    5[COMRAM] unsigned char 
  4828 ;; Return value:  Size  Location     Type
  4829 ;;                  1    wreg      void 
  4830 ;; Registers used:
  4831 ;;		wreg, status,2, status,0, cstack
  4832 ;; Tracked objects:
  4833 ;;		On entry : 0/0
  4834 ;;		On exit  : 0/0
  4835 ;;		Unchanged: 0/0
  4836 ;; Data sizes:     COMRAM   BANK0   BANK1   BANK2   BANK3   BANK4   BANK5   BANK6   BANK7
  4837 ;;      Params:         0       0       0       0       0       0       0       0       0
  4838 ;;      Locals:         2       0       0       0       0       0       0       0       0
  4839 ;;      Temps:          0       0       0       0       0       0       0       0       0
  4840 ;;      Totals:         2       0       0       0       0       0       0       0       0
  4841 ;;Total ram usage:        2 bytes
  4842 ;; Hardware stack levels used: 1
  4843 ;; Hardware stack levels required when called: 1
  4844 ;; This function calls:
  4845 ;;		_I2C_Start
  4846 ;;		_I2C_Stop
  4847 ;;		_I2C_Write
  4848 ;;		_OLED_Command
  4849 ;; This function is called by:
  4850 ;;		_OLED_Vitals
  4851 ;; This function uses a non-reentrant model
  4852 ;;
  4853                           
  4854                           	psect	text11
  4855   005AEA                     __ptext11:
  4856                           	callstack 0
  4857   005AEA                     _OLED_ClearLine:
  4858                           	callstack 28
  4859                           
  4860                           ;incstack = 0
  4861                           ;OLED_ClearLine@linea stored from wreg
  4862   005AEA  6E05               	movwf	OLED_ClearLine@linea^0,c
  4863   005AEC                     
  4864                           ;oled.c: 280: void OLED_ClearLine(unsigned char linea);oled.c: 281: {;oled.c: 282:     u
      +                          nsigned char i;;oled.c: 284:     OLED_Command(0xB0 + linea);
  4865   005AEC  5005               	movf	OLED_ClearLine@linea^0,w,c
  4866   005AEE  0FB0               	addlw	176
  4867   005AF0  EC43  F02C         	call	_OLED_Command
  4868                           
  4869                           ;oled.c: 285:     OLED_Command(0x02);
  4870   005AF4  0E02               	movlw	2
  4871   005AF6  EC43  F02C         	call	_OLED_Command
  4872                           
  4873                           ;oled.c: 286:     OLED_Command(0x10);
  4874   005AFA  0E10               	movlw	16
  4875   005AFC  EC43  F02C         	call	_OLED_Command
  4876   005B00                     
  4877                           ;oled.c: 288:     I2C_Start();
  4878   005B00  ECCF  F02C         	call	_I2C_Start	;wreg free
  4879   005B04                     
  4880                           ;oled.c: 289:     I2C_Write(0x78);
  4881   005B04  0E78               	movlw	120
  4882   005B06  EC60  F02F         	call	_I2C_Write
  4883   005B0A                     
  4884                           ;oled.c: 290:     I2C_Write(0x40);
  4885   005B0A  0E40               	movlw	64
  4886   005B0C  EC60  F02F         	call	_I2C_Write
  4887   005B10                     
  4888                           ;oled.c: 291:     for (i = 0; i < 128; i++) I2C_Write(0x00);
  4889   005B10  6A06               	clrf	OLED_ClearLine@i^0,c
  4890   005B12                     l2918:
  4891   005B12  0E00               	movlw	0
  4892   005B14  EC60  F02F         	call	_I2C_Write
  4893   005B18  2A06               	incf	OLED_ClearLine@i^0,f,c
  4894   005B1A  0E7F               	movlw	127
  4895   005B1C  6406               	cpfsgt	OLED_ClearLine@i^0,c
  4896   005B1E  EF93  F02D         	goto	u2211
  4897   005B22  EF95  F02D         	goto	u2210
  4898   005B26                     u2211:
  4899   005B26  EF89  F02D         	goto	l2918
  4900   005B2A                     u2210:
  4901   005B2A                     
  4902                           ;oled.c: 292:     I2C_Stop();
  4903   005B2A  EC63  F02C         	call	_I2C_Stop	;wreg free
  4904   005B2E  0012               	return		;funcret
  4905   005B30                     __end_of_OLED_ClearLine:
  4906                           	callstack 0
  4907                           
  4908 ;; *************** function _OLED_Splash *****************
  4909 ;; Defined at:
  4910 ;;		line 407 in file "oled.c"
  4911 ;; Parameters:    Size  Location     Type
  4912 ;;		None
  4913 ;; Auto vars:     Size  Location     Type
  4914 ;;		None
  4915 ;; Return value:  Size  Location     Type
  4916 ;;                  1    wreg      void 
  4917 ;; Registers used:
  4918 ;;		wreg, fsr1l, fsr1h, status,2, status,0, tblptrl, tblptrh, tblptru, prodl, prodh, cstack
  4919 ;; Tracked objects:
  4920 ;;		On entry : 0/0
  4921 ;;		On exit  : 0/0
  4922 ;;		Unchanged: 0/0
  4923 ;; Data sizes:     COMRAM   BANK0   BANK1   BANK2   BANK3   BANK4   BANK5   BANK6   BANK7
  4924 ;;      Params:         0       0       0       0       0       0       0       0       0
  4925 ;;      Locals:         0       0       0       0       0       0       0       0       0
  4926 ;;      Temps:          0       0       0       0       0       0       0       0       0
  4927 ;;      Totals:         0       0       0       0       0       0       0       0       0
  4928 ;;Total ram usage:        0 bytes
  4929 ;; Hardware stack levels used: 1
  4930 ;; Hardware stack levels required when called: 1
  4931 ;; This function calls:
  4932 ;;		_OLED_Clear
  4933 ;;		_OLED_SetCursor
  4934 ;;		_OLED_WriteString
  4935 ;; This function is called by:
  4936 ;;		_main
  4937 ;; This function uses a non-reentrant model
  4938 ;;
  4939                           
  4940                           	psect	text12
  4941   005D14                     __ptext12:
  4942                           	callstack 0
  4943   005D14                     _OLED_Splash:
  4944                           	callstack 29
  4945   005D14                     
  4946                           ;oled.c: 409:     OLED_Clear();
  4947   005D14  EC2F  F02E         	call	_OLED_Clear	;wreg free
  4948                           
  4949                           ;oled.c: 411:     OLED_SetCursor(4, 0);
  4950   005D18  0E00               	movlw	0
  4951   005D1A  6E05               	movwf	OLED_SetCursor@page^0,c
  4952   005D1C  0E04               	movlw	4
  4953   005D1E  EC74  F02C         	call	_OLED_SetCursor
  4954   005D22                     
  4955                           ;oled.c: 412:     OLED_WriteString("SIGNOS VITALES");
  4956   005D22  0E67               	movlw	low STR_1
  4957   005D24  6E0C               	movwf	OLED_WriteString@str^0,c
  4958   005D26  0E7F               	movlw	high STR_1
  4959   005D28  6E0D               	movwf	(OLED_WriteString@str+1)^0,c
  4960   005D2A  EC5B  F02E         	call	_OLED_WriteString	;wreg free
  4961   005D2E                     
  4962                           ;oled.c: 414:     OLED_SetCursor(16, 2);
  4963   005D2E  0E02               	movlw	2
  4964   005D30  6E05               	movwf	OLED_SetCursor@page^0,c
  4965   005D32  0E10               	movlw	16
  4966   005D34  EC74  F02C         	call	_OLED_SetCursor
  4967                           
  4968                           ;oled.c: 415:     OLED_WriteString("PIC18F4550");
  4969   005D38  0E9F               	movlw	low STR_2
  4970   005D3A  6E0C               	movwf	OLED_WriteString@str^0,c
  4971   005D3C  0E7F               	movlw	high STR_2
  4972   005D3E  6E0D               	movwf	(OLED_WriteString@str+1)^0,c
  4973   005D40  EC5B  F02E         	call	_OLED_WriteString	;wreg free
  4974   005D44                     
  4975                           ;oled.c: 417:     OLED_SetCursor(16, 4);
  4976   005D44  0E04               	movlw	4
  4977   005D46  6E05               	movwf	OLED_SetCursor@page^0,c
  4978   005D48  0E10               	movlw	16
  4979   005D4A  EC74  F02C         	call	_OLED_SetCursor
  4980   005D4E                     
  4981                           ;oled.c: 418:     OLED_WriteString("I2C Y UART");
  4982   005D4E  0EAA               	movlw	low STR_3
  4983   005D50  6E0C               	movwf	OLED_WriteString@str^0,c
  4984   005D52  0E7F               	movlw	high STR_3
  4985   005D54  6E0D               	movwf	(OLED_WriteString@str+1)^0,c
  4986   005D56  EC5B  F02E         	call	_OLED_WriteString	;wreg free
  4987                           
  4988                           ;oled.c: 420:     OLED_SetCursor(10, 6);
  4989   005D5A  0E06               	movlw	6
  4990   005D5C  6E05               	movwf	OLED_SetCursor@page^0,c
  4991   005D5E  0E0A               	movlw	10
  4992   005D60  EC74  F02C         	call	_OLED_SetCursor
  4993   005D64                     
  4994                           ;oled.c: 421:     OLED_WriteString("INICIANDO...");
  4995   005D64  0E92               	movlw	low STR_4
  4996   005D66  6E0C               	movwf	OLED_WriteString@str^0,c
  4997   005D68  0E7F               	movlw	high STR_4
  4998   005D6A  6E0D               	movwf	(OLED_WriteString@str+1)^0,c
  4999   005D6C  EC5B  F02E         	call	_OLED_WriteString	;wreg free
  5000   005D70  0012               	return		;funcret
  5001   005D72                     __end_of_OLED_Splash:
  5002                           	callstack 0
  5003                           
  5004 ;; *************** function _OLED_Paused *****************
  5005 ;; Defined at:
  5006 ;;		line 492 in file "oled.c"
  5007 ;; Parameters:    Size  Location     Type
  5008 ;;		None
  5009 ;; Auto vars:     Size  Location     Type
  5010 ;;		None
  5011 ;; Return value:  Size  Location     Type
  5012 ;;                  1    wreg      void 
  5013 ;; Registers used:
  5014 ;;		wreg, fsr1l, fsr1h, status,2, status,0, tblptrl, tblptrh, tblptru, prodl, prodh, cstack
  5015 ;; Tracked objects:
  5016 ;;		On entry : 0/0
  5017 ;;		On exit  : 0/0
  5018 ;;		Unchanged: 0/0
  5019 ;; Data sizes:     COMRAM   BANK0   BANK1   BANK2   BANK3   BANK4   BANK5   BANK6   BANK7
  5020 ;;      Params:         0       0       0       0       0       0       0       0       0
  5021 ;;      Locals:         0       0       0       0       0       0       0       0       0
  5022 ;;      Temps:          0       0       0       0       0       0       0       0       0
  5023 ;;      Totals:         0       0       0       0       0       0       0       0       0
  5024 ;;Total ram usage:        0 bytes
  5025 ;; Hardware stack levels used: 1
  5026 ;; Hardware stack levels required when called: 1
  5027 ;; This function calls:
  5028 ;;		_OLED_Clear
  5029 ;;		_OLED_SetCursor
  5030 ;;		_OLED_WriteString
  5031 ;; This function is called by:
  5032 ;;		_main
  5033 ;; This function uses a non-reentrant model
  5034 ;;
  5035                           
  5036                           	psect	text13
  5037   005BBE                     __ptext13:
  5038                           	callstack 0
  5039   005BBE                     _OLED_Paused:
  5040                           	callstack 29
  5041   005BBE                     
  5042                           ;oled.c: 494:     OLED_Clear();
  5043   005BBE  EC2F  F02E         	call	_OLED_Clear	;wreg free
  5044                           
  5045                           ;oled.c: 496:     OLED_SetCursor(28, 2);
  5046   005BC2  0E02               	movlw	2
  5047   005BC4  6E05               	movwf	OLED_SetCursor@page^0,c
  5048   005BC6  0E1C               	movlw	28
  5049   005BC8  EC74  F02C         	call	_OLED_SetCursor
  5050   005BCC                     
  5051                           ;oled.c: 497:     OLED_WriteString("SISTEMA");
  5052   005BCC  0ED8               	movlw	low STR_12
  5053   005BCE  6E0C               	movwf	OLED_WriteString@str^0,c
  5054   005BD0  0E7F               	movlw	high STR_12
  5055   005BD2  6E0D               	movwf	(OLED_WriteString@str+1)^0,c
  5056   005BD4  EC5B  F02E         	call	_OLED_WriteString	;wreg free
  5057   005BD8                     
  5058                           ;oled.c: 499:     OLED_SetCursor(22, 4);
  5059   005BD8  0E04               	movlw	4
  5060   005BDA  6E05               	movwf	OLED_SetCursor@page^0,c
  5061   005BDC  0E16               	movlw	22
  5062   005BDE  EC74  F02C         	call	_OLED_SetCursor
  5063                           
  5064                           ;oled.c: 500:     OLED_WriteString("EN PAUSA");
  5065   005BE2  0EBE               	movlw	low STR_13
  5066   005BE4  6E0C               	movwf	OLED_WriteString@str^0,c
  5067   005BE6  0E7F               	movlw	high STR_13
  5068   005BE8  6E0D               	movwf	(OLED_WriteString@str+1)^0,c
  5069   005BEA  EC5B  F02E         	call	_OLED_WriteString	;wreg free
  5070   005BEE                     
  5071                           ;oled.c: 502:     OLED_SetCursor(4, 6);
  5072   005BEE  0E06               	movlw	6
  5073   005BF0  6E05               	movwf	OLED_SetCursor@page^0,c
  5074   005BF2  0E04               	movlw	4
  5075   005BF4  EC74  F02C         	call	_OLED_SetCursor
  5076   005BF8                     
  5077                           ;oled.c: 503:     OLED_WriteString("BTN: REANUDAR");
  5078   005BF8  0E84               	movlw	low STR_14
  5079   005BFA  6E0C               	movwf	OLED_WriteString@str^0,c
  5080   005BFC  0E7F               	movlw	high STR_14
  5081   005BFE  6E0D               	movwf	(OLED_WriteString@str+1)^0,c
  5082   005C00  EC5B  F02E         	call	_OLED_WriteString	;wreg free
  5083   005C04  0012               	return		;funcret
  5084   005C06                     __end_of_OLED_Paused:
  5085                           	callstack 0
  5086                           
  5087 ;; *************** function _OLED_Init *****************
  5088 ;; Defined at:
  5089 ;;		line 181 in file "oled.c"
  5090 ;; Parameters:    Size  Location     Type
  5091 ;;		None
  5092 ;; Auto vars:     Size  Location     Type
  5093 ;;		None
  5094 ;; Return value:  Size  Location     Type
  5095 ;;                  1    wreg      void 
  5096 ;; Registers used:
  5097 ;;		wreg, status,2, status,0, cstack
  5098 ;; Tracked objects:
  5099 ;;		On entry : 0/0
  5100 ;;		On exit  : 0/0
  5101 ;;		Unchanged: 0/0
  5102 ;; Data sizes:     COMRAM   BANK0   BANK1   BANK2   BANK3   BANK4   BANK5   BANK6   BANK7
  5103 ;;      Params:         0       0       0       0       0       0       0       0       0
  5104 ;;      Locals:         0       0       0       0       0       0       0       0       0
  5105 ;;      Temps:          2       0       0       0       0       0       0       0       0
  5106 ;;      Totals:         2       0       0       0       0       0       0       0       0
  5107 ;;Total ram usage:        2 bytes
  5108 ;; Hardware stack levels used: 1
  5109 ;; Hardware stack levels required when called: 1
  5110 ;; This function calls:
  5111 ;;		_OLED_Command
  5112 ;; This function is called by:
  5113 ;;		_main
  5114 ;; This function uses a non-reentrant model
  5115 ;;
  5116                           
  5117                           	psect	text14
  5118   00627E                     __ptext14:
  5119                           	callstack 0
  5120   00627E                     _OLED_Init:
  5121                           	callstack 29
  5122   00627E                     
  5123                           ;oled.c: 183:     _delay((unsigned long)((200)*(8000000/4000.0)));
  5124   00627E  0E03               	movlw	3
  5125   006280  6E06               	movwf	(??_OLED_Init+1)^0,c
  5126   006282  0E08               	movlw	8
  5127   006284  6E05               	movwf	??_OLED_Init^0,c
  5128   006286  0E77               	movlw	119
  5129   006288                     u3897:
  5130   006288  2EE8               	decfsz	wreg,f,c
  5131   00628A  D7FE               	bra	u3897
  5132   00628C  2E05               	decfsz	??_OLED_Init^0,f,c
  5133   00628E  D7FC               	bra	u3897
  5134   006290  2E06               	decfsz	(??_OLED_Init+1)^0,f,c
  5135   006292  D7FA               	bra	u3897
  5136   006294  0000               	nop	
  5137   006296                     
  5138                           ;oled.c: 185:     OLED_Command(0xAE);
  5139   006296  0EAE               	movlw	174
  5140   006298  EC43  F02C         	call	_OLED_Command
  5141   00629C                     
  5142                           ;oled.c: 187:     OLED_Command(0xD5);
  5143   00629C  0ED5               	movlw	213
  5144   00629E  EC43  F02C         	call	_OLED_Command
  5145   0062A2                     
  5146                           ;oled.c: 188:     OLED_Command(0xF0);
  5147   0062A2  0EF0               	movlw	240
  5148   0062A4  EC43  F02C         	call	_OLED_Command
  5149   0062A8                     
  5150                           ;oled.c: 190:     OLED_Command(0xA8);
  5151   0062A8  0EA8               	movlw	168
  5152   0062AA  EC43  F02C         	call	_OLED_Command
  5153   0062AE                     
  5154                           ;oled.c: 191:     OLED_Command(0x3F);
  5155   0062AE  0E3F               	movlw	63
  5156   0062B0  EC43  F02C         	call	_OLED_Command
  5157   0062B4                     
  5158                           ;oled.c: 193:     OLED_Command(0xD3);
  5159   0062B4  0ED3               	movlw	211
  5160   0062B6  EC43  F02C         	call	_OLED_Command
  5161   0062BA                     
  5162                           ;oled.c: 194:     OLED_Command(0x00);
  5163   0062BA  0E00               	movlw	0
  5164   0062BC  EC43  F02C         	call	_OLED_Command
  5165   0062C0                     
  5166                           ;oled.c: 196:     OLED_Command(0x40);
  5167   0062C0  0E40               	movlw	64
  5168   0062C2  EC43  F02C         	call	_OLED_Command
  5169   0062C6                     
  5170                           ;oled.c: 198:     OLED_Command(0x8D);
  5171   0062C6  0E8D               	movlw	141
  5172   0062C8  EC43  F02C         	call	_OLED_Command
  5173   0062CC                     
  5174                           ;oled.c: 199:     OLED_Command(0x14);
  5175   0062CC  0E14               	movlw	20
  5176   0062CE  EC43  F02C         	call	_OLED_Command
  5177   0062D2                     
  5178                           ;oled.c: 201:     OLED_Command(0x20);
  5179   0062D2  0E20               	movlw	32
  5180   0062D4  EC43  F02C         	call	_OLED_Command
  5181   0062D8                     
  5182                           ;oled.c: 202:     OLED_Command(0x02);
  5183   0062D8  0E02               	movlw	2
  5184   0062DA  EC43  F02C         	call	_OLED_Command
  5185   0062DE                     
  5186                           ;oled.c: 204:     OLED_Command(0xA1);
  5187   0062DE  0EA1               	movlw	161
  5188   0062E0  EC43  F02C         	call	_OLED_Command
  5189   0062E4                     
  5190                           ;oled.c: 207:     OLED_Command(0xC8);
  5191   0062E4  0EC8               	movlw	200
  5192   0062E6  EC43  F02C         	call	_OLED_Command
  5193   0062EA                     
  5194                           ;oled.c: 210:     OLED_Command(0xDA);
  5195   0062EA  0EDA               	movlw	218
  5196   0062EC  EC43  F02C         	call	_OLED_Command
  5197   0062F0                     
  5198                           ;oled.c: 211:     OLED_Command(0x12);
  5199   0062F0  0E12               	movlw	18
  5200   0062F2  EC43  F02C         	call	_OLED_Command
  5201   0062F6                     
  5202                           ;oled.c: 213:     OLED_Command(0x81);
  5203   0062F6  0E81               	movlw	129
  5204   0062F8  EC43  F02C         	call	_OLED_Command
  5205   0062FC                     
  5206                           ;oled.c: 214:     OLED_Command(0xFF);
  5207   0062FC  0EFF               	movlw	255
  5208   0062FE  EC43  F02C         	call	_OLED_Command
  5209   006302                     
  5210                           ;oled.c: 216:     OLED_Command(0xD9);
  5211   006302  0ED9               	movlw	217
  5212   006304  EC43  F02C         	call	_OLED_Command
  5213   006308                     
  5214                           ;oled.c: 217:     OLED_Command(0xF1);
  5215   006308  0EF1               	movlw	241
  5216   00630A  EC43  F02C         	call	_OLED_Command
  5217   00630E                     
  5218                           ;oled.c: 219:     OLED_Command(0xDB);
  5219   00630E  0EDB               	movlw	219
  5220   006310  EC43  F02C         	call	_OLED_Command
  5221   006314                     
  5222                           ;oled.c: 220:     OLED_Command(0x40);
  5223   006314  0E40               	movlw	64
  5224   006316  EC43  F02C         	call	_OLED_Command
  5225   00631A                     
  5226                           ;oled.c: 222:     OLED_Command(0xA4);
  5227   00631A  0EA4               	movlw	164
  5228   00631C  EC43  F02C         	call	_OLED_Command
  5229   006320                     
  5230                           ;oled.c: 225:     OLED_Command(0xA6);
  5231   006320  0EA6               	movlw	166
  5232   006322  EC43  F02C         	call	_OLED_Command
  5233   006326                     
  5234                           ;oled.c: 228:     OLED_Command(0xAF);
  5235   006326  0EAF               	movlw	175
  5236   006328  EC43  F02C         	call	_OLED_Command
  5237   00632C                     
  5238                           ;oled.c: 230:     _delay((unsigned long)((100)*(8000000/4000.0)));
  5239   00632C  0E02               	movlw	2
  5240   00632E  6E06               	movwf	(??_OLED_Init+1)^0,c
  5241   006330  0E04               	movlw	4
  5242   006332  6E05               	movwf	??_OLED_Init^0,c
  5243   006334  0EBA               	movlw	186
  5244   006336                     u3907:
  5245   006336  2EE8               	decfsz	wreg,f,c
  5246   006338  D7FE               	bra	u3907
  5247   00633A  2E05               	decfsz	??_OLED_Init^0,f,c
  5248   00633C  D7FC               	bra	u3907
  5249   00633E  2E06               	decfsz	(??_OLED_Init+1)^0,f,c
  5250   006340  D7FA               	bra	u3907
  5251   006342  D000               	nop2	
  5252   006344  0012               	return		;funcret
  5253   006346                     __end_of_OLED_Init:
  5254                           	callstack 0
  5255                           
  5256 ;; *************** function _OLED_Error *****************
  5257 ;; Defined at:
  5258 ;;		line 516 in file "oled.c"
  5259 ;; Parameters:    Size  Location     Type
  5260 ;;  msg             2   13[COMRAM] PTR unsigned char 
  5261 ;;		 -> STR_18(8), STR_17(9), 
  5262 ;; Auto vars:     Size  Location     Type
  5263 ;;		None
  5264 ;; Return value:  Size  Location     Type
  5265 ;;                  1    wreg      void 
  5266 ;; Registers used:
  5267 ;;		wreg, fsr1l, fsr1h, status,2, status,0, tblptrl, tblptrh, tblptru, prodl, prodh, cstack
  5268 ;; Tracked objects:
  5269 ;;		On entry : 0/0
  5270 ;;		On exit  : 0/0
  5271 ;;		Unchanged: 0/0
  5272 ;; Data sizes:     COMRAM   BANK0   BANK1   BANK2   BANK3   BANK4   BANK5   BANK6   BANK7
  5273 ;;      Params:         2       0       0       0       0       0       0       0       0
  5274 ;;      Locals:         0       0       0       0       0       0       0       0       0
  5275 ;;      Temps:          0       0       0       0       0       0       0       0       0
  5276 ;;      Totals:         2       0       0       0       0       0       0       0       0
  5277 ;;Total ram usage:        2 bytes
  5278 ;; Hardware stack levels used: 1
  5279 ;; Hardware stack levels required when called: 3
  5280 ;; This function calls:
  5281 ;;		_OLED_Clear
  5282 ;;		_OLED_SetCursor
  5283 ;;		_OLED_WriteString
  5284 ;; This function is called by:
  5285 ;;		_main
  5286 ;; This function uses a non-reentrant model
  5287 ;;
  5288                           
  5289                           	psect	text15
  5290   005B76                     __ptext15:
  5291                           	callstack 0
  5292   005B76                     _OLED_Error:
  5293                           	callstack 27
  5294   005B76                     
  5295                           ;oled.c: 516: void OLED_Error(char *msg);oled.c: 517: {;oled.c: 518:     OLED_Clear();
  5296   005B76  EC2F  F02E         	call	_OLED_Clear	;wreg free
  5297                           
  5298                           ;oled.c: 520:     OLED_SetCursor(40, 0);
  5299   005B7A  0E00               	movlw	0
  5300   005B7C  6E05               	movwf	OLED_SetCursor@page^0,c
  5301   005B7E  0E28               	movlw	40
  5302   005B80  EC74  F02C         	call	_OLED_SetCursor
  5303   005B84                     
  5304                           ;oled.c: 521:     OLED_WriteString("ERROR");
  5305   005B84  0EF5               	movlw	low STR_15
  5306   005B86  6E0C               	movwf	OLED_WriteString@str^0,c
  5307   005B88  0E7F               	movlw	high STR_15
  5308   005B8A  6E0D               	movwf	(OLED_WriteString@str+1)^0,c
  5309   005B8C  EC5B  F02E         	call	_OLED_WriteString	;wreg free
  5310   005B90                     
  5311                           ;oled.c: 523:     OLED_SetCursor(0, 3);
  5312   005B90  0E03               	movlw	3
  5313   005B92  6E05               	movwf	OLED_SetCursor@page^0,c
  5314   005B94  0E00               	movlw	0
  5315   005B96  EC74  F02C         	call	_OLED_SetCursor
  5316                           
  5317                           ;oled.c: 524:     OLED_WriteString(msg);
  5318   005B9A  C00E  F00C         	movff	OLED_Error@msg,OLED_WriteString@str
  5319   005B9E  C00F  F00D         	movff	OLED_Error@msg+1,OLED_WriteString@str+1
  5320   005BA2  EC5B  F02E         	call	_OLED_WriteString	;wreg free
  5321   005BA6                     
  5322                           ;oled.c: 526:     OLED_SetCursor(22, 6);
  5323   005BA6  0E06               	movlw	6
  5324   005BA8  6E05               	movwf	OLED_SetCursor@page^0,c
  5325   005BAA  0E16               	movlw	22
  5326   005BAC  EC74  F02C         	call	_OLED_SetCursor
  5327   005BB0                     
  5328                           ;oled.c: 527:     OLED_WriteString("REINICIE");
  5329   005BB0  0EC7               	movlw	low STR_16
  5330   005BB2  6E0C               	movwf	OLED_WriteString@str^0,c
  5331   005BB4  0E7F               	movlw	high STR_16
  5332   005BB6  6E0D               	movwf	(OLED_WriteString@str+1)^0,c
  5333   005BB8  EC5B  F02E         	call	_OLED_WriteString	;wreg free
  5334   005BBC  0012               	return		;funcret
  5335   005BBE                     __end_of_OLED_Error:
  5336                           	callstack 0
  5337                           
  5338 ;; *************** function _OLED_WriteString *****************
  5339 ;; Defined at:
  5340 ;;		line 380 in file "oled.c"
  5341 ;; Parameters:    Size  Location     Type
  5342 ;;  str             2   11[COMRAM] PTR unsigned char 
  5343 ;;		 -> STR_18(8), STR_17(9), STR_16(9), STR_15(6), 
  5344 ;;		 -> STR_14(14), STR_13(9), STR_12(8), STR_11(7), 
  5345 ;;		 -> STR_10(14), STR_9(7), STR_8(2), OLED_Vitals@buf(6), 
  5346 ;;		 -> STR_7(7), STR_6(16), STR_5(16), STR_4(13), 
  5347 ;;		 -> STR_3(11), STR_2(11), STR_1(15), 
  5348 ;; Auto vars:     Size  Location     Type
  5349 ;;		None
  5350 ;; Return value:  Size  Location     Type
  5351 ;;                  1    wreg      void 
  5352 ;; Registers used:
  5353 ;;		wreg, fsr1l, fsr1h, status,2, status,0, tblptrl, tblptrh, tblptru, prodl, prodh, cstack
  5354 ;; Tracked objects:
  5355 ;;		On entry : 0/0
  5356 ;;		On exit  : 0/0
  5357 ;;		Unchanged: 0/0
  5358 ;; Data sizes:     COMRAM   BANK0   BANK1   BANK2   BANK3   BANK4   BANK5   BANK6   BANK7
  5359 ;;      Params:         2       0       0       0       0       0       0       0       0
  5360 ;;      Locals:         0       0       0       0       0       0       0       0       0
  5361 ;;      Temps:          0       0       0       0       0       0       0       0       0
  5362 ;;      Totals:         2       0       0       0       0       0       0       0       0
  5363 ;;Total ram usage:        2 bytes
  5364 ;; Hardware stack levels used: 1
  5365 ;; This function calls:
  5366 ;;		_OLED_WriteChar
  5367 ;; This function is called by:
  5368 ;;		_OLED_Splash
  5369 ;;		_OLED_Vitals
  5370 ;;		_OLED_Paused
  5371 ;;		_OLED_Error
  5372 ;; This function uses a non-reentrant model
  5373 ;;
  5374                           
  5375                           	psect	text16
  5376   005CB6                     __ptext16:
  5377                           	callstack 0
  5378   005CB6                     _OLED_WriteString:
  5379                           	callstack 29
  5380   005CB6                     
  5381                           ;oled.c: 380: void OLED_WriteString(char *str);oled.c: 381: {;oled.c: 382:     while (*s
      +                          tr)
  5382   005CB6  EF71  F02E         	goto	l2940
  5383   005CBA                     l2936:
  5384                           
  5385                           ;oled.c: 383:     {;oled.c: 384:         OLED_WriteChar(*str);
  5386   005CBA  C00C  FFF6         	movff	OLED_WriteString@str,tblptrl
  5387   005CBE  C00D  FFF7         	movff	OLED_WriteString@str+1,tblptrh
  5388   005CC2  6AF8               	clrf	tblptru,c
  5389   005CC4  0E07               	movlw	(high __ramtop+-1)
  5390   005CC6  64F7               	cpfsgt	tblptrh,c
  5391   005CC8  D003               	bra	u2227
  5392   005CCA  0008               	tblrd		*
  5393   005CCC  50F5               	movf	tablat,w,c
  5394   005CCE  D005               	bra	u2220
  5395   005CD0                     u2227:
  5396   005CD0  CFF6 FFE1          	movff	tblptrl,fsr1l
  5397   005CD4  CFF7 FFE2          	movff	tblptrh,fsr1h
  5398   005CD8  50E7               	movf	indf1,w,c
  5399   005CDA                     u2220:
  5400   005CDA  EC2C  F033         	call	_OLED_WriteChar
  5401   005CDE                     
  5402                           ;oled.c: 385:         str++;
  5403   005CDE  4A0C               	infsnz	OLED_WriteString@str^0,f,c
  5404   005CE0  2A0D               	incf	(OLED_WriteString@str+1)^0,f,c
  5405   005CE2                     l2940:
  5406                           
  5407                           ;oled.c: 382:     while (*str)
  5408   005CE2  C00C  FFF6         	movff	OLED_WriteString@str,tblptrl
  5409   005CE6  C00D  FFF7         	movff	OLED_WriteString@str+1,tblptrh
  5410   005CEA  6AF8               	clrf	tblptru,c
  5411   005CEC  0E07               	movlw	(high __ramtop+-1)
  5412   005CEE  64F7               	cpfsgt	tblptrh,c
  5413   005CF0  D003               	bra	u2237
  5414   005CF2  0008               	tblrd		*
  5415   005CF4  50F5               	movf	tablat,w,c
  5416   005CF6  D005               	bra	u2230
  5417   005CF8                     u2237:
  5418   005CF8  CFF6 FFE1          	movff	tblptrl,fsr1l
  5419   005CFC  CFF7 FFE2          	movff	tblptrh,fsr1h
  5420   005D00  50E7               	movf	indf1,w,c
  5421   005D02                     u2230:
  5422   005D02  0900               	iorlw	0
  5423   005D04  A4D8               	btfss	status,2,c
  5424   005D06  EF87  F02E         	goto	u2241
  5425   005D0A  EF89  F02E         	goto	u2240
  5426   005D0E                     u2241:
  5427   005D0E  EF5D  F02E         	goto	l2936
  5428   005D12                     u2240:
  5429   005D12  0012               	return		;funcret
  5430   005D14                     __end_of_OLED_WriteString:
  5431                           	callstack 0
  5432                           
  5433 ;; *************** function _OLED_WriteChar *****************
  5434 ;; Defined at:
  5435 ;;		line 346 in file "oled.c"
  5436 ;; Parameters:    Size  Location     Type
  5437 ;;  c               1    wreg     unsigned char 
  5438 ;; Auto vars:     Size  Location     Type
  5439 ;;  c               1   10[COMRAM] unsigned char 
  5440 ;;  index           2    7[COMRAM] int 
  5441 ;;  i               1    9[COMRAM] unsigned char 
  5442 ;; Return value:  Size  Location     Type
  5443 ;;                  1    wreg      void 
  5444 ;; Registers used:
  5445 ;;		wreg, status,2, status,0, tblptrl, tblptrh, tblptru, prodl, prodh, cstack
  5446 ;; Tracked objects:
  5447 ;;		On entry : 0/0
  5448 ;;		On exit  : 0/0
  5449 ;;		Unchanged: 0/0
  5450 ;; Data sizes:     COMRAM   BANK0   BANK1   BANK2   BANK3   BANK4   BANK5   BANK6   BANK7
  5451 ;;      Params:         0       0       0       0       0       0       0       0       0
  5452 ;;      Locals:         4       0       0       0       0       0       0       0       0
  5453 ;;      Temps:          4       0       0       0       0       0       0       0       0
  5454 ;;      Totals:         8       0       0       0       0       0       0       0       0
  5455 ;;Total ram usage:        8 bytes
  5456 ;; Hardware stack levels used: 1
  5457 ;; Hardware stack levels required when called: 1
  5458 ;; This function calls:
  5459 ;;		_I2C_Start
  5460 ;;		_I2C_Stop
  5461 ;;		_I2C_Write
  5462 ;; This function is called by:
  5463 ;;		_OLED_WriteString
  5464 ;; This function uses a non-reentrant model
  5465 ;;
  5466                           
  5467                           	psect	text17
  5468   006658                     __ptext17:
  5469                           	callstack 0
  5470   006658                     _OLED_WriteChar:
  5471                           	callstack 27
  5472                           
  5473                           ;incstack = 0
  5474                           ;OLED_WriteChar@c stored from wreg
  5475   006658  6E0B               	movwf	OLED_WriteChar@c^0,c
  5476   00665A                     
  5477                           ;oled.c: 346: void OLED_WriteChar(char c);oled.c: 347: {;oled.c: 348:     unsigned char 
      +                          i;;oled.c: 349:     int index = 0;
  5478   00665A  6A09               	clrf	(OLED_WriteChar@index+1)^0,c
  5479   00665C  0E00               	movlw	0
  5480   00665E  6E08               	movwf	OLED_WriteChar@index^0,c
  5481   006660                     
  5482                           ;oled.c: 352:     if (c == ' ') index = 0;
  5483   006660  0E20               	movlw	32
  5484   006662  180B               	xorwf	OLED_WriteChar@c^0,w,c
  5485   006664  A4D8               	btfss	status,2,c
  5486   006666  EF37  F033         	goto	u2001
  5487   00666A  EF39  F033         	goto	u2000
  5488   00666E                     u2001:
  5489   00666E  EF3E  F033         	goto	l2718
  5490   006672                     u2000:
  5491   006672  6A09               	clrf	(OLED_WriteChar@index+1)^0,c
  5492   006674  0E00               	movlw	0
  5493   006676  6E08               	movwf	OLED_WriteChar@index^0,c
  5494   006678  EF96  F033         	goto	l2742
  5495   00667C                     l2718:
  5496   00667C  0E2F               	movlw	47
  5497   00667E  640B               	cpfsgt	OLED_WriteChar@c^0,c
  5498   006680  EF44  F033         	goto	u2011
  5499   006684  EF46  F033         	goto	u2010
  5500   006688                     u2011:
  5501   006688  EF56  F033         	goto	l2724
  5502   00668C                     u2010:
  5503   00668C  0E3A               	movlw	58
  5504   00668E  600B               	cpfslt	OLED_WriteChar@c^0,c
  5505   006690  EF4C  F033         	goto	u2021
  5506   006694  EF4E  F033         	goto	u2020
  5507   006698                     u2021:
  5508   006698  EF56  F033         	goto	l2724
  5509   00669C                     u2020:
  5510   00669C  0ED1               	movlw	209
  5511   00669E  240B               	addwf	OLED_WriteChar@c^0,w,c
  5512   0066A0  6E08               	movwf	OLED_WriteChar@index^0,c
  5513   0066A2  6A09               	clrf	(OLED_WriteChar@index+1)^0,c
  5514   0066A4  0EFF               	movlw	255
  5515   0066A6  2209               	addwfc	(OLED_WriteChar@index+1)^0,f,c
  5516   0066A8  EF96  F033         	goto	l2742
  5517   0066AC                     l2724:
  5518   0066AC  0E40               	movlw	64
  5519   0066AE  640B               	cpfsgt	OLED_WriteChar@c^0,c
  5520   0066B0  EF5C  F033         	goto	u2031
  5521   0066B4  EF5E  F033         	goto	u2030
  5522   0066B8                     u2031:
  5523   0066B8  EF6E  F033         	goto	l2730
  5524   0066BC                     u2030:
  5525   0066BC  0E5B               	movlw	91
  5526   0066BE  600B               	cpfslt	OLED_WriteChar@c^0,c
  5527   0066C0  EF64  F033         	goto	u2041
  5528   0066C4  EF66  F033         	goto	u2040
  5529   0066C8                     u2041:
  5530   0066C8  EF6E  F033         	goto	l2730
  5531   0066CC                     u2040:
  5532   0066CC  0ECA               	movlw	202
  5533   0066CE  240B               	addwf	OLED_WriteChar@c^0,w,c
  5534   0066D0  6E08               	movwf	OLED_WriteChar@index^0,c
  5535   0066D2  6A09               	clrf	(OLED_WriteChar@index+1)^0,c
  5536   0066D4  0EFF               	movlw	255
  5537   0066D6  2209               	addwfc	(OLED_WriteChar@index+1)^0,f,c
  5538   0066D8  EF96  F033         	goto	l2742
  5539   0066DC                     l2730:
  5540   0066DC  0E3A               	movlw	58
  5541   0066DE  180B               	xorwf	OLED_WriteChar@c^0,w,c
  5542   0066E0  A4D8               	btfss	status,2,c
  5543   0066E2  EF75  F033         	goto	u2051
  5544   0066E6  EF77  F033         	goto	u2050
  5545   0066EA                     u2051:
  5546   0066EA  EF7C  F033         	goto	l2734
  5547   0066EE                     u2050:
  5548   0066EE  6A09               	clrf	(OLED_WriteChar@index+1)^0,c
  5549   0066F0  0E25               	movlw	37
  5550   0066F2  6E08               	movwf	OLED_WriteChar@index^0,c
  5551   0066F4  EF96  F033         	goto	l2742
  5552   0066F8                     l2734:
  5553   0066F8  0E25               	movlw	37
  5554   0066FA  180B               	xorwf	OLED_WriteChar@c^0,w,c
  5555   0066FC  A4D8               	btfss	status,2,c
  5556   0066FE  EF83  F033         	goto	u2061
  5557   006702  EF85  F033         	goto	u2060
  5558   006706                     u2061:
  5559   006706  EF8A  F033         	goto	l2738
  5560   00670A                     u2060:
  5561   00670A  6A09               	clrf	(OLED_WriteChar@index+1)^0,c
  5562   00670C  0E26               	movlw	38
  5563   00670E  6E08               	movwf	OLED_WriteChar@index^0,c
  5564   006710  EF96  F033         	goto	l2742
  5565   006714                     l2738:
  5566   006714  0E2E               	movlw	46
  5567   006716  180B               	xorwf	OLED_WriteChar@c^0,w,c
  5568   006718  A4D8               	btfss	status,2,c
  5569   00671A  EF91  F033         	goto	u2071
  5570   00671E  EF93  F033         	goto	u2070
  5571   006722                     u2071:
  5572   006722  EF96  F033         	goto	l2742
  5573   006726                     u2070:
  5574   006726  6A09               	clrf	(OLED_WriteChar@index+1)^0,c
  5575   006728  0E27               	movlw	39
  5576   00672A  6E08               	movwf	OLED_WriteChar@index^0,c
  5577   00672C                     l2742:
  5578                           
  5579                           ;oled.c: 361:     I2C_Start();
  5580   00672C  ECCF  F02C         	call	_I2C_Start	;wreg free
  5581   006730                     
  5582                           ;oled.c: 362:     I2C_Write(0x78);
  5583   006730  0E78               	movlw	120
  5584   006732  EC60  F02F         	call	_I2C_Write
  5585   006736                     
  5586                           ;oled.c: 363:     I2C_Write(0x40);
  5587   006736  0E40               	movlw	64
  5588   006738  EC60  F02F         	call	_I2C_Write
  5589   00673C                     
  5590                           ;oled.c: 364:     for (i = 0; i < 5; i++) I2C_Write(font5x7[index][i]);
  5591   00673C  6A0A               	clrf	OLED_WriteChar@i^0,c
  5592   00673E                     l2754:
  5593   00673E  0E05               	movlw	5
  5594   006740  0208               	mulwf	OLED_WriteChar@index^0,c
  5595   006742  CFF3 F004          	movff	prodl,??_OLED_WriteChar
  5596   006746  CFF4 F005          	movff	prodh,??_OLED_WriteChar+1
  5597   00674A  0209               	mulwf	(OLED_WriteChar@index+1)^0,c
  5598   00674C  50F3               	movf	prodl,w,c
  5599   00674E  2605               	addwf	(??_OLED_WriteChar+1)^0,f,c
  5600   006750  0E7F               	movlw	low _font5x7
  5601   006752  2404               	addwf	??_OLED_WriteChar^0,w,c
  5602   006754  6E06               	movwf	(??_OLED_WriteChar+2)^0,c
  5603   006756  0E7E               	movlw	high _font5x7
  5604   006758  2005               	addwfc	(??_OLED_WriteChar+1)^0,w,c
  5605   00675A  6E07               	movwf	(??_OLED_WriteChar+3)^0,c
  5606   00675C  500A               	movf	OLED_WriteChar@i^0,w,c
  5607   00675E  2606               	addwf	(??_OLED_WriteChar+2)^0,f,c
  5608   006760  0E00               	movlw	0
  5609   006762  2207               	addwfc	(??_OLED_WriteChar+3)^0,f,c
  5610   006764  C006  FFF6         	movff	??_OLED_WriteChar+2,tblptrl
  5611   006768  C007  FFF7         	movff	??_OLED_WriteChar+3,tblptrh
  5612   00676C                     	if	0	;tblptru may be non-zero
  5613   00676C                     	endif
  5614   00676C                     	if	0	;tblptru may be non-zero
  5615   00676C                     	endif
  5616   00676C  0008               	tblrd		*
  5617   00676E  50F5               	movf	tablat,w,c
  5618   006770  EC60  F02F         	call	_I2C_Write
  5619   006774  2A0A               	incf	OLED_WriteChar@i^0,f,c
  5620   006776  0E04               	movlw	4
  5621   006778  640A               	cpfsgt	OLED_WriteChar@i^0,c
  5622   00677A  EFC1  F033         	goto	u2081
  5623   00677E  EFC3  F033         	goto	u2080
  5624   006782                     u2081:
  5625   006782  EF9F  F033         	goto	l2754
  5626   006786                     u2080:
  5627   006786                     
  5628                           ;oled.c: 365:     I2C_Write(0x00);
  5629   006786  0E00               	movlw	0
  5630   006788  EC60  F02F         	call	_I2C_Write
  5631   00678C                     
  5632                           ;oled.c: 366:     I2C_Stop();
  5633   00678C  EC63  F02C         	call	_I2C_Stop	;wreg free
  5634   006790  0012               	return		;funcret
  5635   006792                     __end_of_OLED_WriteChar:
  5636                           	callstack 0
  5637                           
  5638 ;; *************** function _OLED_SetCursor *****************
  5639 ;; Defined at:
  5640 ;;		line 319 in file "oled.c"
  5641 ;; Parameters:    Size  Location     Type
  5642 ;;  col             1    wreg     unsigned char 
  5643 ;;  page            1    4[COMRAM] unsigned char 
  5644 ;; Auto vars:     Size  Location     Type
  5645 ;;  col             1    5[COMRAM] unsigned char 
  5646 ;; Return value:  Size  Location     Type
  5647 ;;                  1    wreg      void 
  5648 ;; Registers used:
  5649 ;;		wreg, status,2, status,0, cstack
  5650 ;; Tracked objects:
  5651 ;;		On entry : 0/0
  5652 ;;		On exit  : 0/0
  5653 ;;		Unchanged: 0/0
  5654 ;; Data sizes:     COMRAM   BANK0   BANK1   BANK2   BANK3   BANK4   BANK5   BANK6   BANK7
  5655 ;;      Params:         1       0       0       0       0       0       0       0       0
  5656 ;;      Locals:         1       0       0       0       0       0       0       0       0
  5657 ;;      Temps:          0       0       0       0       0       0       0       0       0
  5658 ;;      Totals:         2       0       0       0       0       0       0       0       0
  5659 ;;Total ram usage:        2 bytes
  5660 ;; Hardware stack levels used: 1
  5661 ;; This function calls:
  5662 ;;		_OLED_Command
  5663 ;; This function is called by:
  5664 ;;		_OLED_Splash
  5665 ;;		_OLED_Vitals
  5666 ;;		_OLED_Paused
  5667 ;;		_OLED_Error
  5668 ;; This function uses a non-reentrant model
  5669 ;;
  5670                           
  5671                           	psect	text18
  5672   0058E8                     __ptext18:
  5673                           	callstack 0
  5674   0058E8                     _OLED_SetCursor:
  5675                           	callstack 29
  5676                           
  5677                           ;incstack = 0
  5678                           ;OLED_SetCursor@col stored from wreg
  5679   0058E8  6E06               	movwf	OLED_SetCursor@col^0,c
  5680   0058EA                     
  5681                           ;oled.c: 319: void OLED_SetCursor(unsigned char col, unsigned char page);oled.c: 320: {;
      +                          oled.c: 321:     col += 2;
  5682   0058EA  0E02               	movlw	2
  5683   0058EC  2606               	addwf	OLED_SetCursor@col^0,f,c
  5684   0058EE                     
  5685                           ;oled.c: 322:     OLED_Command(0xB0 + page);
  5686   0058EE  5005               	movf	OLED_SetCursor@page^0,w,c
  5687   0058F0  0FB0               	addlw	176
  5688   0058F2  EC43  F02C         	call	_OLED_Command
  5689   0058F6                     
  5690                           ;oled.c: 323:     OLED_Command(0x00 | (col & 0x0F));
  5691   0058F6  5006               	movf	OLED_SetCursor@col^0,w,c
  5692   0058F8  0B0F               	andlw	15
  5693   0058FA  EC43  F02C         	call	_OLED_Command
  5694   0058FE                     
  5695                           ;oled.c: 324:     OLED_Command(0x10 | (col >> 4));
  5696   0058FE  3806               	swapf	OLED_SetCursor@col^0,w,c
  5697   005900  0B0F               	andlw	15
  5698   005902  0910               	iorlw	16
  5699   005904  EC43  F02C         	call	_OLED_Command
  5700   005908  0012               	return		;funcret
  5701   00590A                     __end_of_OLED_SetCursor:
  5702                           	callstack 0
  5703                           
  5704 ;; *************** function _OLED_Clear *****************
  5705 ;; Defined at:
  5706 ;;		line 248 in file "oled.c"
  5707 ;; Parameters:    Size  Location     Type
  5708 ;;		None
  5709 ;; Auto vars:     Size  Location     Type
  5710 ;;  page            1    5[COMRAM] unsigned char 
  5711 ;;  i               1    4[COMRAM] unsigned char 
  5712 ;; Return value:  Size  Location     Type
  5713 ;;                  1    wreg      void 
  5714 ;; Registers used:
  5715 ;;		wreg, status,2, status,0, cstack
  5716 ;; Tracked objects:
  5717 ;;		On entry : 0/0
  5718 ;;		On exit  : 0/0
  5719 ;;		Unchanged: 0/0
  5720 ;; Data sizes:     COMRAM   BANK0   BANK1   BANK2   BANK3   BANK4   BANK5   BANK6   BANK7
  5721 ;;      Params:         0       0       0       0       0       0       0       0       0
  5722 ;;      Locals:         2       0       0       0       0       0       0       0       0
  5723 ;;      Temps:          0       0       0       0       0       0       0       0       0
  5724 ;;      Totals:         2       0       0       0       0       0       0       0       0
  5725 ;;Total ram usage:        2 bytes
  5726 ;; Hardware stack levels used: 1
  5727 ;; This function calls:
  5728 ;;		_I2C_Start
  5729 ;;		_I2C_Stop
  5730 ;;		_I2C_Write
  5731 ;;		_OLED_Command
  5732 ;; This function is called by:
  5733 ;;		_OLED_Splash
  5734 ;;		_OLED_Paused
  5735 ;;		_OLED_Error
  5736 ;;		_main
  5737 ;; This function uses a non-reentrant model
  5738 ;;
  5739                           
  5740                           	psect	text19
  5741   005C5E                     __ptext19:
  5742                           	callstack 0
  5743   005C5E                     _OLED_Clear:
  5744                           	callstack 29
  5745   005C5E                     
  5746                           ;oled.c: 250:     unsigned char page, i;;oled.c: 252:     for (page = 0; page < 8; page+
      +                          +)
  5747   005C5E  6A06               	clrf	OLED_Clear@page^0,c
  5748   005C60                     l2878:
  5749                           
  5750                           ;oled.c: 253:     {;oled.c: 254:         OLED_Command(0xB0 + page);
  5751   005C60  5006               	movf	OLED_Clear@page^0,w,c
  5752   005C62  0FB0               	addlw	176
  5753   005C64  EC43  F02C         	call	_OLED_Command
  5754                           
  5755                           ;oled.c: 255:         OLED_Command(0x00);
  5756   005C68  0E00               	movlw	0
  5757   005C6A  EC43  F02C         	call	_OLED_Command
  5758                           
  5759                           ;oled.c: 256:         OLED_Command(0x10);
  5760   005C6E  0E10               	movlw	16
  5761   005C70  EC43  F02C         	call	_OLED_Command
  5762   005C74                     
  5763                           ;oled.c: 259:         I2C_Start();
  5764   005C74  ECCF  F02C         	call	_I2C_Start	;wreg free
  5765   005C78                     
  5766                           ;oled.c: 260:         I2C_Write(0x78);
  5767   005C78  0E78               	movlw	120
  5768   005C7A  EC60  F02F         	call	_I2C_Write
  5769   005C7E                     
  5770                           ;oled.c: 261:         I2C_Write(0x40);
  5771   005C7E  0E40               	movlw	64
  5772   005C80  EC60  F02F         	call	_I2C_Write
  5773   005C84                     
  5774                           ;oled.c: 262:         for (i = 0; i < 128; i++) I2C_Write(0x00);
  5775   005C84  6A05               	clrf	OLED_Clear@i^0,c
  5776   005C86                     l2892:
  5777   005C86  0E00               	movlw	0
  5778   005C88  EC60  F02F         	call	_I2C_Write
  5779   005C8C  2A05               	incf	OLED_Clear@i^0,f,c
  5780   005C8E  0E7F               	movlw	127
  5781   005C90  6405               	cpfsgt	OLED_Clear@i^0,c
  5782   005C92  EF4D  F02E         	goto	u2191
  5783   005C96  EF4F  F02E         	goto	u2190
  5784   005C9A                     u2191:
  5785   005C9A  EF43  F02E         	goto	l2892
  5786   005C9E                     u2190:
  5787   005C9E                     
  5788                           ;oled.c: 263:         I2C_Stop();
  5789   005C9E  EC63  F02C         	call	_I2C_Stop	;wreg free
  5790   005CA2                     
  5791                           ;oled.c: 264:     }
  5792   005CA2  2A06               	incf	OLED_Clear@page^0,f,c
  5793   005CA4  0E07               	movlw	7
  5794   005CA6  6406               	cpfsgt	OLED_Clear@page^0,c
  5795   005CA8  EF58  F02E         	goto	u2201
  5796   005CAC  EF5A  F02E         	goto	u2200
  5797   005CB0                     u2201:
  5798   005CB0  EF30  F02E         	goto	l2878
  5799   005CB4                     u2200:
  5800   005CB4  0012               	return		;funcret
  5801   005CB6                     __end_of_OLED_Clear:
  5802                           	callstack 0
  5803                           
  5804 ;; *************** function _OLED_Command *****************
  5805 ;; Defined at:
  5806 ;;		line 141 in file "oled.c"
  5807 ;; Parameters:    Size  Location     Type
  5808 ;;  cmd             1    wreg     unsigned char 
  5809 ;; Auto vars:     Size  Location     Type
  5810 ;;  cmd             1    3[COMRAM] unsigned char 
  5811 ;; Return value:  Size  Location     Type
  5812 ;;                  1    wreg      void 
  5813 ;; Registers used:
  5814 ;;		wreg, status,2, status,0, cstack
  5815 ;; Tracked objects:
  5816 ;;		On entry : 0/0
  5817 ;;		On exit  : 0/0
  5818 ;;		Unchanged: 0/0
  5819 ;; Data sizes:     COMRAM   BANK0   BANK1   BANK2   BANK3   BANK4   BANK5   BANK6   BANK7
  5820 ;;      Params:         0       0       0       0       0       0       0       0       0
  5821 ;;      Locals:         1       0       0       0       0       0       0       0       0
  5822 ;;      Temps:          0       0       0       0       0       0       0       0       0
  5823 ;;      Totals:         1       0       0       0       0       0       0       0       0
  5824 ;;Total ram usage:        1 bytes
  5825 ;; Hardware stack levels used: 1
  5826 ;; This function calls:
  5827 ;;		_I2C_Start
  5828 ;;		_I2C_Stop
  5829 ;;		_I2C_Write
  5830 ;; This function is called by:
  5831 ;;		_OLED_Init
  5832 ;;		_OLED_Clear
  5833 ;;		_OLED_ClearLine
  5834 ;;		_OLED_SetCursor
  5835 ;; This function uses a non-reentrant model
  5836 ;;
  5837                           
  5838                           	psect	text20
  5839   005886                     __ptext20:
  5840                           	callstack 0
  5841   005886                     _OLED_Command:
  5842                           	callstack 28
  5843                           
  5844                           ;incstack = 0
  5845                           ;OLED_Command@cmd stored from wreg
  5846   005886  6E04               	movwf	OLED_Command@cmd^0,c
  5847   005888                     
  5848                           ;oled.c: 141: void OLED_Command(unsigned char cmd);oled.c: 142: {;oled.c: 143:     I2C_S
      +                          tart();
  5849   005888  ECCF  F02C         	call	_I2C_Start	;wreg free
  5850   00588C                     
  5851                           ;oled.c: 144:     I2C_Write(0x78);
  5852   00588C  0E78               	movlw	120
  5853   00588E  EC60  F02F         	call	_I2C_Write
  5854   005892                     
  5855                           ;oled.c: 145:     I2C_Write(0x00);
  5856   005892  0E00               	movlw	0
  5857   005894  EC60  F02F         	call	_I2C_Write
  5858   005898                     
  5859                           ;oled.c: 146:     I2C_Write(cmd);
  5860   005898  5004               	movf	OLED_Command@cmd^0,w,c
  5861   00589A  EC60  F02F         	call	_I2C_Write
  5862   00589E                     
  5863                           ;oled.c: 147:     I2C_Stop();
  5864   00589E  EC63  F02C         	call	_I2C_Stop	;wreg free
  5865   0058A2  0012               	return		;funcret
  5866   0058A4                     __end_of_OLED_Command:
  5867                           	callstack 0
  5868                           
  5869 ;; *************** function _MAX30102_ReadSample *****************
  5870 ;; Defined at:
  5871 ;;		line 57 in file "max30102.c"
  5872 ;; Parameters:    Size  Location     Type
  5873 ;;  red             1    8[COMRAM] PTR unsigned long 
  5874 ;;		 -> main@red(4), 
  5875 ;;  ir              1    9[COMRAM] PTR unsigned long 
  5876 ;;		 -> main@ir(4), 
  5877 ;; Auto vars:     Size  Location     Type
  5878 ;;  data            6   27[COMRAM] unsigned char [6]
  5879 ;; Return value:  Size  Location     Type
  5880 ;;                  1    wreg      unsigned char 
  5881 ;; Registers used:
  5882 ;;		wreg, fsr2l, fsr2h, status,2, status,0, cstack
  5883 ;; Tracked objects:
  5884 ;;		On entry : 0/0
  5885 ;;		On exit  : 0/0
  5886 ;;		Unchanged: 0/0
  5887 ;; Data sizes:     COMRAM   BANK0   BANK1   BANK2   BANK3   BANK4   BANK5   BANK6   BANK7
  5888 ;;      Params:         2       0       0       0       0       0       0       0       0
  5889 ;;      Locals:         6       0       0       0       0       0       0       0       0
  5890 ;;      Temps:         17       0       0       0       0       0       0       0       0
  5891 ;;      Totals:        25       0       0       0       0       0       0       0       0
  5892 ;;Total ram usage:       25 bytes
  5893 ;; Hardware stack levels used: 1
  5894 ;; Hardware stack levels required when called: 2
  5895 ;; This function calls:
  5896 ;;		_I2C_Read
  5897 ;;		_I2C_RepeatedStart
  5898 ;;		_I2C_Start
  5899 ;;		_I2C_Stop
  5900 ;;		_I2C_Write
  5901 ;;		_MAX30102_SamplesAvailable
  5902 ;; This function is called by:
  5903 ;;		_main
  5904 ;; This function uses a non-reentrant model
  5905 ;;
  5906                           
  5907                           	psect	text21
  5908   0068D6                     __ptext21:
  5909                           	callstack 0
  5910   0068D6                     _MAX30102_ReadSample:
  5911                           	callstack 28
  5912   0068D6                     
  5913                           ;max30102.c: 58:     unsigned char data[6];;max30102.c: 59:     if (MAX30102_SamplesAvai
      +                          lable() == 0) return 0;
  5914   0068D6  EC26  F02C         	call	_MAX30102_SamplesAvailable	;wreg free
  5915   0068DA  0900               	iorlw	0
  5916   0068DC  A4D8               	btfss	status,2,c
  5917   0068DE  EF73  F034         	goto	u3251
  5918   0068E2  EF75  F034         	goto	u3250
  5919   0068E6                     u3251:
  5920   0068E6  EF78  F034         	goto	l3678
  5921   0068EA                     u3250:
  5922   0068EA  0E00               	movlw	0
  5923   0068EC  EF16  F035         	goto	l230
  5924   0068F0                     l3678:
  5925                           
  5926                           ;max30102.c: 60:     I2C_Start();
  5927   0068F0  ECCF  F02C         	call	_I2C_Start	;wreg free
  5928   0068F4                     
  5929                           ;max30102.c: 61:     I2C_Write(0xAE);
  5930   0068F4  0EAE               	movlw	174
  5931   0068F6  EC60  F02F         	call	_I2C_Write
  5932   0068FA                     
  5933                           ;max30102.c: 62:     I2C_Write(0x07);
  5934   0068FA  0E07               	movlw	7
  5935   0068FC  EC60  F02F         	call	_I2C_Write
  5936                           
  5937                           ;max30102.c: 63:     I2C_RepeatedStart();
  5938   006900  EC1D  F02C         	call	_I2C_RepeatedStart	;wreg free
  5939   006904                     
  5940                           ;max30102.c: 64:     I2C_Write(0xAF);
  5941   006904  0EAF               	movlw	175
  5942   006906  EC60  F02F         	call	_I2C_Write
  5943   00690A                     
  5944                           ;max30102.c: 65:     data[0] = I2C_Read(1);
  5945   00690A  0E01               	movlw	1
  5946   00690C  EC9C  F02F         	call	_I2C_Read
  5947   006910  6E1C               	movwf	MAX30102_ReadSample@data^0,c
  5948   006912                     
  5949                           ;max30102.c: 66:     data[1] = I2C_Read(1);
  5950   006912  0E01               	movlw	1
  5951   006914  EC9C  F02F         	call	_I2C_Read
  5952   006918  6E1D               	movwf	(MAX30102_ReadSample@data+1)^0,c
  5953   00691A                     
  5954                           ;max30102.c: 67:     data[2] = I2C_Read(1);
  5955   00691A  0E01               	movlw	1
  5956   00691C  EC9C  F02F         	call	_I2C_Read
  5957   006920  6E1E               	movwf	(MAX30102_ReadSample@data+2)^0,c
  5958   006922                     
  5959                           ;max30102.c: 68:     data[3] = I2C_Read(1);
  5960   006922  0E01               	movlw	1
  5961   006924  EC9C  F02F         	call	_I2C_Read
  5962   006928  6E1F               	movwf	(MAX30102_ReadSample@data+3)^0,c
  5963   00692A                     
  5964                           ;max30102.c: 69:     data[4] = I2C_Read(1);
  5965   00692A  0E01               	movlw	1
  5966   00692C  EC9C  F02F         	call	_I2C_Read
  5967   006930  6E20               	movwf	(MAX30102_ReadSample@data+4)^0,c
  5968   006932                     
  5969                           ;max30102.c: 70:     data[5] = I2C_Read(0);
  5970   006932  0E00               	movlw	0
  5971   006934  EC9C  F02F         	call	_I2C_Read
  5972   006938  6E21               	movwf	(MAX30102_ReadSample@data+5)^0,c
  5973   00693A                     
  5974                           ;max30102.c: 71:     I2C_Stop();
  5975   00693A  EC63  F02C         	call	_I2C_Stop	;wreg free
  5976   00693E                     
  5977                           ;max30102.c: 72:     *red = (((unsigned long)data[0] & 0x03) << 16) |
  5978   00693E  C01D  F00B         	movff	MAX30102_ReadSample@data+1,??_MAX30102_ReadSample
  5979   006942  6A0C               	clrf	(??_MAX30102_ReadSample+1)^0,c
  5980   006944  6A0D               	clrf	(??_MAX30102_ReadSample+2)^0,c
  5981   006946  6A0E               	clrf	(??_MAX30102_ReadSample+3)^0,c
  5982   006948  C00D  F00E         	movff	??_MAX30102_ReadSample+2,??_MAX30102_ReadSample+3
  5983   00694C  C00C  F00D         	movff	??_MAX30102_ReadSample+1,??_MAX30102_ReadSample+2
  5984   006950  C00B  F00C         	movff	??_MAX30102_ReadSample,??_MAX30102_ReadSample+1
  5985   006954  6A0B               	clrf	??_MAX30102_ReadSample^0,c
  5986   006956  C01C  F00F         	movff	MAX30102_ReadSample@data,??_MAX30102_ReadSample+4
  5987   00695A  0E03               	movlw	3
  5988   00695C  160F               	andwf	(??_MAX30102_ReadSample+4)^0,f,c
  5989   00695E  C00F  F010         	movff	??_MAX30102_ReadSample+4,??_MAX30102_ReadSample+5
  5990   006962  6A11               	clrf	(??_MAX30102_ReadSample+6)^0,c
  5991   006964  6A12               	clrf	(??_MAX30102_ReadSample+7)^0,c
  5992   006966  6A13               	clrf	(??_MAX30102_ReadSample+8)^0,c
  5993   006968  C011  F013         	movff	??_MAX30102_ReadSample+6,??_MAX30102_ReadSample+8
  5994   00696C  C010  F012         	movff	??_MAX30102_ReadSample+5,??_MAX30102_ReadSample+7
  5995   006970  6A11               	clrf	(??_MAX30102_ReadSample+6)^0,c
  5996   006972  6A10               	clrf	(??_MAX30102_ReadSample+5)^0,c
  5997   006974  500B               	movf	??_MAX30102_ReadSample^0,w,c
  5998   006976  1010               	iorwf	(??_MAX30102_ReadSample+5)^0,w,c
  5999   006978  6E14               	movwf	(??_MAX30102_ReadSample+9)^0,c
  6000   00697A  500C               	movf	(??_MAX30102_ReadSample+1)^0,w,c
  6001   00697C  1011               	iorwf	(??_MAX30102_ReadSample+6)^0,w,c
  6002   00697E  6E15               	movwf	(??_MAX30102_ReadSample+10)^0,c
  6003   006980  500D               	movf	(??_MAX30102_ReadSample+2)^0,w,c
  6004   006982  1012               	iorwf	(??_MAX30102_ReadSample+7)^0,w,c
  6005   006984  6E16               	movwf	(??_MAX30102_ReadSample+11)^0,c
  6006   006986  500E               	movf	(??_MAX30102_ReadSample+3)^0,w,c
  6007   006988  1013               	iorwf	(??_MAX30102_ReadSample+8)^0,w,c
  6008   00698A  6E17               	movwf	(??_MAX30102_ReadSample+12)^0,c
  6009   00698C  501E               	movf	(MAX30102_ReadSample@data+2)^0,w,c
  6010   00698E  1014               	iorwf	(??_MAX30102_ReadSample+9)^0,w,c
  6011   006990  6E18               	movwf	(??_MAX30102_ReadSample+13)^0,c
  6012   006992  5015               	movf	(??_MAX30102_ReadSample+10)^0,w,c
  6013   006994  6E19               	movwf	(??_MAX30102_ReadSample+14)^0,c
  6014   006996  5016               	movf	(??_MAX30102_ReadSample+11)^0,w,c
  6015   006998  6E1A               	movwf	(??_MAX30102_ReadSample+15)^0,c
  6016   00699A  5017               	movf	(??_MAX30102_ReadSample+12)^0,w,c
  6017   00699C  6E1B               	movwf	(??_MAX30102_ReadSample+16)^0,c
  6018   00699E  5009               	movf	MAX30102_ReadSample@red^0,w,c
  6019   0069A0  6ED9               	movwf	fsr2l,c
  6020   0069A2  6ADA               	clrf	fsr2h,c
  6021   0069A4  C018  FFDE         	movff	??_MAX30102_ReadSample+13,postinc2
  6022   0069A8  C019  FFDE         	movff	??_MAX30102_ReadSample+14,postinc2
  6023   0069AC  C01A  FFDE         	movff	??_MAX30102_ReadSample+15,postinc2
  6024   0069B0  C01B  FFDE         	movff	??_MAX30102_ReadSample+16,postinc2
  6025   0069B4                     
  6026                           ;max30102.c: 74:     *ir = (((unsigned long)data[3] & 0x03) << 16) |
  6027   0069B4  C020  F00B         	movff	MAX30102_ReadSample@data+4,??_MAX30102_ReadSample
  6028   0069B8  6A0C               	clrf	(??_MAX30102_ReadSample+1)^0,c
  6029   0069BA  6A0D               	clrf	(??_MAX30102_ReadSample+2)^0,c
  6030   0069BC  6A0E               	clrf	(??_MAX30102_ReadSample+3)^0,c
  6031   0069BE  C00D  F00E         	movff	??_MAX30102_ReadSample+2,??_MAX30102_ReadSample+3
  6032   0069C2  C00C  F00D         	movff	??_MAX30102_ReadSample+1,??_MAX30102_ReadSample+2
  6033   0069C6  C00B  F00C         	movff	??_MAX30102_ReadSample,??_MAX30102_ReadSample+1
  6034   0069CA  6A0B               	clrf	??_MAX30102_ReadSample^0,c
  6035   0069CC  C01F  F00F         	movff	MAX30102_ReadSample@data+3,??_MAX30102_ReadSample+4
  6036   0069D0  0E03               	movlw	3
  6037   0069D2  160F               	andwf	(??_MAX30102_ReadSample+4)^0,f,c
  6038   0069D4  C00F  F010         	movff	??_MAX30102_ReadSample+4,??_MAX30102_ReadSample+5
  6039   0069D8  6A11               	clrf	(??_MAX30102_ReadSample+6)^0,c
  6040   0069DA  6A12               	clrf	(??_MAX30102_ReadSample+7)^0,c
  6041   0069DC  6A13               	clrf	(??_MAX30102_ReadSample+8)^0,c
  6042   0069DE  C011  F013         	movff	??_MAX30102_ReadSample+6,??_MAX30102_ReadSample+8
  6043   0069E2  C010  F012         	movff	??_MAX30102_ReadSample+5,??_MAX30102_ReadSample+7
  6044   0069E6  6A11               	clrf	(??_MAX30102_ReadSample+6)^0,c
  6045   0069E8  6A10               	clrf	(??_MAX30102_ReadSample+5)^0,c
  6046   0069EA  500B               	movf	??_MAX30102_ReadSample^0,w,c
  6047   0069EC  1010               	iorwf	(??_MAX30102_ReadSample+5)^0,w,c
  6048   0069EE  6E14               	movwf	(??_MAX30102_ReadSample+9)^0,c
  6049   0069F0  500C               	movf	(??_MAX30102_ReadSample+1)^0,w,c
  6050   0069F2  1011               	iorwf	(??_MAX30102_ReadSample+6)^0,w,c
  6051   0069F4  6E15               	movwf	(??_MAX30102_ReadSample+10)^0,c
  6052   0069F6  500D               	movf	(??_MAX30102_ReadSample+2)^0,w,c
  6053   0069F8  1012               	iorwf	(??_MAX30102_ReadSample+7)^0,w,c
  6054   0069FA  6E16               	movwf	(??_MAX30102_ReadSample+11)^0,c
  6055   0069FC  500E               	movf	(??_MAX30102_ReadSample+3)^0,w,c
  6056   0069FE  1013               	iorwf	(??_MAX30102_ReadSample+8)^0,w,c
  6057   006A00  6E17               	movwf	(??_MAX30102_ReadSample+12)^0,c
  6058   006A02  5021               	movf	(MAX30102_ReadSample@data+5)^0,w,c
  6059   006A04  1014               	iorwf	(??_MAX30102_ReadSample+9)^0,w,c
  6060   006A06  6E18               	movwf	(??_MAX30102_ReadSample+13)^0,c
  6061   006A08  5015               	movf	(??_MAX30102_ReadSample+10)^0,w,c
  6062   006A0A  6E19               	movwf	(??_MAX30102_ReadSample+14)^0,c
  6063   006A0C  5016               	movf	(??_MAX30102_ReadSample+11)^0,w,c
  6064   006A0E  6E1A               	movwf	(??_MAX30102_ReadSample+15)^0,c
  6065   006A10  5017               	movf	(??_MAX30102_ReadSample+12)^0,w,c
  6066   006A12  6E1B               	movwf	(??_MAX30102_ReadSample+16)^0,c
  6067   006A14  500A               	movf	MAX30102_ReadSample@ir^0,w,c
  6068   006A16  6ED9               	movwf	fsr2l,c
  6069   006A18  6ADA               	clrf	fsr2h,c
  6070   006A1A  C018  FFDE         	movff	??_MAX30102_ReadSample+13,postinc2
  6071   006A1E  C019  FFDE         	movff	??_MAX30102_ReadSample+14,postinc2
  6072   006A22  C01A  FFDE         	movff	??_MAX30102_ReadSample+15,postinc2
  6073   006A26  C01B  FFDE         	movff	??_MAX30102_ReadSample+16,postinc2
  6074   006A2A                     
  6075                           ;max30102.c: 76:     return 1;
  6076   006A2A  0E01               	movlw	1
  6077   006A2C                     l230:
  6078   006A2C  0012               	return		;funcret
  6079   006A2E                     __end_of_MAX30102_ReadSample:
  6080                           	callstack 0
  6081                           
  6082 ;; *************** function _MAX30102_SamplesAvailable *****************
  6083 ;; Defined at:
  6084 ;;		line 50 in file "max30102.c"
  6085 ;; Parameters:    Size  Location     Type
  6086 ;;		None
  6087 ;; Auto vars:     Size  Location     Type
  6088 ;;  read_ptr        1    7[COMRAM] unsigned char 
  6089 ;;  write_ptr       1    6[COMRAM] unsigned char 
  6090 ;; Return value:  Size  Location     Type
  6091 ;;                  1    wreg      unsigned char 
  6092 ;; Registers used:
  6093 ;;		wreg, fsr2l, fsr2h, status,2, status,0, cstack
  6094 ;; Tracked objects:
  6095 ;;		On entry : 0/0
  6096 ;;		On exit  : 0/0
  6097 ;;		Unchanged: 0/0
  6098 ;; Data sizes:     COMRAM   BANK0   BANK1   BANK2   BANK3   BANK4   BANK5   BANK6   BANK7
  6099 ;;      Params:         0       0       0       0       0       0       0       0       0
  6100 ;;      Locals:         2       0       0       0       0       0       0       0       0
  6101 ;;      Temps:          0       0       0       0       0       0       0       0       0
  6102 ;;      Totals:         2       0       0       0       0       0       0       0       0
  6103 ;;Total ram usage:        2 bytes
  6104 ;; Hardware stack levels used: 1
  6105 ;; Hardware stack levels required when called: 1
  6106 ;; This function calls:
  6107 ;;		_MAX30102_ReadRegister
  6108 ;; This function is called by:
  6109 ;;		_MAX30102_ReadSample
  6110 ;; This function uses a non-reentrant model
  6111 ;;
  6112                           
  6113                           	psect	text22
  6114   00584C                     __ptext22:
  6115                           	callstack 0
  6116   00584C                     _MAX30102_SamplesAvailable:
  6117                           	callstack 28
  6118   00584C                     
  6119                           ;max30102.c: 51:     unsigned char write_ptr, read_ptr;;max30102.c: 52:     MAX30102_Rea
      +                          dRegister(0x04, &write_ptr);
  6120   00584C  0E07               	movlw	low MAX30102_SamplesAvailable@write_ptr
  6121   00584E  6E05               	movwf	MAX30102_ReadRegister@data^0,c
  6122   005850  0E04               	movlw	4
  6123   005852  ECE5  F02C         	call	_MAX30102_ReadRegister
  6124                           
  6125                           ;max30102.c: 53:     MAX30102_ReadRegister(0x06, &read_ptr);
  6126   005856  0E08               	movlw	low MAX30102_SamplesAvailable@read_ptr
  6127   005858  6E05               	movwf	MAX30102_ReadRegister@data^0,c
  6128   00585A  0E06               	movlw	6
  6129   00585C  ECE5  F02C         	call	_MAX30102_ReadRegister
  6130   005860                     
  6131                           ;max30102.c: 54:     return (write_ptr - read_ptr) & 0x1F;
  6132   005860  5008               	movf	MAX30102_SamplesAvailable@read_ptr^0,w,c
  6133   005862  5C07               	subwf	MAX30102_SamplesAvailable@write_ptr^0,w,c
  6134   005864  0B1F               	andlw	31
  6135   005866  0012               	return		;funcret
  6136   005868                     __end_of_MAX30102_SamplesAvailable:
  6137                           	callstack 0
  6138                           
  6139 ;; *************** function _MAX30102_Init *****************
  6140 ;; Defined at:
  6141 ;;		line 32 in file "max30102.c"
  6142 ;; Parameters:    Size  Location     Type
  6143 ;;		None
  6144 ;; Auto vars:     Size  Location     Type
  6145 ;;  status          1    8[COMRAM] unsigned char 
  6146 ;; Return value:  Size  Location     Type
  6147 ;;                  1    wreg      unsigned char 
  6148 ;; Registers used:
  6149 ;;		wreg, fsr2l, fsr2h, status,2, status,0, cstack
  6150 ;; Tracked objects:
  6151 ;;		On entry : 0/0
  6152 ;;		On exit  : 0/0
  6153 ;;		Unchanged: 0/0
  6154 ;; Data sizes:     COMRAM   BANK0   BANK1   BANK2   BANK3   BANK4   BANK5   BANK6   BANK7
  6155 ;;      Params:         0       0       0       0       0       0       0       0       0
  6156 ;;      Locals:         1       0       0       0       0       0       0       0       0
  6157 ;;      Temps:          1       0       0       0       0       0       0       0       0
  6158 ;;      Totals:         2       0       0       0       0       0       0       0       0
  6159 ;;Total ram usage:        2 bytes
  6160 ;; Hardware stack levels used: 1
  6161 ;; Hardware stack levels required when called: 4
  6162 ;; This function calls:
  6163 ;;		_MAX30102_Check
  6164 ;;		_MAX30102_ReadRegister
  6165 ;;		_MAX30102_WriteRegister
  6166 ;; This function is called by:
  6167 ;;		_main
  6168 ;; This function uses a non-reentrant model
  6169 ;;
  6170                           
  6171                           	psect	text23
  6172   005FC8                     __ptext23:
  6173                           	callstack 0
  6174   005FC8                     _MAX30102_Init:
  6175                           	callstack 26
  6176   005FC8                     
  6177                           ;max30102.c: 33:     unsigned char status;;max30102.c: 34:     if (!MAX30102_Check()) re
      +                          turn 0;
  6178   005FC8  EC18  F02D         	call	_MAX30102_Check	;wreg free
  6179   005FCC  0900               	iorlw	0
  6180   005FCE  A4D8               	btfss	status,2,c
  6181   005FD0  EFEC  F02F         	goto	u3241
  6182   005FD4  EFEE  F02F         	goto	u3240
  6183   005FD8                     u3241:
  6184   005FD8  EFF1  F02F         	goto	l3644
  6185   005FDC                     u3240:
  6186   005FDC  0E00               	movlw	0
  6187   005FDE  EF30  F030         	goto	l223
  6188   005FE2                     l3644:
  6189                           
  6190                           ;max30102.c: 35:     MAX30102_WriteRegister(0x09, 0x40);
  6191   005FE2  0E40               	movlw	64
  6192   005FE4  6E04               	movwf	MAX30102_WriteRegister@data^0,c
  6193   005FE6  0E09               	movlw	9
  6194   005FE8  EC34  F02C         	call	_MAX30102_WriteRegister
  6195   005FEC                     
  6196                           ;max30102.c: 36:     _delay((unsigned long)((20)*(8000000/4000.0)));
  6197   005FEC  0E34               	movlw	52
  6198   005FEE  6E08               	movwf	??_MAX30102_Init^0,c
  6199   005FF0  0EF2               	movlw	242
  6200   005FF2                     u3917:
  6201   005FF2  2EE8               	decfsz	wreg,f,c
  6202   005FF4  D7FE               	bra	u3917
  6203   005FF6  2E08               	decfsz	??_MAX30102_Init^0,f,c
  6204   005FF8  D7FC               	bra	u3917
  6205   005FFA                     
  6206                           ;max30102.c: 37:     MAX30102_WriteRegister(0x04, 0x00);
  6207   005FFA  0E00               	movlw	0
  6208   005FFC  6E04               	movwf	MAX30102_WriteRegister@data^0,c
  6209   005FFE  0E04               	movlw	4
  6210   006000  EC34  F02C         	call	_MAX30102_WriteRegister
  6211   006004                     
  6212                           ;max30102.c: 38:     MAX30102_WriteRegister(0x05, 0x00);
  6213   006004  0E00               	movlw	0
  6214   006006  6E04               	movwf	MAX30102_WriteRegister@data^0,c
  6215   006008  0E05               	movlw	5
  6216   00600A  EC34  F02C         	call	_MAX30102_WriteRegister
  6217   00600E                     
  6218                           ;max30102.c: 39:     MAX30102_WriteRegister(0x06, 0x00);
  6219   00600E  0E00               	movlw	0
  6220   006010  6E04               	movwf	MAX30102_WriteRegister@data^0,c
  6221   006012  0E06               	movlw	6
  6222   006014  EC34  F02C         	call	_MAX30102_WriteRegister
  6223   006018                     
  6224                           ;max30102.c: 40:     MAX30102_WriteRegister(0x08, 0x50);
  6225   006018  0E50               	movlw	80
  6226   00601A  6E04               	movwf	MAX30102_WriteRegister@data^0,c
  6227   00601C  0E08               	movlw	8
  6228   00601E  EC34  F02C         	call	_MAX30102_WriteRegister
  6229   006022                     
  6230                           ;max30102.c: 41:     MAX30102_WriteRegister(0x0A, 0x27);
  6231   006022  0E27               	movlw	39
  6232   006024  6E04               	movwf	MAX30102_WriteRegister@data^0,c
  6233   006026  0E0A               	movlw	10
  6234   006028  EC34  F02C         	call	_MAX30102_WriteRegister
  6235   00602C                     
  6236                           ;max30102.c: 42:     MAX30102_WriteRegister(0x0C, 0x1F);
  6237   00602C  0E1F               	movlw	31
  6238   00602E  6E04               	movwf	MAX30102_WriteRegister@data^0,c
  6239   006030  0E0C               	movlw	12
  6240   006032  EC34  F02C         	call	_MAX30102_WriteRegister
  6241   006036                     
  6242                           ;max30102.c: 43:     MAX30102_WriteRegister(0x0D, 0x1F);
  6243   006036  0E1F               	movlw	31
  6244   006038  6E04               	movwf	MAX30102_WriteRegister@data^0,c
  6245   00603A  0E0D               	movlw	13
  6246   00603C  EC34  F02C         	call	_MAX30102_WriteRegister
  6247   006040                     
  6248                           ;max30102.c: 44:     MAX30102_WriteRegister(0x09, 0x03);
  6249   006040  0E03               	movlw	3
  6250   006042  6E04               	movwf	MAX30102_WriteRegister@data^0,c
  6251   006044  0E09               	movlw	9
  6252   006046  EC34  F02C         	call	_MAX30102_WriteRegister
  6253   00604A                     
  6254                           ;max30102.c: 45:     MAX30102_ReadRegister(0x00, &status);
  6255   00604A  0E09               	movlw	low MAX30102_Init@status
  6256   00604C  6E05               	movwf	MAX30102_ReadRegister@data^0,c
  6257   00604E  0E00               	movlw	0
  6258   006050  ECE5  F02C         	call	_MAX30102_ReadRegister
  6259   006054                     
  6260                           ;max30102.c: 46:     MAX30102_ReadRegister(0x01, &status);
  6261   006054  0E09               	movlw	low MAX30102_Init@status
  6262   006056  6E05               	movwf	MAX30102_ReadRegister@data^0,c
  6263   006058  0E01               	movlw	1
  6264   00605A  ECE5  F02C         	call	_MAX30102_ReadRegister
  6265   00605E                     
  6266                           ;max30102.c: 47:     return 1;
  6267   00605E  0E01               	movlw	1
  6268   006060                     l223:
  6269   006060  0012               	return		;funcret
  6270   006062                     __end_of_MAX30102_Init:
  6271                           	callstack 0
  6272                           
  6273 ;; *************** function _MAX30102_WriteRegister *****************
  6274 ;; Defined at:
  6275 ;;		line 6 in file "max30102.c"
  6276 ;; Parameters:    Size  Location     Type
  6277 ;;  reg             1    wreg     unsigned char 
  6278 ;;  data            1    3[COMRAM] unsigned char 
  6279 ;; Auto vars:     Size  Location     Type
  6280 ;;  reg             1    4[COMRAM] unsigned char 
  6281 ;; Return value:  Size  Location     Type
  6282 ;;                  1    wreg      unsigned char 
  6283 ;; Registers used:
  6284 ;;		wreg, status,2, status,0, cstack
  6285 ;; Tracked objects:
  6286 ;;		On entry : 0/0
  6287 ;;		On exit  : 0/0
  6288 ;;		Unchanged: 0/0
  6289 ;; Data sizes:     COMRAM   BANK0   BANK1   BANK2   BANK3   BANK4   BANK5   BANK6   BANK7
  6290 ;;      Params:         1       0       0       0       0       0       0       0       0
  6291 ;;      Locals:         1       0       0       0       0       0       0       0       0
  6292 ;;      Temps:          0       0       0       0       0       0       0       0       0
  6293 ;;      Totals:         2       0       0       0       0       0       0       0       0
  6294 ;;Total ram usage:        2 bytes
  6295 ;; Hardware stack levels used: 1
  6296 ;; Hardware stack levels required when called: 1
  6297 ;; This function calls:
  6298 ;;		_I2C_Start
  6299 ;;		_I2C_Stop
  6300 ;;		_I2C_Write
  6301 ;; This function is called by:
  6302 ;;		_MAX30102_Init
  6303 ;; This function uses a non-reentrant model
  6304 ;;
  6305                           
  6306                           	psect	text24
  6307   005868                     __ptext24:
  6308                           	callstack 0
  6309   005868                     _MAX30102_WriteRegister:
  6310                           	callstack 28
  6311                           
  6312                           ;incstack = 0
  6313                           ;MAX30102_WriteRegister@reg stored from wreg
  6314   005868  6E05               	movwf	MAX30102_WriteRegister@reg^0,c
  6315   00586A                     
  6316                           ;max30102.c: 7:     I2C_Start();
  6317   00586A  ECCF  F02C         	call	_I2C_Start	;wreg free
  6318   00586E                     
  6319                           ;max30102.c: 8:     I2C_Write(0xAE);
  6320   00586E  0EAE               	movlw	174
  6321   005870  EC60  F02F         	call	_I2C_Write
  6322   005874                     
  6323                           ;max30102.c: 9:     I2C_Write(reg);
  6324   005874  5005               	movf	MAX30102_WriteRegister@reg^0,w,c
  6325   005876  EC60  F02F         	call	_I2C_Write
  6326   00587A                     
  6327                           ;max30102.c: 10:     I2C_Write(data);
  6328   00587A  5004               	movf	MAX30102_WriteRegister@data^0,w,c
  6329   00587C  EC60  F02F         	call	_I2C_Write
  6330   005880                     
  6331                           ;max30102.c: 11:     I2C_Stop();
  6332   005880  EC63  F02C         	call	_I2C_Stop	;wreg free
  6333   005884  0012               	return		;funcret
  6334   005886                     __end_of_MAX30102_WriteRegister:
  6335                           	callstack 0
  6336                           
  6337 ;; *************** function _MAX30102_Check *****************
  6338 ;; Defined at:
  6339 ;;		line 26 in file "max30102.c"
  6340 ;; Parameters:    Size  Location     Type
  6341 ;;		None
  6342 ;; Auto vars:     Size  Location     Type
  6343 ;;  part_id         1    6[COMRAM] unsigned char 
  6344 ;; Return value:  Size  Location     Type
  6345 ;;                  1    wreg      unsigned char 
  6346 ;; Registers used:
  6347 ;;		wreg, fsr2l, fsr2h, status,2, status,0, cstack
  6348 ;; Tracked objects:
  6349 ;;		On entry : 0/0
  6350 ;;		On exit  : 0/0
  6351 ;;		Unchanged: 0/0
  6352 ;; Data sizes:     COMRAM   BANK0   BANK1   BANK2   BANK3   BANK4   BANK5   BANK6   BANK7
  6353 ;;      Params:         0       0       0       0       0       0       0       0       0
  6354 ;;      Locals:         1       0       0       0       0       0       0       0       0
  6355 ;;      Temps:          0       0       0       0       0       0       0       0       0
  6356 ;;      Totals:         1       0       0       0       0       0       0       0       0
  6357 ;;Total ram usage:        1 bytes
  6358 ;; Hardware stack levels used: 1
  6359 ;; Hardware stack levels required when called: 3
  6360 ;; This function calls:
  6361 ;;		_MAX30102_ReadRegister
  6362 ;; This function is called by:
  6363 ;;		_MAX30102_Init
  6364 ;; This function uses a non-reentrant model
  6365 ;;
  6366                           
  6367                           	psect	text25
  6368   005A30                     __ptext25:
  6369                           	callstack 0
  6370   005A30                     _MAX30102_Check:
  6371                           	callstack 26
  6372   005A30                     
  6373                           ;max30102.c: 27:     unsigned char part_id;;max30102.c: 28:     if (!MAX30102_ReadRegist
      +                          er(0xFF, &part_id)) return 0;
  6374   005A30  0E07               	movlw	low MAX30102_Check@part_id
  6375   005A32  6E05               	movwf	MAX30102_ReadRegister@data^0,c
  6376   005A34  0EFF               	movlw	255
  6377   005A36  ECE5  F02C         	call	_MAX30102_ReadRegister
  6378   005A3A  0900               	iorlw	0
  6379   005A3C  A4D8               	btfss	status,2,c
  6380   005A3E  EF23  F02D         	goto	u2301
  6381   005A42  EF25  F02D         	goto	u2300
  6382   005A46                     u2301:
  6383   005A46  EF28  F02D         	goto	l2988
  6384   005A4A                     u2300:
  6385   005A4A  0E00               	movlw	0
  6386   005A4C  EF33  F02D         	goto	l219
  6387   005A50                     l2988:
  6388                           
  6389                           ;max30102.c: 29:     return (part_id == 0x15);
  6390   005A50  0E15               	movlw	21
  6391   005A52  1807               	xorwf	MAX30102_Check@part_id^0,w,c
  6392   005A54  B4D8               	btfsc	status,2,c
  6393   005A56  EF2F  F02D         	goto	u2311
  6394   005A5A  EF32  F02D         	goto	u2310
  6395   005A5E                     u2311:
  6396   005A5E  0E01               	movlw	1
  6397   005A60  EF33  F02D         	goto	u2320
  6398   005A64                     u2310:
  6399   005A64  0E00               	movlw	0
  6400   005A66                     u2320:
  6401   005A66                     l219:
  6402   005A66  0012               	return		;funcret
  6403   005A68                     __end_of_MAX30102_Check:
  6404                           	callstack 0
  6405                           
  6406 ;; *************** function _MAX30102_ReadRegister *****************
  6407 ;; Defined at:
  6408 ;;		line 15 in file "max30102.c"
  6409 ;; Parameters:    Size  Location     Type
  6410 ;;  reg             1    wreg     unsigned char 
  6411 ;;  data            1    4[COMRAM] PTR unsigned char 
  6412 ;;		 -> MAX30102_SamplesAvailable@read_ptr(1), MAX30102_SamplesAvailable@write_ptr(1), MAX30102_Init@status(1), MAX30102
      +_Check@part_id(1), 
  6413 ;; Auto vars:     Size  Location     Type
  6414 ;;  reg             1    5[COMRAM] unsigned char 
  6415 ;; Return value:  Size  Location     Type
  6416 ;;                  1    wreg      unsigned char 
  6417 ;; Registers used:
  6418 ;;		wreg, fsr2l, fsr2h, status,2, status,0, cstack
  6419 ;; Tracked objects:
  6420 ;;		On entry : 0/0
  6421 ;;		On exit  : 0/0
  6422 ;;		Unchanged: 0/0
  6423 ;; Data sizes:     COMRAM   BANK0   BANK1   BANK2   BANK3   BANK4   BANK5   BANK6   BANK7
  6424 ;;      Params:         1       0       0       0       0       0       0       0       0
  6425 ;;      Locals:         1       0       0       0       0       0       0       0       0
  6426 ;;      Temps:          0       0       0       0       0       0       0       0       0
  6427 ;;      Totals:         2       0       0       0       0       0       0       0       0
  6428 ;;Total ram usage:        2 bytes
  6429 ;; Hardware stack levels used: 1
  6430 ;; This function calls:
  6431 ;;		_I2C_Read
  6432 ;;		_I2C_RepeatedStart
  6433 ;;		_I2C_Start
  6434 ;;		_I2C_Stop
  6435 ;;		_I2C_Write
  6436 ;; This function is called by:
  6437 ;;		_MAX30102_Check
  6438 ;;		_MAX30102_Init
  6439 ;;		_MAX30102_SamplesAvailable
  6440 ;; This function uses a non-reentrant model
  6441 ;;
  6442                           
  6443                           	psect	text26
  6444   0059CA                     __ptext26:
  6445                           	callstack 0
  6446   0059CA                     _MAX30102_ReadRegister:
  6447                           	callstack 28
  6448                           
  6449                           ;incstack = 0
  6450                           ;MAX30102_ReadRegister@reg stored from wreg
  6451   0059CA  6E06               	movwf	MAX30102_ReadRegister@reg^0,c
  6452   0059CC                     
  6453                           ;max30102.c: 16:     I2C_Start();
  6454   0059CC  ECCF  F02C         	call	_I2C_Start	;wreg free
  6455   0059D0                     
  6456                           ;max30102.c: 17:     I2C_Write(0xAE);
  6457   0059D0  0EAE               	movlw	174
  6458   0059D2  EC60  F02F         	call	_I2C_Write
  6459   0059D6                     
  6460                           ;max30102.c: 18:     I2C_Write(reg);
  6461   0059D6  5006               	movf	MAX30102_ReadRegister@reg^0,w,c
  6462   0059D8  EC60  F02F         	call	_I2C_Write
  6463                           
  6464                           ;max30102.c: 19:     I2C_RepeatedStart();
  6465   0059DC  EC1D  F02C         	call	_I2C_RepeatedStart	;wreg free
  6466   0059E0                     
  6467                           ;max30102.c: 20:     I2C_Write(0xAF);
  6468   0059E0  0EAF               	movlw	175
  6469   0059E2  EC60  F02F         	call	_I2C_Write
  6470   0059E6                     
  6471                           ;max30102.c: 21:     *data = I2C_Read(0);
  6472   0059E6  5005               	movf	MAX30102_ReadRegister@data^0,w,c
  6473   0059E8  6ED9               	movwf	fsr2l,c
  6474   0059EA  6ADA               	clrf	fsr2h,c
  6475   0059EC  0E00               	movlw	0
  6476   0059EE  EC9C  F02F         	call	_I2C_Read
  6477   0059F2  6EDF               	movwf	indf2,c
  6478   0059F4                     
  6479                           ;max30102.c: 22:     I2C_Stop();
  6480   0059F4  EC63  F02C         	call	_I2C_Stop	;wreg free
  6481   0059F8                     
  6482                           ;max30102.c: 23:     return 1;
  6483   0059F8  0E01               	movlw	1
  6484   0059FA  0012               	return		;funcret
  6485   0059FC                     __end_of_MAX30102_ReadRegister:
  6486                           	callstack 0
  6487                           
  6488 ;; *************** function _I2C_Write *****************
  6489 ;; Defined at:
  6490 ;;		line 40 in file "i2c.c"
  6491 ;; Parameters:    Size  Location     Type
  6492 ;;  data            1    wreg     unsigned char 
  6493 ;; Auto vars:     Size  Location     Type
  6494 ;;  data            1    1[COMRAM] unsigned char 
  6495 ;;  i               1    2[COMRAM] unsigned char 
  6496 ;; Return value:  Size  Location     Type
  6497 ;;                  1    wreg      void 
  6498 ;; Registers used:
  6499 ;;		wreg, status,2, status,0
  6500 ;; Tracked objects:
  6501 ;;		On entry : 0/0
  6502 ;;		On exit  : 0/0
  6503 ;;		Unchanged: 0/0
  6504 ;; Data sizes:     COMRAM   BANK0   BANK1   BANK2   BANK3   BANK4   BANK5   BANK6   BANK7
  6505 ;;      Params:         0       0       0       0       0       0       0       0       0
  6506 ;;      Locals:         2       0       0       0       0       0       0       0       0
  6507 ;;      Temps:          1       0       0       0       0       0       0       0       0
  6508 ;;      Totals:         3       0       0       0       0       0       0       0       0
  6509 ;;Total ram usage:        3 bytes
  6510 ;; Hardware stack levels used: 1
  6511 ;; This function calls:
  6512 ;;		Nothing
  6513 ;; This function is called by:
  6514 ;;		_OLED_Command
  6515 ;;		_OLED_Clear
  6516 ;;		_OLED_ClearLine
  6517 ;;		_OLED_WriteChar
  6518 ;;		_MAX30102_WriteRegister
  6519 ;;		_MAX30102_ReadRegister
  6520 ;;		_MAX30102_ReadSample
  6521 ;;		_OLED_Data
  6522 ;; This function uses a non-reentrant model
  6523 ;;
  6524                           
  6525                           	psect	text27
  6526   005EC0                     __ptext27:
  6527                           	callstack 0
  6528   005EC0                     _I2C_Write:
  6529                           	callstack 27
  6530                           
  6531                           ;incstack = 0
  6532                           ;I2C_Write@data stored from wreg
  6533   005EC0  6E02               	movwf	I2C_Write@data^0,c
  6534   005EC2                     
  6535                           ;i2c.c: 41:     unsigned char i;;i2c.c: 42:     for (i = 0; i < 8; i++) {
  6536   005EC2  6A03               	clrf	I2C_Write@i^0,c
  6537   005EC4                     l2634:
  6538                           
  6539                           ;i2c.c: 43:         LATBbits.LATB1 = (data & 0x80) ? 1 : 0;
  6540   005EC4  BE02               	btfsc	I2C_Write@data^0,7,c
  6541   005EC6  EF67  F02F         	goto	u1931
  6542   005ECA  EF6B  F02F         	goto	u1930
  6543   005ECE                     u1931:
  6544   005ECE  6A01               	clrf	??_I2C_Write^0,c
  6545   005ED0  2A01               	incf	??_I2C_Write^0,f,c
  6546   005ED2  EF6C  F02F         	goto	u1948
  6547   005ED6                     u1930:
  6548   005ED6  6A01               	clrf	??_I2C_Write^0,c
  6549   005ED8                     u1948:
  6550   005ED8  4601               	rlncf	??_I2C_Write^0,f,c
  6551   005EDA  508A               	movf	138,w,c	;volatile
  6552   005EDC  1801               	xorwf	??_I2C_Write^0,w,c
  6553   005EDE  0BFD               	andlw	-3
  6554   005EE0  1801               	xorwf	??_I2C_Write^0,w,c
  6555   005EE2  6E8A               	movwf	138,c	;volatile
  6556                           
  6557                           ;i2c.c: 44:         data <<= 1;
  6558   005EE4  90D8               	bcf	status,0,c
  6559   005EE6  3602               	rlcf	I2C_Write@data^0,f,c
  6560   005EE8                     
  6561                           ;i2c.c: 45:         _delay((unsigned long)((5)*(8000000/4000000.0)));
  6562   005EE8  0E03               	movlw	3
  6563   005EEA                     u3927:
  6564   005EEA  2EE8               	decfsz	wreg,f,c
  6565   005EEC  D7FE               	bra	u3927
  6566   005EEE  0000               	nop	
  6567   005EF0                     
  6568                           ;i2c.c: 46:         LATBbits.LATB0 = 1; _delay((unsigned long)((5)*(8000000/4000000.0)))
      +                          ;
  6569   005EF0  808A               	bsf	138,0,c	;volatile
  6570   005EF2  0E03               	movlw	3
  6571   005EF4                     u3937:
  6572   005EF4  2EE8               	decfsz	wreg,f,c
  6573   005EF6  D7FE               	bra	u3937
  6574   005EF8  0000               	nop	
  6575   005EFA                     
  6576                           ;i2c.c: 47:         LATBbits.LATB0 = 0; _delay((unsigned long)((5)*(8000000/4000000.0)))
      +                          ;
  6577   005EFA  908A               	bcf	138,0,c	;volatile
  6578   005EFC  0E03               	movlw	3
  6579   005EFE                     u3947:
  6580   005EFE  2EE8               	decfsz	wreg,f,c
  6581   005F00  D7FE               	bra	u3947
  6582   005F02  0000               	nop	
  6583                           
  6584                           ;i2c.c: 48:     }
  6585   005F04  2A03               	incf	I2C_Write@i^0,f,c
  6586   005F06  0E07               	movlw	7
  6587   005F08  6403               	cpfsgt	I2C_Write@i^0,c
  6588   005F0A  EF89  F02F         	goto	u1951
  6589   005F0E  EF8B  F02F         	goto	u1950
  6590   005F12                     u1951:
  6591   005F12  EF62  F02F         	goto	l2634
  6592   005F16                     u1950:
  6593   005F16                     
  6594                           ;i2c.c: 49:     TRISBbits.TRISB1 = 1; _delay((unsigned long)((5)*(8000000/4000000.0)));
  6595   005F16  8293               	bsf	147,1,c	;volatile
  6596   005F18  0E03               	movlw	3
  6597   005F1A                     u3957:
  6598   005F1A  2EE8               	decfsz	wreg,f,c
  6599   005F1C  D7FE               	bra	u3957
  6600   005F1E  0000               	nop	
  6601   005F20                     
  6602                           ;i2c.c: 50:     LATBbits.LATB0 = 1; _delay((unsigned long)((5)*(8000000/4000000.0)));
  6603   005F20  808A               	bsf	138,0,c	;volatile
  6604   005F22  0E03               	movlw	3
  6605   005F24                     u3967:
  6606   005F24  2EE8               	decfsz	wreg,f,c
  6607   005F26  D7FE               	bra	u3967
  6608   005F28  0000               	nop	
  6609   005F2A                     
  6610                           ;i2c.c: 51:     LATBbits.LATB0 = 0;
  6611   005F2A  908A               	bcf	138,0,c	;volatile
  6612   005F2C                     
  6613                           ;i2c.c: 52:     TRISBbits.TRISB1 = 0; _delay((unsigned long)((5)*(8000000/4000000.0)));
  6614   005F2C  9293               	bcf	147,1,c	;volatile
  6615   005F2E  0E03               	movlw	3
  6616   005F30                     u3977:
  6617   005F30  2EE8               	decfsz	wreg,f,c
  6618   005F32  D7FE               	bra	u3977
  6619   005F34  0000               	nop	
  6620   005F36  0012               	return		;funcret
  6621   005F38                     __end_of_I2C_Write:
  6622                           	callstack 0
  6623                           
  6624 ;; *************** function _I2C_RepeatedStart *****************
  6625 ;; Defined at:
  6626 ;;		line 34 in file "i2c.c"
  6627 ;; Parameters:    Size  Location     Type
  6628 ;;		None
  6629 ;; Auto vars:     Size  Location     Type
  6630 ;;		None
  6631 ;; Return value:  Size  Location     Type
  6632 ;;                  1    wreg      void 
  6633 ;; Registers used:
  6634 ;;		wreg, cstack
  6635 ;; Tracked objects:
  6636 ;;		On entry : 0/0
  6637 ;;		On exit  : 0/0
  6638 ;;		Unchanged: 0/0
  6639 ;; Data sizes:     COMRAM   BANK0   BANK1   BANK2   BANK3   BANK4   BANK5   BANK6   BANK7
  6640 ;;      Params:         0       0       0       0       0       0       0       0       0
  6641 ;;      Locals:         0       0       0       0       0       0       0       0       0
  6642 ;;      Temps:          0       0       0       0       0       0       0       0       0
  6643 ;;      Totals:         0       0       0       0       0       0       0       0       0
  6644 ;;Total ram usage:        0 bytes
  6645 ;; Hardware stack levels used: 1
  6646 ;; This function calls:
  6647 ;;		_I2C_Start
  6648 ;;		_I2C_Stop
  6649 ;; This function is called by:
  6650 ;;		_MAX30102_ReadRegister
  6651 ;;		_MAX30102_ReadSample
  6652 ;; This function uses a non-reentrant model
  6653 ;;
  6654                           
  6655                           	psect	text28
  6656   00583A                     __ptext28:
  6657                           	callstack 0
  6658   00583A                     _I2C_RepeatedStart:
  6659                           	callstack 27
  6660   00583A                     
  6661                           ;i2c.c: 35:     I2C_Stop();
  6662   00583A  EC63  F02C         	call	_I2C_Stop	;wreg free
  6663   00583E                     
  6664                           ;i2c.c: 36:     _delay((unsigned long)((5)*(8000000/4000000.0)));
  6665   00583E  0E03               	movlw	3
  6666   005840                     u3987:
  6667   005840  2EE8               	decfsz	wreg,f,c
  6668   005842  D7FE               	bra	u3987
  6669   005844  0000               	nop	
  6670   005846                     
  6671                           ;i2c.c: 37:     I2C_Start();
  6672   005846  ECCF  F02C         	call	_I2C_Start	;wreg free
  6673   00584A  0012               	return		;funcret
  6674   00584C                     __end_of_I2C_RepeatedStart:
  6675                           	callstack 0
  6676                           
  6677 ;; *************** function _I2C_Stop *****************
  6678 ;; Defined at:
  6679 ;;		line 27 in file "i2c.c"
  6680 ;; Parameters:    Size  Location     Type
  6681 ;;		None
  6682 ;; Auto vars:     Size  Location     Type
  6683 ;;		None
  6684 ;; Return value:  Size  Location     Type
  6685 ;;                  1    wreg      void 
  6686 ;; Registers used:
  6687 ;;		wreg
  6688 ;; Tracked objects:
  6689 ;;		On entry : 0/0
  6690 ;;		On exit  : 0/0
  6691 ;;		Unchanged: 0/0
  6692 ;; Data sizes:     COMRAM   BANK0   BANK1   BANK2   BANK3   BANK4   BANK5   BANK6   BANK7
  6693 ;;      Params:         0       0       0       0       0       0       0       0       0
  6694 ;;      Locals:         0       0       0       0       0       0       0       0       0
  6695 ;;      Temps:          0       0       0       0       0       0       0       0       0
  6696 ;;      Totals:         0       0       0       0       0       0       0       0       0
  6697 ;;Total ram usage:        0 bytes
  6698 ;; Hardware stack levels used: 1
  6699 ;; This function calls:
  6700 ;;		Nothing
  6701 ;; This function is called by:
  6702 ;;		_I2C_RepeatedStart
  6703 ;;		_OLED_Command
  6704 ;;		_OLED_Clear
  6705 ;;		_OLED_ClearLine
  6706 ;;		_OLED_WriteChar
  6707 ;;		_MAX30102_WriteRegister
  6708 ;;		_MAX30102_ReadRegister
  6709 ;;		_MAX30102_ReadSample
  6710 ;;		_OLED_Data
  6711 ;; This function uses a non-reentrant model
  6712 ;;
  6713                           
  6714                           	psect	text29
  6715   0058C6                     __ptext29:
  6716                           	callstack 0
  6717   0058C6                     _I2C_Stop:
  6718                           	callstack 26
  6719   0058C6                     
  6720                           ;i2c.c: 28:     TRISBbits.TRISB1 = 0;
  6721   0058C6  9293               	bcf	147,1,c	;volatile
  6722                           
  6723                           ;i2c.c: 29:     LATBbits.LATB1 = 0; _delay((unsigned long)((5)*(8000000/4000000.0)));
  6724   0058C8  928A               	bcf	138,1,c	;volatile
  6725   0058CA  0E03               	movlw	3
  6726   0058CC                     u3997:
  6727   0058CC  2EE8               	decfsz	wreg,f,c
  6728   0058CE  D7FE               	bra	u3997
  6729   0058D0  0000               	nop	
  6730   0058D2                     
  6731                           ;i2c.c: 30:     LATBbits.LATB0 = 1; _delay((unsigned long)((5)*(8000000/4000000.0)));
  6732   0058D2  808A               	bsf	138,0,c	;volatile
  6733   0058D4  0E03               	movlw	3
  6734   0058D6                     u4007:
  6735   0058D6  2EE8               	decfsz	wreg,f,c
  6736   0058D8  D7FE               	bra	u4007
  6737   0058DA  0000               	nop	
  6738   0058DC                     
  6739                           ;i2c.c: 31:     LATBbits.LATB1 = 1; _delay((unsigned long)((5)*(8000000/4000000.0)));
  6740   0058DC  828A               	bsf	138,1,c	;volatile
  6741   0058DE  0E03               	movlw	3
  6742   0058E0                     u4017:
  6743   0058E0  2EE8               	decfsz	wreg,f,c
  6744   0058E2  D7FE               	bra	u4017
  6745   0058E4  0000               	nop	
  6746   0058E6  0012               	return		;funcret
  6747   0058E8                     __end_of_I2C_Stop:
  6748                           	callstack 0
  6749                           
  6750 ;; *************** function _I2C_Start *****************
  6751 ;; Defined at:
  6752 ;;		line 19 in file "i2c.c"
  6753 ;; Parameters:    Size  Location     Type
  6754 ;;		None
  6755 ;; Auto vars:     Size  Location     Type
  6756 ;;		None
  6757 ;; Return value:  Size  Location     Type
  6758 ;;                  1    wreg      void 
  6759 ;; Registers used:
  6760 ;;		wreg
  6761 ;; Tracked objects:
  6762 ;;		On entry : 0/0
  6763 ;;		On exit  : 0/0
  6764 ;;		Unchanged: 0/0
  6765 ;; Data sizes:     COMRAM   BANK0   BANK1   BANK2   BANK3   BANK4   BANK5   BANK6   BANK7
  6766 ;;      Params:         0       0       0       0       0       0       0       0       0
  6767 ;;      Locals:         0       0       0       0       0       0       0       0       0
  6768 ;;      Temps:          0       0       0       0       0       0       0       0       0
  6769 ;;      Totals:         0       0       0       0       0       0       0       0       0
  6770 ;;Total ram usage:        0 bytes
  6771 ;; Hardware stack levels used: 1
  6772 ;; This function calls:
  6773 ;;		Nothing
  6774 ;; This function is called by:
  6775 ;;		_I2C_RepeatedStart
  6776 ;;		_OLED_Command
  6777 ;;		_OLED_Clear
  6778 ;;		_OLED_ClearLine
  6779 ;;		_OLED_WriteChar
  6780 ;;		_MAX30102_WriteRegister
  6781 ;;		_MAX30102_ReadRegister
  6782 ;;		_MAX30102_ReadSample
  6783 ;;		_OLED_Data
  6784 ;; This function uses a non-reentrant model
  6785 ;;
  6786                           
  6787                           	psect	text30
  6788   00599E                     __ptext30:
  6789                           	callstack 0
  6790   00599E                     _I2C_Start:
  6791                           	callstack 26
  6792   00599E                     
  6793                           ;i2c.c: 20:     TRISBbits.TRISB1 = 0;
  6794   00599E  9293               	bcf	147,1,c	;volatile
  6795                           
  6796                           ;i2c.c: 21:     LATBbits.LATB1 = 1; _delay((unsigned long)((5)*(8000000/4000000.0)));
  6797   0059A0  828A               	bsf	138,1,c	;volatile
  6798   0059A2  0E03               	movlw	3
  6799   0059A4                     u4027:
  6800   0059A4  2EE8               	decfsz	wreg,f,c
  6801   0059A6  D7FE               	bra	u4027
  6802   0059A8  0000               	nop	
  6803   0059AA                     
  6804                           ;i2c.c: 22:     LATBbits.LATB0 = 1; _delay((unsigned long)((5)*(8000000/4000000.0)));
  6805   0059AA  808A               	bsf	138,0,c	;volatile
  6806   0059AC  0E03               	movlw	3
  6807   0059AE                     u4037:
  6808   0059AE  2EE8               	decfsz	wreg,f,c
  6809   0059B0  D7FE               	bra	u4037
  6810   0059B2  0000               	nop	
  6811   0059B4                     
  6812                           ;i2c.c: 23:     LATBbits.LATB1 = 0; _delay((unsigned long)((5)*(8000000/4000000.0)));
  6813   0059B4  928A               	bcf	138,1,c	;volatile
  6814   0059B6  0E03               	movlw	3
  6815   0059B8                     u4047:
  6816   0059B8  2EE8               	decfsz	wreg,f,c
  6817   0059BA  D7FE               	bra	u4047
  6818   0059BC  0000               	nop	
  6819   0059BE                     
  6820                           ;i2c.c: 24:     LATBbits.LATB0 = 0; _delay((unsigned long)((5)*(8000000/4000000.0)));
  6821   0059BE  908A               	bcf	138,0,c	;volatile
  6822   0059C0  0E03               	movlw	3
  6823   0059C2                     u4057:
  6824   0059C2  2EE8               	decfsz	wreg,f,c
  6825   0059C4  D7FE               	bra	u4057
  6826   0059C6  0000               	nop	
  6827   0059C8  0012               	return		;funcret
  6828   0059CA                     __end_of_I2C_Start:
  6829                           	callstack 0
  6830                           
  6831 ;; *************** function _I2C_Read *****************
  6832 ;; Defined at:
  6833 ;;		line 55 in file "i2c.c"
  6834 ;; Parameters:    Size  Location     Type
  6835 ;;  ack             1    wreg     unsigned char 
  6836 ;; Auto vars:     Size  Location     Type
  6837 ;;  ack             1    1[COMRAM] unsigned char 
  6838 ;;  i               1    3[COMRAM] unsigned char 
  6839 ;;  data            1    2[COMRAM] unsigned char 
  6840 ;; Return value:  Size  Location     Type
  6841 ;;                  1    wreg      unsigned char 
  6842 ;; Registers used:
  6843 ;;		wreg, status,2, status,0
  6844 ;; Tracked objects:
  6845 ;;		On entry : 0/0
  6846 ;;		On exit  : 0/0
  6847 ;;		Unchanged: 0/0
  6848 ;; Data sizes:     COMRAM   BANK0   BANK1   BANK2   BANK3   BANK4   BANK5   BANK6   BANK7
  6849 ;;      Params:         0       0       0       0       0       0       0       0       0
  6850 ;;      Locals:         3       0       0       0       0       0       0       0       0
  6851 ;;      Temps:          1       0       0       0       0       0       0       0       0
  6852 ;;      Totals:         4       0       0       0       0       0       0       0       0
  6853 ;;Total ram usage:        4 bytes
  6854 ;; Hardware stack levels used: 1
  6855 ;; This function calls:
  6856 ;;		Nothing
  6857 ;; This function is called by:
  6858 ;;		_MAX30102_ReadRegister
  6859 ;;		_MAX30102_ReadSample
  6860 ;; This function uses a non-reentrant model
  6861 ;;
  6862                           
  6863                           	psect	text31
  6864   005F38                     __ptext31:
  6865                           	callstack 0
  6866   005F38                     _I2C_Read:
  6867                           	callstack 27
  6868                           
  6869                           ;incstack = 0
  6870                           ;I2C_Read@ack stored from wreg
  6871   005F38  6E02               	movwf	I2C_Read@ack^0,c
  6872   005F3A                     
  6873                           ;i2c.c: 56:     unsigned char data = 0;
  6874   005F3A  6A03               	clrf	I2C_Read@data^0,c
  6875                           
  6876                           ;i2c.c: 57:     unsigned char i;;i2c.c: 58:     TRISBbits.TRISB1 = 1;
  6877   005F3C  8293               	bsf	147,1,c	;volatile
  6878                           
  6879                           ;i2c.c: 59:     for (i = 0; i < 8; i++) {
  6880   005F3E  6A04               	clrf	I2C_Read@i^0,c
  6881   005F40                     l2662:
  6882                           
  6883                           ;i2c.c: 60:         data <<= 1;
  6884   005F40  90D8               	bcf	status,0,c
  6885   005F42  3603               	rlcf	I2C_Read@data^0,f,c
  6886   005F44                     
  6887                           ;i2c.c: 61:         _delay((unsigned long)((5)*(8000000/4000000.0)));
  6888   005F44  0E03               	movlw	3
  6889   005F46                     u4067:
  6890   005F46  2EE8               	decfsz	wreg,f,c
  6891   005F48  D7FE               	bra	u4067
  6892   005F4A  0000               	nop	
  6893   005F4C                     
  6894                           ;i2c.c: 62:         LATBbits.LATB0 = 1; _delay((unsigned long)((5)*(8000000/4000000.0)))
      +                          ;
  6895   005F4C  808A               	bsf	138,0,c	;volatile
  6896   005F4E  0E03               	movlw	3
  6897   005F50                     u4077:
  6898   005F50  2EE8               	decfsz	wreg,f,c
  6899   005F52  D7FE               	bra	u4077
  6900   005F54  0000               	nop	
  6901   005F56                     
  6902                           ;i2c.c: 63:         if (PORTBbits.RB1) data |= 0x01;
  6903   005F56  A281               	btfss	129,1,c	;volatile
  6904   005F58  EFB0  F02F         	goto	u1961
  6905   005F5C  EFB2  F02F         	goto	u1960
  6906   005F60                     u1961:
  6907   005F60  EFB3  F02F         	goto	l2674
  6908   005F64                     u1960:
  6909   005F64  8003               	bsf	I2C_Read@data^0,0,c
  6910   005F66                     l2674:
  6911                           
  6912                           ;i2c.c: 64:         LATBbits.LATB0 = 0; _delay((unsigned long)((5)*(8000000/4000000.0)))
      +                          ;
  6913   005F66  908A               	bcf	138,0,c	;volatile
  6914   005F68  0E03               	movlw	3
  6915   005F6A                     u4087:
  6916   005F6A  2EE8               	decfsz	wreg,f,c
  6917   005F6C  D7FE               	bra	u4087
  6918   005F6E  0000               	nop	
  6919   005F70                     
  6920                           ;i2c.c: 65:     }
  6921   005F70  2A04               	incf	I2C_Read@i^0,f,c
  6922   005F72  0E07               	movlw	7
  6923   005F74  6404               	cpfsgt	I2C_Read@i^0,c
  6924   005F76  EFBF  F02F         	goto	u1971
  6925   005F7A  EFC1  F02F         	goto	u1970
  6926   005F7E                     u1971:
  6927   005F7E  EFA0  F02F         	goto	l2662
  6928   005F82                     u1970:
  6929   005F82                     
  6930                           ;i2c.c: 66:     TRISBbits.TRISB1 = 0;
  6931   005F82  9293               	bcf	147,1,c	;volatile
  6932   005F84                     
  6933                           ;i2c.c: 67:     LATBbits.LATB1 = (ack) ? 0 : 1;
  6934   005F84  5002               	movf	I2C_Read@ack^0,w,c
  6935   005F86  B4D8               	btfsc	status,2,c
  6936   005F88  EFC8  F02F         	goto	u1981
  6937   005F8C  EFCC  F02F         	goto	u1980
  6938   005F90                     u1981:
  6939   005F90  6A01               	clrf	??_I2C_Read^0,c
  6940   005F92  2A01               	incf	??_I2C_Read^0,f,c
  6941   005F94  EFCD  F02F         	goto	u1998
  6942   005F98                     u1980:
  6943   005F98  6A01               	clrf	??_I2C_Read^0,c
  6944   005F9A                     u1998:
  6945   005F9A  4601               	rlncf	??_I2C_Read^0,f,c
  6946   005F9C  508A               	movf	138,w,c	;volatile
  6947   005F9E  1801               	xorwf	??_I2C_Read^0,w,c
  6948   005FA0  0BFD               	andlw	-3
  6949   005FA2  1801               	xorwf	??_I2C_Read^0,w,c
  6950   005FA4  6E8A               	movwf	138,c	;volatile
  6951   005FA6                     
  6952                           ;i2c.c: 68:     _delay((unsigned long)((5)*(8000000/4000000.0)));
  6953   005FA6  0E03               	movlw	3
  6954   005FA8                     u4097:
  6955   005FA8  2EE8               	decfsz	wreg,f,c
  6956   005FAA  D7FE               	bra	u4097
  6957   005FAC  0000               	nop	
  6958   005FAE                     
  6959                           ;i2c.c: 69:     LATBbits.LATB0 = 1; _delay((unsigned long)((5)*(8000000/4000000.0)));
  6960   005FAE  808A               	bsf	138,0,c	;volatile
  6961   005FB0  0E03               	movlw	3
  6962   005FB2                     u4107:
  6963   005FB2  2EE8               	decfsz	wreg,f,c
  6964   005FB4  D7FE               	bra	u4107
  6965   005FB6  0000               	nop	
  6966   005FB8                     
  6967                           ;i2c.c: 70:     LATBbits.LATB0 = 0;
  6968   005FB8  908A               	bcf	138,0,c	;volatile
  6969   005FBA                     
  6970                           ;i2c.c: 71:     LATBbits.LATB1 = 1; _delay((unsigned long)((5)*(8000000/4000000.0)));
  6971   005FBA  828A               	bsf	138,1,c	;volatile
  6972   005FBC  0E03               	movlw	3
  6973   005FBE                     u4117:
  6974   005FBE  2EE8               	decfsz	wreg,f,c
  6975   005FC0  D7FE               	bra	u4117
  6976   005FC2  0000               	nop	
  6977   005FC4                     
  6978                           ;i2c.c: 72:     return data;
  6979   005FC4  5003               	movf	I2C_Read@data^0,w,c
  6980   005FC6  0012               	return		;funcret
  6981   005FC8                     __end_of_I2C_Read:
  6982                           	callstack 0
  6983                           
  6984 ;; *************** function _I2C_Init *****************
  6985 ;; Defined at:
  6986 ;;		line 11 in file "i2c.c"
  6987 ;; Parameters:    Size  Location     Type
  6988 ;;		None
  6989 ;; Auto vars:     Size  Location     Type
  6990 ;;		None
  6991 ;; Return value:  Size  Location     Type
  6992 ;;                  1    wreg      void 
  6993 ;; Registers used:
  6994 ;;		None
  6995 ;; Tracked objects:
  6996 ;;		On entry : 0/0
  6997 ;;		On exit  : 0/0
  6998 ;;		Unchanged: 0/0
  6999 ;; Data sizes:     COMRAM   BANK0   BANK1   BANK2   BANK3   BANK4   BANK5   BANK6   BANK7
  7000 ;;      Params:         0       0       0       0       0       0       0       0       0
  7001 ;;      Locals:         0       0       0       0       0       0       0       0       0
  7002 ;;      Temps:          0       0       0       0       0       0       0       0       0
  7003 ;;      Totals:         0       0       0       0       0       0       0       0       0
  7004 ;;Total ram usage:        0 bytes
  7005 ;; Hardware stack levels used: 1
  7006 ;; This function calls:
  7007 ;;		Nothing
  7008 ;; This function is called by:
  7009 ;;		_main
  7010 ;; This function uses a non-reentrant model
  7011 ;;
  7012                           
  7013                           	psect	text32
  7014   00582E                     __ptext32:
  7015                           	callstack 0
  7016   00582E                     _I2C_Init:
  7017                           	callstack 30
  7018   00582E                     
  7019                           ;i2c.c: 12:     TRISBbits.TRISB0 = 0;
  7020   00582E  9093               	bcf	147,0,c	;volatile
  7021                           
  7022                           ;i2c.c: 13:     TRISBbits.TRISB1 = 0;
  7023   005830  9293               	bcf	147,1,c	;volatile
  7024                           
  7025                           ;i2c.c: 14:     LATBbits.LATB0 = 1;
  7026   005832  808A               	bsf	138,0,c	;volatile
  7027                           
  7028                           ;i2c.c: 15:     LATBbits.LATB1 = 1;
  7029   005834  828A               	bsf	138,1,c	;volatile
  7030                           
  7031                           ;i2c.c: 16:     INTCON2bits.RBPU = 0;
  7032   005836  9EF1               	bcf	241,7,c	;volatile
  7033   005838  0012               	return		;funcret
  7034   00583A                     __end_of_I2C_Init:
  7035                           	callstack 0
  7036                           
  7037 ;; *************** function _DS18B20_WaitConversion *****************
  7038 ;; Defined at:
  7039 ;;		line 125 in file "ds18b20.c"
  7040 ;; Parameters:    Size  Location     Type
  7041 ;;		None
  7042 ;; Auto vars:     Size  Location     Type
  7043 ;;		None
  7044 ;; Return value:  Size  Location     Type
  7045 ;;                  1    wreg      void 
  7046 ;; Registers used:
  7047 ;;		wreg
  7048 ;; Tracked objects:
  7049 ;;		On entry : 0/0
  7050 ;;		On exit  : 0/0
  7051 ;;		Unchanged: 0/0
  7052 ;; Data sizes:     COMRAM   BANK0   BANK1   BANK2   BANK3   BANK4   BANK5   BANK6   BANK7
  7053 ;;      Params:         0       0       0       0       0       0       0       0       0
  7054 ;;      Locals:         0       0       0       0       0       0       0       0       0
  7055 ;;      Temps:          2       0       0       0       0       0       0       0       0
  7056 ;;      Totals:         2       0       0       0       0       0       0       0       0
  7057 ;;Total ram usage:        2 bytes
  7058 ;; Hardware stack levels used: 1
  7059 ;; This function calls:
  7060 ;;		Nothing
  7061 ;; This function is called by:
  7062 ;;		_main
  7063 ;; This function uses a non-reentrant model
  7064 ;;
  7065                           
  7066                           	psect	text33
  7067   0061BC                     __ptext33:
  7068                           	callstack 0
  7069   0061BC                     _DS18B20_WaitConversion:
  7070                           	callstack 30
  7071   0061BC                     
  7072                           ;ds18b20.c: 126:     _delay((unsigned long)((100)*(8000000/4000.0))); _delay((unsigned l
      +                          ong)((100)*(8000000/4000.0)));
  7073   0061BC  0E02               	movlw	2
  7074   0061BE  6E02               	movwf	(??_DS18B20_WaitConversion+1)^0,c
  7075   0061C0  0E04               	movlw	4
  7076   0061C2  6E01               	movwf	??_DS18B20_WaitConversion^0,c
  7077   0061C4  0EBA               	movlw	186
  7078   0061C6                     u4127:
  7079   0061C6  2EE8               	decfsz	wreg,f,c
  7080   0061C8  D7FE               	bra	u4127
  7081   0061CA  2E01               	decfsz	??_DS18B20_WaitConversion^0,f,c
  7082   0061CC  D7FC               	bra	u4127
  7083   0061CE  2E02               	decfsz	(??_DS18B20_WaitConversion+1)^0,f,c
  7084   0061D0  D7FA               	bra	u4127
  7085   0061D2  D000               	nop2	
  7086   0061D4  0E02               	movlw	2
  7087   0061D6  6E02               	movwf	(??_DS18B20_WaitConversion+1)^0,c
  7088   0061D8  0E04               	movlw	4
  7089   0061DA  6E01               	movwf	??_DS18B20_WaitConversion^0,c
  7090   0061DC  0EBA               	movlw	186
  7091   0061DE                     u4137:
  7092   0061DE  2EE8               	decfsz	wreg,f,c
  7093   0061E0  D7FE               	bra	u4137
  7094   0061E2  2E01               	decfsz	??_DS18B20_WaitConversion^0,f,c
  7095   0061E4  D7FC               	bra	u4137
  7096   0061E6  2E02               	decfsz	(??_DS18B20_WaitConversion+1)^0,f,c
  7097   0061E8  D7FA               	bra	u4137
  7098   0061EA  D000               	nop2	
  7099                           
  7100                           ;ds18b20.c: 127:     _delay((unsigned long)((100)*(8000000/4000.0))); _delay((unsigned l
      +                          ong)((100)*(8000000/4000.0)));
  7101   0061EC  0E02               	movlw	2
  7102   0061EE  6E02               	movwf	(??_DS18B20_WaitConversion+1)^0,c
  7103   0061F0  0E04               	movlw	4
  7104   0061F2  6E01               	movwf	??_DS18B20_WaitConversion^0,c
  7105   0061F4  0EBA               	movlw	186
  7106   0061F6                     u4147:
  7107   0061F6  2EE8               	decfsz	wreg,f,c
  7108   0061F8  D7FE               	bra	u4147
  7109   0061FA  2E01               	decfsz	??_DS18B20_WaitConversion^0,f,c
  7110   0061FC  D7FC               	bra	u4147
  7111   0061FE  2E02               	decfsz	(??_DS18B20_WaitConversion+1)^0,f,c
  7112   006200  D7FA               	bra	u4147
  7113   006202  D000               	nop2	
  7114   006204  0E02               	movlw	2
  7115   006206  6E02               	movwf	(??_DS18B20_WaitConversion+1)^0,c
  7116   006208  0E04               	movlw	4
  7117   00620A  6E01               	movwf	??_DS18B20_WaitConversion^0,c
  7118   00620C  0EBA               	movlw	186
  7119   00620E                     u4157:
  7120   00620E  2EE8               	decfsz	wreg,f,c
  7121   006210  D7FE               	bra	u4157
  7122   006212  2E01               	decfsz	??_DS18B20_WaitConversion^0,f,c
  7123   006214  D7FC               	bra	u4157
  7124   006216  2E02               	decfsz	(??_DS18B20_WaitConversion+1)^0,f,c
  7125   006218  D7FA               	bra	u4157
  7126   00621A  D000               	nop2	
  7127                           
  7128                           ;ds18b20.c: 128:     _delay((unsigned long)((100)*(8000000/4000.0))); _delay((unsigned l
      +                          ong)((100)*(8000000/4000.0)));
  7129   00621C  0E02               	movlw	2
  7130   00621E  6E02               	movwf	(??_DS18B20_WaitConversion+1)^0,c
  7131   006220  0E04               	movlw	4
  7132   006222  6E01               	movwf	??_DS18B20_WaitConversion^0,c
  7133   006224  0EBA               	movlw	186
  7134   006226                     u4167:
  7135   006226  2EE8               	decfsz	wreg,f,c
  7136   006228  D7FE               	bra	u4167
  7137   00622A  2E01               	decfsz	??_DS18B20_WaitConversion^0,f,c
  7138   00622C  D7FC               	bra	u4167
  7139   00622E  2E02               	decfsz	(??_DS18B20_WaitConversion+1)^0,f,c
  7140   006230  D7FA               	bra	u4167
  7141   006232  D000               	nop2	
  7142   006234  0E02               	movlw	2
  7143   006236  6E02               	movwf	(??_DS18B20_WaitConversion+1)^0,c
  7144   006238  0E04               	movlw	4
  7145   00623A  6E01               	movwf	??_DS18B20_WaitConversion^0,c
  7146   00623C  0EBA               	movlw	186
  7147   00623E                     u4177:
  7148   00623E  2EE8               	decfsz	wreg,f,c
  7149   006240  D7FE               	bra	u4177
  7150   006242  2E01               	decfsz	??_DS18B20_WaitConversion^0,f,c
  7151   006244  D7FC               	bra	u4177
  7152   006246  2E02               	decfsz	(??_DS18B20_WaitConversion+1)^0,f,c
  7153   006248  D7FA               	bra	u4177
  7154   00624A  D000               	nop2	
  7155                           
  7156                           ;ds18b20.c: 129:     _delay((unsigned long)((100)*(8000000/4000.0))); _delay((unsigned l
      +                          ong)((100)*(8000000/4000.0)));
  7157   00624C  0E02               	movlw	2
  7158   00624E  6E02               	movwf	(??_DS18B20_WaitConversion+1)^0,c
  7159   006250  0E04               	movlw	4
  7160   006252  6E01               	movwf	??_DS18B20_WaitConversion^0,c
  7161   006254  0EBA               	movlw	186
  7162   006256                     u4187:
  7163   006256  2EE8               	decfsz	wreg,f,c
  7164   006258  D7FE               	bra	u4187
  7165   00625A  2E01               	decfsz	??_DS18B20_WaitConversion^0,f,c
  7166   00625C  D7FC               	bra	u4187
  7167   00625E  2E02               	decfsz	(??_DS18B20_WaitConversion+1)^0,f,c
  7168   006260  D7FA               	bra	u4187
  7169   006262  D000               	nop2	
  7170   006264  0E02               	movlw	2
  7171   006266  6E02               	movwf	(??_DS18B20_WaitConversion+1)^0,c
  7172   006268  0E04               	movlw	4
  7173   00626A  6E01               	movwf	??_DS18B20_WaitConversion^0,c
  7174   00626C  0EBA               	movlw	186
  7175   00626E                     u4197:
  7176   00626E  2EE8               	decfsz	wreg,f,c
  7177   006270  D7FE               	bra	u4197
  7178   006272  2E01               	decfsz	??_DS18B20_WaitConversion^0,f,c
  7179   006274  D7FC               	bra	u4197
  7180   006276  2E02               	decfsz	(??_DS18B20_WaitConversion+1)^0,f,c
  7181   006278  D7FA               	bra	u4197
  7182   00627A  D000               	nop2	
  7183   00627C  0012               	return		;funcret
  7184   00627E                     __end_of_DS18B20_WaitConversion:
  7185                           	callstack 0
  7186                           
  7187 ;; *************** function _DS18B20_StartConversion *****************
  7188 ;; Defined at:
  7189 ;;		line 112 in file "ds18b20.c"
  7190 ;; Parameters:    Size  Location     Type
  7191 ;;		None
  7192 ;; Auto vars:     Size  Location     Type
  7193 ;;		None
  7194 ;; Return value:  Size  Location     Type
  7195 ;;                  1    wreg      unsigned char 
  7196 ;; Registers used:
  7197 ;;		wreg, status,2, status,0, cstack
  7198 ;; Tracked objects:
  7199 ;;		On entry : 0/0
  7200 ;;		On exit  : 0/0
  7201 ;;		Unchanged: 0/0
  7202 ;; Data sizes:     COMRAM   BANK0   BANK1   BANK2   BANK3   BANK4   BANK5   BANK6   BANK7
  7203 ;;      Params:         0       0       0       0       0       0       0       0       0
  7204 ;;      Locals:         0       0       0       0       0       0       0       0       0
  7205 ;;      Temps:          0       0       0       0       0       0       0       0       0
  7206 ;;      Totals:         0       0       0       0       0       0       0       0       0
  7207 ;;Total ram usage:        0 bytes
  7208 ;; Hardware stack levels used: 1
  7209 ;; Hardware stack levels required when called: 1
  7210 ;; This function calls:
  7211 ;;		_DS18B20_Reset
  7212 ;;		_DS18B20_WriteByte
  7213 ;; This function is called by:
  7214 ;;		_main
  7215 ;; This function uses a non-reentrant model
  7216 ;;
  7217                           
  7218                           	psect	text34
  7219   005950                     __ptext34:
  7220                           	callstack 0
  7221   005950                     _DS18B20_StartConversion:
  7222                           	callstack 29
  7223   005950                     
  7224                           ;ds18b20.c: 113:     if (!DS18B20_Reset()) return 0;
  7225   005950  EC03  F02E         	call	_DS18B20_Reset	;wreg free
  7226   005954  0900               	iorlw	0
  7227   005956  A4D8               	btfss	status,2,c
  7228   005958  EFB0  F02C         	goto	u3161
  7229   00595C  EFB2  F02C         	goto	u3160
  7230   005960                     u3161:
  7231   005960  EFB4  F02C         	goto	l3594
  7232   005964                     u3160:
  7233   005964  EFBA  F02C         	goto	l310
  7234   005968                     l3594:
  7235                           
  7236                           ;ds18b20.c: 114:     DS18B20_WriteByte(0xCC);
  7237   005968  0ECC               	movlw	204
  7238   00596A  EC96  F02C         	call	_DS18B20_WriteByte
  7239                           
  7240                           ;ds18b20.c: 115:     DS18B20_WriteByte(0x44);
  7241   00596E  0E44               	movlw	68
  7242   005970  EC96  F02C         	call	_DS18B20_WriteByte
  7243   005974                     l310:
  7244   005974  0012               	return		;funcret
  7245   005976                     __end_of_DS18B20_StartConversion:
  7246                           	callstack 0
  7247                           
  7248 ;; *************** function _DS18B20_ReadTemp *****************
  7249 ;; Defined at:
  7250 ;;		line 142 in file "ds18b20.c"
  7251 ;; Parameters:    Size  Location     Type
  7252 ;;		None
  7253 ;; Auto vars:     Size  Location     Type
  7254 ;;  raw             2   45[COMRAM] int 
  7255 ;;  msb             1   48[COMRAM] unsigned char 
  7256 ;;  lsb             1   47[COMRAM] unsigned char 
  7257 ;; Return value:  Size  Location     Type
  7258 ;;                  4   39[COMRAM] float 
  7259 ;; Registers used:
  7260 ;;		wreg, status,2, status,0, cstack
  7261 ;; Tracked objects:
  7262 ;;		On entry : 0/0
  7263 ;;		On exit  : 0/0
  7264 ;;		Unchanged: 0/0
  7265 ;; Data sizes:     COMRAM   BANK0   BANK1   BANK2   BANK3   BANK4   BANK5   BANK6   BANK7
  7266 ;;      Params:         4       0       0       0       0       0       0       0       0
  7267 ;;      Locals:         4       0       0       0       0       0       0       0       0
  7268 ;;      Temps:          2       0       0       0       0       0       0       0       0
  7269 ;;      Totals:        10       0       0       0       0       0       0       0       0
  7270 ;;Total ram usage:       10 bytes
  7271 ;; Hardware stack levels used: 1
  7272 ;; Hardware stack levels required when called: 3
  7273 ;; This function calls:
  7274 ;;		_DS18B20_ReadByte
  7275 ;;		_DS18B20_Reset
  7276 ;;		_DS18B20_WriteByte
  7277 ;;		___fldiv
  7278 ;;		___xxtofl
  7279 ;; This function is called by:
  7280 ;;		_main
  7281 ;; This function uses a non-reentrant model
  7282 ;;
  7283                           
  7284                           	psect	text35
  7285   006792                     __ptext35:
  7286                           	callstack 0
  7287   006792                     _DS18B20_ReadTemp:
  7288                           	callstack 27
  7289   006792                     
  7290                           ;ds18b20.c: 143:     unsigned char lsb, msb;;ds18b20.c: 144:     int raw;;ds18b20.c: 146
      +                          :     if (!DS18B20_Reset()) return -999.0f;
  7291   006792  EC03  F02E         	call	_DS18B20_Reset	;wreg free
  7292   006796  0900               	iorlw	0
  7293   006798  A4D8               	btfss	status,2,c
  7294   00679A  EFD1  F033         	goto	u3171
  7295   00679E  EFD3  F033         	goto	u3170
  7296   0067A2                     u3171:
  7297   0067A2  EFDD  F033         	goto	l3606
  7298   0067A6                     u3170:
  7299   0067A6  0E00               	movlw	0
  7300   0067A8  6E28               	movwf	?_DS18B20_ReadTemp^0,c
  7301   0067AA  0EC0               	movlw	192
  7302   0067AC  6E29               	movwf	(?_DS18B20_ReadTemp+1)^0,c
  7303   0067AE  0E79               	movlw	121
  7304   0067B0  6E2A               	movwf	(?_DS18B20_ReadTemp+2)^0,c
  7305   0067B2  0EC4               	movlw	196
  7306   0067B4  6E2B               	movwf	(?_DS18B20_ReadTemp+3)^0,c
  7307   0067B6  EF6A  F034         	goto	l317
  7308   0067BA                     l3606:
  7309                           
  7310                           ;ds18b20.c: 148:     DS18B20_WriteByte(0xCC);
  7311   0067BA  0ECC               	movlw	204
  7312   0067BC  EC96  F02C         	call	_DS18B20_WriteByte
  7313                           
  7314                           ;ds18b20.c: 149:     DS18B20_WriteByte(0xBE);
  7315   0067C0  0EBE               	movlw	190
  7316   0067C2  EC96  F02C         	call	_DS18B20_WriteByte
  7317                           
  7318                           ;ds18b20.c: 151:     lsb = DS18B20_ReadByte();
  7319   0067C6  ECFE  F02C         	call	_DS18B20_ReadByte	;wreg free
  7320   0067CA  6E30               	movwf	DS18B20_ReadTemp@lsb^0,c
  7321                           
  7322                           ;ds18b20.c: 152:     msb = DS18B20_ReadByte();
  7323   0067CC  ECFE  F02C         	call	_DS18B20_ReadByte	;wreg free
  7324   0067D0  6E31               	movwf	DS18B20_ReadTemp@msb^0,c
  7325   0067D2                     
  7326                           ;ds18b20.c: 154:     if (lsb == 0xFF && msb == 0xFF) return -998.0f;
  7327   0067D2  2830               	incf	DS18B20_ReadTemp@lsb^0,w,c
  7328   0067D4  A4D8               	btfss	status,2,c
  7329   0067D6  EFEF  F033         	goto	u3181
  7330   0067DA  EFF1  F033         	goto	u3180
  7331   0067DE                     u3181:
  7332   0067DE  EF03  F034         	goto	l3616
  7333   0067E2                     u3180:
  7334   0067E2  2831               	incf	DS18B20_ReadTemp@msb^0,w,c
  7335   0067E4  A4D8               	btfss	status,2,c
  7336   0067E6  EFF7  F033         	goto	u3191
  7337   0067EA  EFF9  F033         	goto	u3190
  7338   0067EE                     u3191:
  7339   0067EE  EF03  F034         	goto	l3616
  7340   0067F2                     u3190:
  7341   0067F2  0E00               	movlw	0
  7342   0067F4  6E28               	movwf	?_DS18B20_ReadTemp^0,c
  7343   0067F6  0E80               	movlw	128
  7344   0067F8  6E29               	movwf	(?_DS18B20_ReadTemp+1)^0,c
  7345   0067FA  0E79               	movlw	121
  7346   0067FC  6E2A               	movwf	(?_DS18B20_ReadTemp+2)^0,c
  7347   0067FE  0EC4               	movlw	196
  7348   006800  6E2B               	movwf	(?_DS18B20_ReadTemp+3)^0,c
  7349   006802  EF6A  F034         	goto	l317
  7350   006806                     l3616:
  7351                           
  7352                           ;ds18b20.c: 155:     if (lsb == 0x00 && msb == 0x00) return -998.0f;
  7353   006806  5030               	movf	DS18B20_ReadTemp@lsb^0,w,c
  7354   006808  A4D8               	btfss	status,2,c
  7355   00680A  EF09  F034         	goto	u3201
  7356   00680E  EF0B  F034         	goto	u3200
  7357   006812                     u3201:
  7358   006812  EF1D  F034         	goto	l3624
  7359   006816                     u3200:
  7360   006816  5031               	movf	DS18B20_ReadTemp@msb^0,w,c
  7361   006818  A4D8               	btfss	status,2,c
  7362   00681A  EF11  F034         	goto	u3211
  7363   00681E  EF13  F034         	goto	u3210
  7364   006822                     u3211:
  7365   006822  EF1D  F034         	goto	l3624
  7366   006826                     u3210:
  7367   006826  0E00               	movlw	0
  7368   006828  6E28               	movwf	?_DS18B20_ReadTemp^0,c
  7369   00682A  0E80               	movlw	128
  7370   00682C  6E29               	movwf	(?_DS18B20_ReadTemp+1)^0,c
  7371   00682E  0E79               	movlw	121
  7372   006830  6E2A               	movwf	(?_DS18B20_ReadTemp+2)^0,c
  7373   006832  0EC4               	movlw	196
  7374   006834  6E2B               	movwf	(?_DS18B20_ReadTemp+3)^0,c
  7375   006836  EF6A  F034         	goto	l317
  7376   00683A                     l3624:
  7377                           
  7378                           ;ds18b20.c: 156:     if (lsb == 0x50 && msb == 0x05) return -997.0f;
  7379   00683A  0E50               	movlw	80
  7380   00683C  1830               	xorwf	DS18B20_ReadTemp@lsb^0,w,c
  7381   00683E  A4D8               	btfss	status,2,c
  7382   006840  EF24  F034         	goto	u3221
  7383   006844  EF26  F034         	goto	u3220
  7384   006848                     u3221:
  7385   006848  EF39  F034         	goto	l3632
  7386   00684C                     u3220:
  7387   00684C  0E05               	movlw	5
  7388   00684E  1831               	xorwf	DS18B20_ReadTemp@msb^0,w,c
  7389   006850  A4D8               	btfss	status,2,c
  7390   006852  EF2D  F034         	goto	u3231
  7391   006856  EF2F  F034         	goto	u3230
  7392   00685A                     u3231:
  7393   00685A  EF39  F034         	goto	l3632
  7394   00685E                     u3230:
  7395   00685E  0E00               	movlw	0
  7396   006860  6E28               	movwf	?_DS18B20_ReadTemp^0,c
  7397   006862  0E40               	movlw	64
  7398   006864  6E29               	movwf	(?_DS18B20_ReadTemp+1)^0,c
  7399   006866  0E79               	movlw	121
  7400   006868  6E2A               	movwf	(?_DS18B20_ReadTemp+2)^0,c
  7401   00686A  0EC4               	movlw	196
  7402   00686C  6E2B               	movwf	(?_DS18B20_ReadTemp+3)^0,c
  7403   00686E  EF6A  F034         	goto	l317
  7404   006872                     l3632:
  7405                           
  7406                           ;ds18b20.c: 158:     raw = (int)((unsigned int)((msb << 8) | lsb));
  7407   006872  5030               	movf	DS18B20_ReadTemp@lsb^0,w,c
  7408   006874  C031  F02C         	movff	DS18B20_ReadTemp@msb,??_DS18B20_ReadTemp
  7409   006878  6A2D               	clrf	(??_DS18B20_ReadTemp+1)^0,c
  7410   00687A  C02C  F02D         	movff	??_DS18B20_ReadTemp,??_DS18B20_ReadTemp+1
  7411   00687E  6A2C               	clrf	??_DS18B20_ReadTemp^0,c
  7412   006880  102C               	iorwf	??_DS18B20_ReadTemp^0,w,c
  7413   006882  6E2E               	movwf	DS18B20_ReadTemp@raw^0,c
  7414   006884  502D               	movf	(??_DS18B20_ReadTemp+1)^0,w,c
  7415   006886  6E2F               	movwf	(DS18B20_ReadTemp@raw+1)^0,c
  7416   006888                     
  7417                           ;ds18b20.c: 159:     return (float)raw / 16.0f;
  7418   006888  C02E  F001         	movff	DS18B20_ReadTemp@raw,___xxtofl@val
  7419   00688C  C02F  F002         	movff	DS18B20_ReadTemp@raw+1,___xxtofl@val+1
  7420   006890  0E00               	movlw	0
  7421   006892  BE02               	btfsc	(___xxtofl@val+1)^0,7,c
  7422   006894  0EFF               	movlw	-1
  7423   006896  6E03               	movwf	(___xxtofl@val+2)^0,c
  7424   006898  6E04               	movwf	(___xxtofl@val+3)^0,c
  7425   00689A  0E01               	movlw	1
  7426   00689C  EC17  F035         	call	___xxtofl
  7427   0068A0  C001  F00F         	movff	?___xxtofl,___fldiv@b
  7428   0068A4  C002  F010         	movff	?___xxtofl+1,___fldiv@b+1
  7429   0068A8  C003  F011         	movff	?___xxtofl+2,___fldiv@b+2
  7430   0068AC  C004  F012         	movff	?___xxtofl+3,___fldiv@b+3
  7431   0068B0  0E00               	movlw	0
  7432   0068B2  6E13               	movwf	___fldiv@a^0,c
  7433   0068B4  0E00               	movlw	0
  7434   0068B6  6E14               	movwf	(___fldiv@a+1)^0,c
  7435   0068B8  0E80               	movlw	128
  7436   0068BA  6E15               	movwf	(___fldiv@a+2)^0,c
  7437   0068BC  0E41               	movlw	65
  7438   0068BE  6E16               	movwf	(___fldiv@a+3)^0,c
  7439   0068C0  ECEF  F036         	call	___fldiv	;wreg free
  7440   0068C4  C00F  F028         	movff	?___fldiv,?_DS18B20_ReadTemp
  7441   0068C8  C010  F029         	movff	?___fldiv+1,?_DS18B20_ReadTemp+1
  7442   0068CC  C011  F02A         	movff	?___fldiv+2,?_DS18B20_ReadTemp+2
  7443   0068D0  C012  F02B         	movff	?___fldiv+3,?_DS18B20_ReadTemp+3
  7444   0068D4                     l317:
  7445   0068D4  0012               	return		;funcret
  7446   0068D6                     __end_of_DS18B20_ReadTemp:
  7447                           	callstack 0
  7448                           
  7449 ;; *************** function ___xxtofl *****************
  7450 ;; Defined at:
  7451 ;;		line 10 in file "C:\Program Files\Microchip\xc8\v3.10\pic\sources\c99\common\xxtofl.c"
  7452 ;; Parameters:    Size  Location     Type
  7453 ;;  sign            1    wreg     unsigned char 
  7454 ;;  val             4    0[COMRAM] long 
  7455 ;; Auto vars:     Size  Location     Type
  7456 ;;  sign            1    8[COMRAM] unsigned char 
  7457 ;;  arg             4   10[COMRAM] unsigned long 
  7458 ;;  exp             1    9[COMRAM] unsigned char 
  7459 ;; Return value:  Size  Location     Type
  7460 ;;                  4    0[COMRAM] unsigned char 
  7461 ;; Registers used:
  7462 ;;		wreg, status,2, status,0
  7463 ;; Tracked objects:
  7464 ;;		On entry : 0/0
  7465 ;;		On exit  : 0/0
  7466 ;;		Unchanged: 0/0
  7467 ;; Data sizes:     COMRAM   BANK0   BANK1   BANK2   BANK3   BANK4   BANK5   BANK6   BANK7
  7468 ;;      Params:         4       0       0       0       0       0       0       0       0
  7469 ;;      Locals:         6       0       0       0       0       0       0       0       0
  7470 ;;      Temps:          4       0       0       0       0       0       0       0       0
  7471 ;;      Totals:        14       0       0       0       0       0       0       0       0
  7472 ;;Total ram usage:       14 bytes
  7473 ;; Hardware stack levels used: 1
  7474 ;; This function calls:
  7475 ;;		Nothing
  7476 ;; This function is called by:
  7477 ;;		_main
  7478 ;;		_DS18B20_ReadTemp
  7479 ;; This function uses a non-reentrant model
  7480 ;;
  7481                           
  7482                           	psect	text36
  7483   006A2E                     __ptext36:
  7484                           	callstack 0
  7485   006A2E                     ___xxtofl:
  7486                           	callstack 29
  7487                           
  7488                           ;incstack = 0
  7489                           ;___xxtofl@sign stored from wreg
  7490   006A2E  6E09               	movwf	___xxtofl@sign^0,c
  7491   006A30  5009               	movf	___xxtofl@sign^0,w,c
  7492   006A32  B4D8               	btfsc	status,2,c
  7493   006A34  EF1E  F035         	goto	u3031
  7494   006A38  EF20  F035         	goto	u3030
  7495   006A3C                     u3031:
  7496   006A3C  EF42  F035         	goto	l1088
  7497   006A40                     u3030:
  7498   006A40  BE04               	btfsc	(___xxtofl@val+3)^0,7,c
  7499   006A42  EF27  F035         	goto	u3040
  7500   006A46  EF25  F035         	goto	u3041
  7501   006A4A                     u3041:
  7502   006A4A  EF42  F035         	goto	l1088
  7503   006A4E                     u3040:
  7504   006A4E  C001  F005         	movff	___xxtofl@val,??___xxtofl
  7505   006A52  C002  F006         	movff	___xxtofl@val+1,??___xxtofl+1
  7506   006A56  C003  F007         	movff	___xxtofl@val+2,??___xxtofl+2
  7507   006A5A  C004  F008         	movff	___xxtofl@val+3,??___xxtofl+3
  7508   006A5E  1E05               	comf	??___xxtofl^0,f,c
  7509   006A60  1E06               	comf	(??___xxtofl+1)^0,f,c
  7510   006A62  1E07               	comf	(??___xxtofl+2)^0,f,c
  7511   006A64  1E08               	comf	(??___xxtofl+3)^0,f,c
  7512   006A66  2A05               	incf	??___xxtofl^0,f,c
  7513   006A68  0E00               	movlw	0
  7514   006A6A  2206               	addwfc	(??___xxtofl+1)^0,f,c
  7515   006A6C  2207               	addwfc	(??___xxtofl+2)^0,f,c
  7516   006A6E  2208               	addwfc	(??___xxtofl+3)^0,f,c
  7517   006A70  C005  F00B         	movff	??___xxtofl,___xxtofl@arg
  7518   006A74  C006  F00C         	movff	??___xxtofl+1,___xxtofl@arg+1
  7519   006A78  C007  F00D         	movff	??___xxtofl+2,___xxtofl@arg+2
  7520   006A7C  C008  F00E         	movff	??___xxtofl+3,___xxtofl@arg+3
  7521   006A80  EF4A  F035         	goto	l3406
  7522   006A84                     l1088:
  7523   006A84  C001  F00B         	movff	___xxtofl@val,___xxtofl@arg
  7524   006A88  C002  F00C         	movff	___xxtofl@val+1,___xxtofl@arg+1
  7525   006A8C  C003  F00D         	movff	___xxtofl@val+2,___xxtofl@arg+2
  7526   006A90  C004  F00E         	movff	___xxtofl@val+3,___xxtofl@arg+3
  7527   006A94                     l3406:
  7528   006A94  5001               	movf	___xxtofl@val^0,w,c
  7529   006A96  1002               	iorwf	(___xxtofl@val+1)^0,w,c
  7530   006A98  1003               	iorwf	(___xxtofl@val+2)^0,w,c
  7531   006A9A  1004               	iorwf	(___xxtofl@val+3)^0,w,c
  7532   006A9C  A4D8               	btfss	status,2,c
  7533   006A9E  EF53  F035         	goto	u3051
  7534   006AA2  EF55  F035         	goto	u3050
  7535   006AA6                     u3051:
  7536   006AA6  EF5F  F035         	goto	l3412
  7537   006AAA                     u3050:
  7538   006AAA  0E00               	movlw	0
  7539   006AAC  6E01               	movwf	?___xxtofl^0,c
  7540   006AAE  0E00               	movlw	0
  7541   006AB0  6E02               	movwf	(?___xxtofl+1)^0,c
  7542   006AB2  0E00               	movlw	0
  7543   006AB4  6E03               	movwf	(?___xxtofl+2)^0,c
  7544   006AB6  0E00               	movlw	0
  7545   006AB8  6E04               	movwf	(?___xxtofl+3)^0,c
  7546   006ABA  EFF0  F035         	goto	l1091
  7547   006ABE                     l3412:
  7548   006ABE  0E96               	movlw	150
  7549   006AC0  6E0A               	movwf	___xxtofl@exp^0,c
  7550   006AC2  EF69  F035         	goto	l3416
  7551   006AC6                     l3414:
  7552   006AC6  2A0A               	incf	___xxtofl@exp^0,f,c
  7553   006AC8  90D8               	bcf	status,0,c
  7554   006ACA  320E               	rrcf	(___xxtofl@arg+3)^0,f,c
  7555   006ACC  320D               	rrcf	(___xxtofl@arg+2)^0,f,c
  7556   006ACE  320C               	rrcf	(___xxtofl@arg+1)^0,f,c
  7557   006AD0  320B               	rrcf	___xxtofl@arg^0,f,c
  7558   006AD2                     l3416:
  7559   006AD2  0E00               	movlw	0
  7560   006AD4  140B               	andwf	___xxtofl@arg^0,w,c
  7561   006AD6  6E05               	movwf	??___xxtofl^0,c
  7562   006AD8  0E00               	movlw	0
  7563   006ADA  140C               	andwf	(___xxtofl@arg+1)^0,w,c
  7564   006ADC  6E06               	movwf	(??___xxtofl+1)^0,c
  7565   006ADE  0E00               	movlw	0
  7566   006AE0  140D               	andwf	(___xxtofl@arg+2)^0,w,c
  7567   006AE2  6E07               	movwf	(??___xxtofl+2)^0,c
  7568   006AE4  0EFE               	movlw	254
  7569   006AE6  140E               	andwf	(___xxtofl@arg+3)^0,w,c
  7570   006AE8  6E08               	movwf	(??___xxtofl+3)^0,c
  7571   006AEA  5005               	movf	??___xxtofl^0,w,c
  7572   006AEC  1006               	iorwf	(??___xxtofl+1)^0,w,c
  7573   006AEE  1007               	iorwf	(??___xxtofl+2)^0,w,c
  7574   006AF0  1008               	iorwf	(??___xxtofl+3)^0,w,c
  7575   006AF2  A4D8               	btfss	status,2,c
  7576   006AF4  EF7E  F035         	goto	u3061
  7577   006AF8  EF80  F035         	goto	u3060
  7578   006AFC                     u3061:
  7579   006AFC  EF63  F035         	goto	l3414
  7580   006B00                     u3060:
  7581   006B00  EF8E  F035         	goto	l1095
  7582   006B04                     l3418:
  7583   006B04  2A0A               	incf	___xxtofl@exp^0,f,c
  7584   006B06  0E01               	movlw	1
  7585   006B08  260B               	addwf	___xxtofl@arg^0,f,c
  7586   006B0A  0E00               	movlw	0
  7587   006B0C  220C               	addwfc	(___xxtofl@arg+1)^0,f,c
  7588   006B0E  220D               	addwfc	(___xxtofl@arg+2)^0,f,c
  7589   006B10  220E               	addwfc	(___xxtofl@arg+3)^0,f,c
  7590   006B12  90D8               	bcf	status,0,c
  7591   006B14  320E               	rrcf	(___xxtofl@arg+3)^0,f,c
  7592   006B16  320D               	rrcf	(___xxtofl@arg+2)^0,f,c
  7593   006B18  320C               	rrcf	(___xxtofl@arg+1)^0,f,c
  7594   006B1A  320B               	rrcf	___xxtofl@arg^0,f,c
  7595   006B1C                     l1095:
  7596   006B1C  0E00               	movlw	0
  7597   006B1E  140B               	andwf	___xxtofl@arg^0,w,c
  7598   006B20  6E05               	movwf	??___xxtofl^0,c
  7599   006B22  0E00               	movlw	0
  7600   006B24  140C               	andwf	(___xxtofl@arg+1)^0,w,c
  7601   006B26  6E06               	movwf	(??___xxtofl+1)^0,c
  7602   006B28  0E00               	movlw	0
  7603   006B2A  140D               	andwf	(___xxtofl@arg+2)^0,w,c
  7604   006B2C  6E07               	movwf	(??___xxtofl+2)^0,c
  7605   006B2E  0EFF               	movlw	255
  7606   006B30  140E               	andwf	(___xxtofl@arg+3)^0,w,c
  7607   006B32  6E08               	movwf	(??___xxtofl+3)^0,c
  7608   006B34  5005               	movf	??___xxtofl^0,w,c
  7609   006B36  1006               	iorwf	(??___xxtofl+1)^0,w,c
  7610   006B38  1007               	iorwf	(??___xxtofl+2)^0,w,c
  7611   006B3A  1008               	iorwf	(??___xxtofl+3)^0,w,c
  7612   006B3C  A4D8               	btfss	status,2,c
  7613   006B3E  EFA3  F035         	goto	u3071
  7614   006B42  EFA5  F035         	goto	u3070
  7615   006B46                     u3071:
  7616   006B46  EF82  F035         	goto	l3418
  7617   006B4A                     u3070:
  7618   006B4A  EFAD  F035         	goto	l3426
  7619   006B4E                     l3424:
  7620   006B4E  060A               	decf	___xxtofl@exp^0,f,c
  7621   006B50  90D8               	bcf	status,0,c
  7622   006B52  360B               	rlcf	___xxtofl@arg^0,f,c
  7623   006B54  360C               	rlcf	(___xxtofl@arg+1)^0,f,c
  7624   006B56  360D               	rlcf	(___xxtofl@arg+2)^0,f,c
  7625   006B58  360E               	rlcf	(___xxtofl@arg+3)^0,f,c
  7626   006B5A                     l3426:
  7627   006B5A  BE0D               	btfsc	(___xxtofl@arg+2)^0,7,c
  7628   006B5C  EFB2  F035         	goto	u3081
  7629   006B60  EFB4  F035         	goto	u3080
  7630   006B64                     u3081:
  7631   006B64  EFBC  F035         	goto	l1102
  7632   006B68                     u3080:
  7633   006B68  0E02               	movlw	2
  7634   006B6A  600A               	cpfslt	___xxtofl@exp^0,c
  7635   006B6C  EFBA  F035         	goto	u3091
  7636   006B70  EFBC  F035         	goto	u3090
  7637   006B74                     u3091:
  7638   006B74  EFA7  F035         	goto	l3424
  7639   006B78                     u3090:
  7640   006B78                     l1102:
  7641   006B78  B00A               	btfsc	___xxtofl@exp^0,0,c
  7642   006B7A  EFC1  F035         	goto	u3101
  7643   006B7E  EFC3  F035         	goto	u3100
  7644   006B82                     u3101:
  7645   006B82  EFC4  F035         	goto	l3432
  7646   006B86                     u3100:
  7647   006B86  9E0D               	bcf	(___xxtofl@arg+2)^0,7,c
  7648   006B88                     l3432:
  7649   006B88  90D8               	bcf	status,0,c
  7650   006B8A  320A               	rrcf	___xxtofl@exp^0,f,c
  7651   006B8C  C00A  F005         	movff	___xxtofl@exp,??___xxtofl
  7652   006B90  6A06               	clrf	(??___xxtofl+1)^0,c
  7653   006B92  6A07               	clrf	(??___xxtofl+2)^0,c
  7654   006B94  6A08               	clrf	(??___xxtofl+3)^0,c
  7655   006B96  C005  F008         	movff	??___xxtofl,??___xxtofl+3
  7656   006B9A  6A07               	clrf	(??___xxtofl+2)^0,c
  7657   006B9C  6A06               	clrf	(??___xxtofl+1)^0,c
  7658   006B9E  6A05               	clrf	??___xxtofl^0,c
  7659   006BA0  5005               	movf	??___xxtofl^0,w,c
  7660   006BA2  120B               	iorwf	___xxtofl@arg^0,f,c
  7661   006BA4  5006               	movf	(??___xxtofl+1)^0,w,c
  7662   006BA6  120C               	iorwf	(___xxtofl@arg+1)^0,f,c
  7663   006BA8  5007               	movf	(??___xxtofl+2)^0,w,c
  7664   006BAA  120D               	iorwf	(___xxtofl@arg+2)^0,f,c
  7665   006BAC  5008               	movf	(??___xxtofl+3)^0,w,c
  7666   006BAE  120E               	iorwf	(___xxtofl@arg+3)^0,f,c
  7667   006BB0  5009               	movf	___xxtofl@sign^0,w,c
  7668   006BB2  B4D8               	btfsc	status,2,c
  7669   006BB4  EFDE  F035         	goto	u3111
  7670   006BB8  EFE0  F035         	goto	u3110
  7671   006BBC                     u3111:
  7672   006BBC  EFE8  F035         	goto	l3442
  7673   006BC0                     u3110:
  7674   006BC0  BE04               	btfsc	(___xxtofl@val+3)^0,7,c
  7675   006BC2  EFE7  F035         	goto	u3120
  7676   006BC6  EFE5  F035         	goto	u3121
  7677   006BCA                     u3121:
  7678   006BCA  EFE8  F035         	goto	l3442
  7679   006BCE                     u3120:
  7680   006BCE  8E0E               	bsf	(___xxtofl@arg+3)^0,7,c
  7681   006BD0                     l3442:
  7682   006BD0  C00B  F001         	movff	___xxtofl@arg,?___xxtofl
  7683   006BD4  C00C  F002         	movff	___xxtofl@arg+1,?___xxtofl+1
  7684   006BD8  C00D  F003         	movff	___xxtofl@arg+2,?___xxtofl+2
  7685   006BDC  C00E  F004         	movff	___xxtofl@arg+3,?___xxtofl+3
  7686   006BE0                     l1091:
  7687   006BE0  0012               	return		;funcret
  7688   006BE2                     __end_of___xxtofl:
  7689                           	callstack 0
  7690                           
  7691 ;; *************** function ___fldiv *****************
  7692 ;; Defined at:
  7693 ;;		line 11 in file "C:\Program Files\Microchip\xc8\v3.10\pic\sources\c99\common\sprcdiv.c"
  7694 ;; Parameters:    Size  Location     Type
  7695 ;;  b               4   14[COMRAM] unsigned char 
  7696 ;;  a               4   18[COMRAM] unsigned char 
  7697 ;; Auto vars:     Size  Location     Type
  7698 ;;  grs             4   33[COMRAM] unsigned long 
  7699 ;;  rem             4   26[COMRAM] unsigned long 
  7700 ;;  new_exp         2   31[COMRAM] short 
  7701 ;;  aexp            1   38[COMRAM] unsigned char 
  7702 ;;  bexp            1   37[COMRAM] unsigned char 
  7703 ;;  sign            1   30[COMRAM] unsigned char 
  7704 ;; Return value:  Size  Location     Type
  7705 ;;                  4   14[COMRAM] unsigned char 
  7706 ;; Registers used:
  7707 ;;		wreg, status,2, status,0
  7708 ;; Tracked objects:
  7709 ;;		On entry : 0/0
  7710 ;;		On exit  : 0/0
  7711 ;;		Unchanged: 0/0
  7712 ;; Data sizes:     COMRAM   BANK0   BANK1   BANK2   BANK3   BANK4   BANK5   BANK6   BANK7
  7713 ;;      Params:         8       0       0       0       0       0       0       0       0
  7714 ;;      Locals:        13       0       0       0       0       0       0       0       0
  7715 ;;      Temps:          4       0       0       0       0       0       0       0       0
  7716 ;;      Totals:        25       0       0       0       0       0       0       0       0
  7717 ;;Total ram usage:       25 bytes
  7718 ;; Hardware stack levels used: 1
  7719 ;; This function calls:
  7720 ;;		Nothing
  7721 ;; This function is called by:
  7722 ;;		_DS18B20_ReadTemp
  7723 ;; This function uses a non-reentrant model
  7724 ;;
  7725                           
  7726                           	psect	text37
  7727   006DDE                     __ptext37:
  7728                           	callstack 0
  7729   006DDE                     ___fldiv:
  7730                           	callstack 29
  7731   006DDE  5012               	movf	(___fldiv@b+3)^0,w,c
  7732   006DE0  0B80               	andlw	128
  7733   006DE2  6E1F               	movwf	___fldiv@sign^0,c
  7734   006DE4  5012               	movf	(___fldiv@b+3)^0,w,c
  7735   006DE6  2412               	addwf	(___fldiv@b+3)^0,w,c
  7736   006DE8  6E26               	movwf	___fldiv@bexp^0,c
  7737   006DEA  AE11               	btfss	(___fldiv@b+2)^0,7,c
  7738   006DEC  EFFA  F036         	goto	u2801
  7739   006DF0  EFFC  F036         	goto	u2800
  7740   006DF4                     u2801:
  7741   006DF4  EFFD  F036         	goto	l3270
  7742   006DF8                     u2800:
  7743   006DF8  8026               	bsf	___fldiv@bexp^0,0,c
  7744   006DFA                     l3270:
  7745   006DFA  5026               	movf	___fldiv@bexp^0,w,c
  7746   006DFC  B4D8               	btfsc	status,2,c
  7747   006DFE  EF03  F037         	goto	u2811
  7748   006E02  EF05  F037         	goto	u2810
  7749   006E06                     u2811:
  7750   006E06  EF19  F037         	goto	l3280
  7751   006E0A                     u2810:
  7752   006E0A  2826               	incf	___fldiv@bexp^0,w,c
  7753   006E0C  A4D8               	btfss	status,2,c
  7754   006E0E  EF0B  F037         	goto	u2821
  7755   006E12  EF0D  F037         	goto	u2820
  7756   006E16                     u2821:
  7757   006E16  EF15  F037         	goto	l3276
  7758   006E1A                     u2820:
  7759   006E1A  0E00               	movlw	0
  7760   006E1C  6E0F               	movwf	___fldiv@b^0,c
  7761   006E1E  0E00               	movlw	0
  7762   006E20  6E10               	movwf	(___fldiv@b+1)^0,c
  7763   006E22  0E00               	movlw	0
  7764   006E24  6E11               	movwf	(___fldiv@b+2)^0,c
  7765   006E26  0E00               	movlw	0
  7766   006E28  6E12               	movwf	(___fldiv@b+3)^0,c
  7767   006E2A                     l3276:
  7768   006E2A  8E11               	bsf	(___fldiv@b+2)^0,7,c
  7769   006E2C  6A12               	clrf	(___fldiv@b+3)^0,c
  7770   006E2E  EF21  F037         	goto	l3282
  7771   006E32                     l3280:
  7772   006E32  0E00               	movlw	0
  7773   006E34  6E0F               	movwf	___fldiv@b^0,c
  7774   006E36  0E00               	movlw	0
  7775   006E38  6E10               	movwf	(___fldiv@b+1)^0,c
  7776   006E3A  0E00               	movlw	0
  7777   006E3C  6E11               	movwf	(___fldiv@b+2)^0,c
  7778   006E3E  0E00               	movlw	0
  7779   006E40  6E12               	movwf	(___fldiv@b+3)^0,c
  7780   006E42                     l3282:
  7781   006E42  5016               	movf	(___fldiv@a+3)^0,w,c
  7782   006E44  0B80               	andlw	128
  7783   006E46  1A1F               	xorwf	___fldiv@sign^0,f,c
  7784   006E48  5016               	movf	(___fldiv@a+3)^0,w,c
  7785   006E4A  2416               	addwf	(___fldiv@a+3)^0,w,c
  7786   006E4C  6E27               	movwf	___fldiv@aexp^0,c
  7787   006E4E  AE15               	btfss	(___fldiv@a+2)^0,7,c
  7788   006E50  EF2C  F037         	goto	u2831
  7789   006E54  EF2E  F037         	goto	u2830
  7790   006E58                     u2831:
  7791   006E58  EF2F  F037         	goto	l3290
  7792   006E5C                     u2830:
  7793   006E5C  8027               	bsf	___fldiv@aexp^0,0,c
  7794   006E5E                     l3290:
  7795   006E5E  5027               	movf	___fldiv@aexp^0,w,c
  7796   006E60  B4D8               	btfsc	status,2,c
  7797   006E62  EF35  F037         	goto	u2841
  7798   006E66  EF37  F037         	goto	u2840
  7799   006E6A                     u2841:
  7800   006E6A  EF4B  F037         	goto	l3300
  7801   006E6E                     u2840:
  7802   006E6E  2827               	incf	___fldiv@aexp^0,w,c
  7803   006E70  A4D8               	btfss	status,2,c
  7804   006E72  EF3D  F037         	goto	u2851
  7805   006E76  EF3F  F037         	goto	u2850
  7806   006E7A                     u2851:
  7807   006E7A  EF47  F037         	goto	l3296
  7808   006E7E                     u2850:
  7809   006E7E  0E00               	movlw	0
  7810   006E80  6E13               	movwf	___fldiv@a^0,c
  7811   006E82  0E00               	movlw	0
  7812   006E84  6E14               	movwf	(___fldiv@a+1)^0,c
  7813   006E86  0E00               	movlw	0
  7814   006E88  6E15               	movwf	(___fldiv@a+2)^0,c
  7815   006E8A  0E00               	movlw	0
  7816   006E8C  6E16               	movwf	(___fldiv@a+3)^0,c
  7817   006E8E                     l3296:
  7818   006E8E  8E15               	bsf	(___fldiv@a+2)^0,7,c
  7819   006E90  6A16               	clrf	(___fldiv@a+3)^0,c
  7820   006E92  EF53  F037         	goto	l3302
  7821   006E96                     l3300:
  7822   006E96  0E00               	movlw	0
  7823   006E98  6E13               	movwf	___fldiv@a^0,c
  7824   006E9A  0E00               	movlw	0
  7825   006E9C  6E14               	movwf	(___fldiv@a+1)^0,c
  7826   006E9E  0E00               	movlw	0
  7827   006EA0  6E15               	movwf	(___fldiv@a+2)^0,c
  7828   006EA2  0E00               	movlw	0
  7829   006EA4  6E16               	movwf	(___fldiv@a+3)^0,c
  7830   006EA6                     l3302:
  7831   006EA6  5013               	movf	___fldiv@a^0,w,c
  7832   006EA8  1014               	iorwf	(___fldiv@a+1)^0,w,c
  7833   006EAA  1015               	iorwf	(___fldiv@a+2)^0,w,c
  7834   006EAC  1016               	iorwf	(___fldiv@a+3)^0,w,c
  7835   006EAE  A4D8               	btfss	status,2,c
  7836   006EB0  EF5C  F037         	goto	u2861
  7837   006EB4  EF5E  F037         	goto	u2860
  7838   006EB8                     u2861:
  7839   006EB8  EF76  F037         	goto	l3314
  7840   006EBC                     u2860:
  7841   006EBC  0E00               	movlw	0
  7842   006EBE  6E0F               	movwf	___fldiv@b^0,c
  7843   006EC0  0E00               	movlw	0
  7844   006EC2  6E10               	movwf	(___fldiv@b+1)^0,c
  7845   006EC4  0E00               	movlw	0
  7846   006EC6  6E11               	movwf	(___fldiv@b+2)^0,c
  7847   006EC8  0E00               	movlw	0
  7848   006ECA  6E12               	movwf	(___fldiv@b+3)^0,c
  7849   006ECC  0E80               	movlw	128
  7850   006ECE  1211               	iorwf	(___fldiv@b+2)^0,f,c
  7851   006ED0  0E7F               	movlw	127
  7852   006ED2  1212               	iorwf	(___fldiv@b+3)^0,f,c
  7853   006ED4                     l3308:
  7854   006ED4  501F               	movf	___fldiv@sign^0,w,c
  7855   006ED6  1212               	iorwf	(___fldiv@b+3)^0,f,c
  7856   006ED8  C00F  F00F         	movff	___fldiv@b,?___fldiv
  7857   006EDC  C010  F010         	movff	___fldiv@b+1,?___fldiv+1
  7858   006EE0  C011  F011         	movff	___fldiv@b+2,?___fldiv+2
  7859   006EE4  C012  F012         	movff	___fldiv@b+3,?___fldiv+3
  7860   006EE8  EFB5  F038         	goto	l1015
  7861   006EEC                     l3314:
  7862   006EEC  5026               	movf	___fldiv@bexp^0,w,c
  7863   006EEE  A4D8               	btfss	status,2,c
  7864   006EF0  EF7C  F037         	goto	u2871
  7865   006EF4  EF7E  F037         	goto	u2870
  7866   006EF8                     u2871:
  7867   006EF8  EF88  F037         	goto	l3322
  7868   006EFC                     u2870:
  7869   006EFC  0E00               	movlw	0
  7870   006EFE  6E0F               	movwf	?___fldiv^0,c
  7871   006F00  0E00               	movlw	0
  7872   006F02  6E10               	movwf	(?___fldiv+1)^0,c
  7873   006F04  0E00               	movlw	0
  7874   006F06  6E11               	movwf	(?___fldiv+2)^0,c
  7875   006F08  0E00               	movlw	0
  7876   006F0A  6E12               	movwf	(?___fldiv+3)^0,c
  7877   006F0C  EFB5  F038         	goto	l1015
  7878   006F10                     l3322:
  7879   006F10  5027               	movf	___fldiv@aexp^0,w,c
  7880   006F12  C026  F017         	movff	___fldiv@bexp,??___fldiv
  7881   006F16  6A18               	clrf	(??___fldiv+1)^0,c
  7882   006F18  5E17               	subwf	??___fldiv^0,f,c
  7883   006F1A  0E00               	movlw	0
  7884   006F1C  5A18               	subwfb	(??___fldiv+1)^0,f,c
  7885   006F1E  0E7F               	movlw	127
  7886   006F20  2417               	addwf	??___fldiv^0,w,c
  7887   006F22  6E20               	movwf	___fldiv@new_exp^0,c
  7888   006F24  0E00               	movlw	0
  7889   006F26  2018               	addwfc	(??___fldiv+1)^0,w,c
  7890   006F28  6E21               	movwf	(___fldiv@new_exp+1)^0,c
  7891   006F2A  C00F  F01B         	movff	___fldiv@b,___fldiv@rem
  7892   006F2E  C010  F01C         	movff	___fldiv@b+1,___fldiv@rem+1
  7893   006F32  C011  F01D         	movff	___fldiv@b+2,___fldiv@rem+2
  7894   006F36  C012  F01E         	movff	___fldiv@b+3,___fldiv@rem+3
  7895   006F3A  0E00               	movlw	0
  7896   006F3C  6E0F               	movwf	___fldiv@b^0,c
  7897   006F3E  0E00               	movlw	0
  7898   006F40  6E10               	movwf	(___fldiv@b+1)^0,c
  7899   006F42  0E00               	movlw	0
  7900   006F44  6E11               	movwf	(___fldiv@b+2)^0,c
  7901   006F46  0E00               	movlw	0
  7902   006F48  6E12               	movwf	(___fldiv@b+3)^0,c
  7903   006F4A  0E00               	movlw	0
  7904   006F4C  6E22               	movwf	___fldiv@grs^0,c
  7905   006F4E  0E00               	movlw	0
  7906   006F50  6E23               	movwf	(___fldiv@grs+1)^0,c
  7907   006F52  0E00               	movlw	0
  7908   006F54  6E24               	movwf	(___fldiv@grs+2)^0,c
  7909   006F56  0E00               	movlw	0
  7910   006F58  6E25               	movwf	(___fldiv@grs+3)^0,c
  7911   006F5A  6A27               	clrf	___fldiv@aexp^0,c
  7912   006F5C  EFE8  F037         	goto	l1017
  7913   006F60                     l3332:
  7914   006F60  5027               	movf	___fldiv@aexp^0,w,c
  7915   006F62  B4D8               	btfsc	status,2,c
  7916   006F64  EFB6  F037         	goto	u2881
  7917   006F68  EFB8  F037         	goto	u2880
  7918   006F6C                     u2881:
  7919   006F6C  EFCF  F037         	goto	l3340
  7920   006F70                     u2880:
  7921   006F70  90D8               	bcf	status,0,c
  7922   006F72  361B               	rlcf	___fldiv@rem^0,f,c
  7923   006F74  361C               	rlcf	(___fldiv@rem+1)^0,f,c
  7924   006F76  361D               	rlcf	(___fldiv@rem+2)^0,f,c
  7925   006F78  361E               	rlcf	(___fldiv@rem+3)^0,f,c
  7926   006F7A  90D8               	bcf	status,0,c
  7927   006F7C  360F               	rlcf	___fldiv@b^0,f,c
  7928   006F7E  3610               	rlcf	(___fldiv@b+1)^0,f,c
  7929   006F80  3611               	rlcf	(___fldiv@b+2)^0,f,c
  7930   006F82  3612               	rlcf	(___fldiv@b+3)^0,f,c
  7931   006F84  AE25               	btfss	(___fldiv@grs+3)^0,7,c
  7932   006F86  EFC7  F037         	goto	u2891
  7933   006F8A  EFC9  F037         	goto	u2890
  7934   006F8E                     u2891:
  7935   006F8E  EFCA  F037         	goto	l1020
  7936   006F92                     u2890:
  7937   006F92  800F               	bsf	___fldiv@b^0,0,c
  7938   006F94                     l1020:
  7939   006F94  90D8               	bcf	status,0,c
  7940   006F96  3622               	rlcf	___fldiv@grs^0,f,c
  7941   006F98  3623               	rlcf	(___fldiv@grs+1)^0,f,c
  7942   006F9A  3624               	rlcf	(___fldiv@grs+2)^0,f,c
  7943   006F9C  3625               	rlcf	(___fldiv@grs+3)^0,f,c
  7944   006F9E                     l3340:
  7945   006F9E  5013               	movf	___fldiv@a^0,w,c
  7946   006FA0  5C1B               	subwf	___fldiv@rem^0,w,c
  7947   006FA2  5014               	movf	(___fldiv@a+1)^0,w,c
  7948   006FA4  581C               	subwfb	(___fldiv@rem+1)^0,w,c
  7949   006FA6  5015               	movf	(___fldiv@a+2)^0,w,c
  7950   006FA8  581D               	subwfb	(___fldiv@rem+2)^0,w,c
  7951   006FAA  5016               	movf	(___fldiv@a+3)^0,w,c
  7952   006FAC  581E               	subwfb	(___fldiv@rem+3)^0,w,c
  7953   006FAE  A0D8               	btfss	status,0,c
  7954   006FB0  EFDC  F037         	goto	u2901
  7955   006FB4  EFDE  F037         	goto	u2900
  7956   006FB8                     u2901:
  7957   006FB8  EFE7  F037         	goto	l3346
  7958   006FBC                     u2900:
  7959   006FBC  8C25               	bsf	(___fldiv@grs+3)^0,6,c
  7960   006FBE  5013               	movf	___fldiv@a^0,w,c
  7961   006FC0  5E1B               	subwf	___fldiv@rem^0,f,c
  7962   006FC2  5014               	movf	(___fldiv@a+1)^0,w,c
  7963   006FC4  5A1C               	subwfb	(___fldiv@rem+1)^0,f,c
  7964   006FC6  5015               	movf	(___fldiv@a+2)^0,w,c
  7965   006FC8  5A1D               	subwfb	(___fldiv@rem+2)^0,f,c
  7966   006FCA  5016               	movf	(___fldiv@a+3)^0,w,c
  7967   006FCC  5A1E               	subwfb	(___fldiv@rem+3)^0,f,c
  7968   006FCE                     l3346:
  7969   006FCE  2A27               	incf	___fldiv@aexp^0,f,c
  7970   006FD0                     l1017:
  7971   006FD0  0E19               	movlw	25
  7972   006FD2  6427               	cpfsgt	___fldiv@aexp^0,c
  7973   006FD4  EFEE  F037         	goto	u2911
  7974   006FD8  EFF0  F037         	goto	u2910
  7975   006FDC                     u2911:
  7976   006FDC  EFB0  F037         	goto	l3332
  7977   006FE0                     u2910:
  7978   006FE0  501B               	movf	___fldiv@rem^0,w,c
  7979   006FE2  101C               	iorwf	(___fldiv@rem+1)^0,w,c
  7980   006FE4  101D               	iorwf	(___fldiv@rem+2)^0,w,c
  7981   006FE6  101E               	iorwf	(___fldiv@rem+3)^0,w,c
  7982   006FE8  B4D8               	btfsc	status,2,c
  7983   006FEA  EFF9  F037         	goto	u2921
  7984   006FEE  EFFB  F037         	goto	u2920
  7985   006FF2                     u2921:
  7986   006FF2  EF13  F038         	goto	l3358
  7987   006FF6                     u2920:
  7988   006FF6  8022               	bsf	___fldiv@grs^0,0,c
  7989   006FF8  EF13  F038         	goto	l3358
  7990   006FFC                     l3352:
  7991   006FFC  90D8               	bcf	status,0,c
  7992   006FFE  360F               	rlcf	___fldiv@b^0,f,c
  7993   007000  3610               	rlcf	(___fldiv@b+1)^0,f,c
  7994   007002  3611               	rlcf	(___fldiv@b+2)^0,f,c
  7995   007004  3612               	rlcf	(___fldiv@b+3)^0,f,c
  7996   007006  AE25               	btfss	(___fldiv@grs+3)^0,7,c
  7997   007008  EF08  F038         	goto	u2931
  7998   00700C  EF0A  F038         	goto	u2930
  7999   007010                     u2931:
  8000   007010  EF0B  F038         	goto	l1026
  8001   007014                     u2930:
  8002   007014  800F               	bsf	___fldiv@b^0,0,c
  8003   007016                     l1026:
  8004   007016  90D8               	bcf	status,0,c
  8005   007018  3622               	rlcf	___fldiv@grs^0,f,c
  8006   00701A  3623               	rlcf	(___fldiv@grs+1)^0,f,c
  8007   00701C  3624               	rlcf	(___fldiv@grs+2)^0,f,c
  8008   00701E  3625               	rlcf	(___fldiv@grs+3)^0,f,c
  8009   007020  0620               	decf	___fldiv@new_exp^0,f,c
  8010   007022  A0D8               	btfss	status,0,c
  8011   007024  0621               	decf	(___fldiv@new_exp+1)^0,f,c
  8012   007026                     l3358:
  8013   007026  AE11               	btfss	(___fldiv@b+2)^0,7,c
  8014   007028  EF18  F038         	goto	u2941
  8015   00702C  EF1A  F038         	goto	u2940
  8016   007030                     u2941:
  8017   007030  EFFE  F037         	goto	l3352
  8018   007034                     u2940:
  8019   007034  6A27               	clrf	___fldiv@aexp^0,c
  8020   007036  AE25               	btfss	(___fldiv@grs+3)^0,7,c
  8021   007038  EF20  F038         	goto	u2951
  8022   00703C  EF22  F038         	goto	u2950
  8023   007040                     u2951:
  8024   007040  EF46  F038         	goto	l1028
  8025   007044                     u2950:
  8026   007044  0EFF               	movlw	255
  8027   007046  1422               	andwf	___fldiv@grs^0,w,c
  8028   007048  6E17               	movwf	??___fldiv^0,c
  8029   00704A  0EFF               	movlw	255
  8030   00704C  1423               	andwf	(___fldiv@grs+1)^0,w,c
  8031   00704E  6E18               	movwf	(??___fldiv+1)^0,c
  8032   007050  0EFF               	movlw	255
  8033   007052  1424               	andwf	(___fldiv@grs+2)^0,w,c
  8034   007054  6E19               	movwf	(??___fldiv+2)^0,c
  8035   007056  0E7F               	movlw	127
  8036   007058  1425               	andwf	(___fldiv@grs+3)^0,w,c
  8037   00705A  6E1A               	movwf	(??___fldiv+3)^0,c
  8038   00705C  5017               	movf	??___fldiv^0,w,c
  8039   00705E  1018               	iorwf	(??___fldiv+1)^0,w,c
  8040   007060  1019               	iorwf	(??___fldiv+2)^0,w,c
  8041   007062  101A               	iorwf	(??___fldiv+3)^0,w,c
  8042   007064  B4D8               	btfsc	status,2,c
  8043   007066  EF37  F038         	goto	u2961
  8044   00706A  EF39  F038         	goto	u2960
  8045   00706E                     u2961:
  8046   00706E  EF3D  F038         	goto	l1029
  8047   007072                     u2960:
  8048   007072                     l3362:
  8049   007072  0E01               	movlw	1
  8050   007074  6E27               	movwf	___fldiv@aexp^0,c
  8051   007076  EF46  F038         	goto	l1028
  8052   00707A                     l1029:
  8053   00707A  A00F               	btfss	___fldiv@b^0,0,c
  8054   00707C  EF42  F038         	goto	u2971
  8055   007080  EF44  F038         	goto	u2970
  8056   007084                     u2971:
  8057   007084  EF46  F038         	goto	l1028
  8058   007088                     u2970:
  8059   007088  EF39  F038         	goto	l3362
  8060   00708C                     l1028:
  8061   00708C  5027               	movf	___fldiv@aexp^0,w,c
  8062   00708E  B4D8               	btfsc	status,2,c
  8063   007090  EF4C  F038         	goto	u2981
  8064   007094  EF4E  F038         	goto	u2980
  8065   007098                     u2981:
  8066   007098  EF72  F038         	goto	l3374
  8067   00709C                     u2980:
  8068   00709C  0E01               	movlw	1
  8069   00709E  260F               	addwf	___fldiv@b^0,f,c
  8070   0070A0  0E00               	movlw	0
  8071   0070A2  2210               	addwfc	(___fldiv@b+1)^0,f,c
  8072   0070A4  2211               	addwfc	(___fldiv@b+2)^0,f,c
  8073   0070A6  2212               	addwfc	(___fldiv@b+3)^0,f,c
  8074   0070A8  A012               	btfss	(___fldiv@b+3)^0,0,c
  8075   0070AA  EF59  F038         	goto	u2991
  8076   0070AE  EF5B  F038         	goto	u2990
  8077   0070B2                     u2991:
  8078   0070B2  EF72  F038         	goto	l3374
  8079   0070B6                     u2990:
  8080   0070B6  C00F  F017         	movff	___fldiv@b,??___fldiv
  8081   0070BA  C010  F018         	movff	___fldiv@b+1,??___fldiv+1
  8082   0070BE  C011  F019         	movff	___fldiv@b+2,??___fldiv+2
  8083   0070C2  C012  F01A         	movff	___fldiv@b+3,??___fldiv+3
  8084   0070C6  341A               	rlcf	(??___fldiv+3)^0,w,c
  8085   0070C8  321A               	rrcf	(??___fldiv+3)^0,f,c
  8086   0070CA  3219               	rrcf	(??___fldiv+2)^0,f,c
  8087   0070CC  3218               	rrcf	(??___fldiv+1)^0,f,c
  8088   0070CE  3217               	rrcf	??___fldiv^0,f,c
  8089   0070D0  C017  F00F         	movff	??___fldiv,___fldiv@b
  8090   0070D4  C018  F010         	movff	??___fldiv+1,___fldiv@b+1
  8091   0070D8  C019  F011         	movff	??___fldiv+2,___fldiv@b+2
  8092   0070DC  C01A  F012         	movff	??___fldiv+3,___fldiv@b+3
  8093   0070E0  4A20               	infsnz	___fldiv@new_exp^0,f,c
  8094   0070E2  2A21               	incf	(___fldiv@new_exp+1)^0,f,c
  8095   0070E4                     l3374:
  8096   0070E4  BE21               	btfsc	(___fldiv@new_exp+1)^0,7,c
  8097   0070E6  EF7D  F038         	goto	u3001
  8098   0070EA  5021               	movf	(___fldiv@new_exp+1)^0,w,c
  8099   0070EC  E108               	bnz	u3000
  8100   0070EE  2820               	incf	___fldiv@new_exp^0,w,c
  8101   0070F0  A0D8               	btfss	status,0,c
  8102   0070F2  EF7D  F038         	goto	u3001
  8103   0070F6  EF7F  F038         	goto	u3000
  8104   0070FA                     u3001:
  8105   0070FA  EF8A  F038         	goto	l3378
  8106   0070FE                     u3000:
  8107   0070FE  0E00               	movlw	0
  8108   007100  6E21               	movwf	(___fldiv@new_exp+1)^0,c
  8109   007102  6820               	setf	___fldiv@new_exp^0,c
  8110   007104  0E00               	movlw	0
  8111   007106  6E0F               	movwf	___fldiv@b^0,c
  8112   007108  0E00               	movlw	0
  8113   00710A  6E10               	movwf	(___fldiv@b+1)^0,c
  8114   00710C  0E00               	movlw	0
  8115   00710E  6E11               	movwf	(___fldiv@b+2)^0,c
  8116   007110  0E00               	movlw	0
  8117   007112  6E12               	movwf	(___fldiv@b+3)^0,c
  8118   007114                     l3378:
  8119   007114  BE21               	btfsc	(___fldiv@new_exp+1)^0,7,c
  8120   007116  EF97  F038         	goto	u3010
  8121   00711A  5021               	movf	(___fldiv@new_exp+1)^0,w,c
  8122   00711C  E106               	bnz	u3011
  8123   00711E  0420               	decf	___fldiv@new_exp^0,w,c
  8124   007120  B0D8               	btfsc	status,0,c
  8125   007122  EF95  F038         	goto	u3011
  8126   007126  EF97  F038         	goto	u3010
  8127   00712A                     u3011:
  8128   00712A  EFA3  F038         	goto	l3384
  8129   00712E                     u3010:
  8130   00712E  6A21               	clrf	(___fldiv@new_exp+1)^0,c
  8131   007130  0E00               	movlw	0
  8132   007132  6E20               	movwf	___fldiv@new_exp^0,c
  8133   007134  0E00               	movlw	0
  8134   007136  6E0F               	movwf	___fldiv@b^0,c
  8135   007138  0E00               	movlw	0
  8136   00713A  6E10               	movwf	(___fldiv@b+1)^0,c
  8137   00713C  0E00               	movlw	0
  8138   00713E  6E11               	movwf	(___fldiv@b+2)^0,c
  8139   007140  0E00               	movlw	0
  8140   007142  6E12               	movwf	(___fldiv@b+3)^0,c
  8141   007144  6A1F               	clrf	___fldiv@sign^0,c
  8142   007146                     l3384:
  8143   007146  C020  F026         	movff	___fldiv@new_exp,___fldiv@bexp
  8144   00714A  A026               	btfss	___fldiv@bexp^0,0,c
  8145   00714C  EFAA  F038         	goto	u3021
  8146   007150  EFAC  F038         	goto	u3020
  8147   007154                     u3021:
  8148   007154  EFAF  F038         	goto	l3390
  8149   007158                     u3020:
  8150   007158  8E11               	bsf	(___fldiv@b+2)^0,7,c
  8151   00715A  EFB0  F038         	goto	l3392
  8152   00715E                     l3390:
  8153   00715E  9E11               	bcf	(___fldiv@b+2)^0,7,c
  8154   007160                     l3392:
  8155   007160  90D8               	bcf	status,0,c
  8156   007162  3026               	rrcf	___fldiv@bexp^0,w,c
  8157   007164  6E12               	movwf	(___fldiv@b+3)^0,c
  8158   007166  EF6A  F037         	goto	l3308
  8159   00716A                     l1015:
  8160   00716A  0012               	return		;funcret
  8161   00716C                     __end_of___fldiv:
  8162                           	callstack 0
  8163                           
  8164 ;; *************** function _DS18B20_WriteByte *****************
  8165 ;; Defined at:
  8166 ;;		line 92 in file "ds18b20.c"
  8167 ;; Parameters:    Size  Location     Type
  8168 ;;  byte            1    wreg     unsigned char 
  8169 ;; Auto vars:     Size  Location     Type
  8170 ;;  byte            1    1[COMRAM] unsigned char 
  8171 ;;  i               1    2[COMRAM] unsigned char 
  8172 ;; Return value:  Size  Location     Type
  8173 ;;                  1    wreg      void 
  8174 ;; Registers used:
  8175 ;;		wreg, status,2, status,0, cstack
  8176 ;; Tracked objects:
  8177 ;;		On entry : 0/0
  8178 ;;		On exit  : 0/0
  8179 ;;		Unchanged: 0/0
  8180 ;; Data sizes:     COMRAM   BANK0   BANK1   BANK2   BANK3   BANK4   BANK5   BANK6   BANK7
  8181 ;;      Params:         0       0       0       0       0       0       0       0       0
  8182 ;;      Locals:         2       0       0       0       0       0       0       0       0
  8183 ;;      Temps:          0       0       0       0       0       0       0       0       0
  8184 ;;      Totals:         2       0       0       0       0       0       0       0       0
  8185 ;;Total ram usage:        2 bytes
  8186 ;; Hardware stack levels used: 1
  8187 ;; This function calls:
  8188 ;;		_OW_WriteBit
  8189 ;; This function is called by:
  8190 ;;		_DS18B20_StartConversion
  8191 ;;		_DS18B20_ReadTemp
  8192 ;; This function uses a non-reentrant model
  8193 ;;
  8194                           
  8195                           	psect	text38
  8196   00592C                     __ptext38:
  8197                           	callstack 0
  8198   00592C                     _DS18B20_WriteByte:
  8199                           	callstack 29
  8200                           
  8201                           ;incstack = 0
  8202                           ;DS18B20_WriteByte@byte stored from wreg
  8203   00592C  6E02               	movwf	DS18B20_WriteByte@byte^0,c
  8204   00592E                     
  8205                           ;ds18b20.c: 93:     unsigned char i;;ds18b20.c: 94:     for (i = 0; i < 8; i++) {
  8206   00592E  6A03               	clrf	DS18B20_WriteByte@i^0,c
  8207   005930                     l3022:
  8208                           
  8209                           ;ds18b20.c: 95:         OW_WriteBit(byte & 0x01);
  8210   005930  5002               	movf	DS18B20_WriteByte@byte^0,w,c
  8211   005932  0B01               	andlw	1
  8212   005934  EC34  F02D         	call	_OW_WriteBit
  8213   005938                     
  8214                           ;ds18b20.c: 96:         byte >>= 1;
  8215   005938  90D8               	bcf	status,0,c
  8216   00593A  3202               	rrcf	DS18B20_WriteByte@byte^0,f,c
  8217   00593C                     
  8218                           ;ds18b20.c: 97:     }
  8219   00593C  2A03               	incf	DS18B20_WriteByte@i^0,f,c
  8220   00593E  0E07               	movlw	7
  8221   005940  6403               	cpfsgt	DS18B20_WriteByte@i^0,c
  8222   005942  EFA5  F02C         	goto	u2351
  8223   005946  EFA7  F02C         	goto	u2350
  8224   00594A                     u2351:
  8225   00594A  EF98  F02C         	goto	l3022
  8226   00594E                     u2350:
  8227   00594E  0012               	return		;funcret
  8228   005950                     __end_of_DS18B20_WriteByte:
  8229                           	callstack 0
  8230                           
  8231 ;; *************** function _OW_WriteBit *****************
  8232 ;; Defined at:
  8233 ;;		line 59 in file "ds18b20.c"
  8234 ;; Parameters:    Size  Location     Type
  8235 ;;  bit             1    wreg     unsigned char 
  8236 ;; Auto vars:     Size  Location     Type
  8237 ;;  bit             1    0[COMRAM] unsigned char 
  8238 ;; Return value:  Size  Location     Type
  8239 ;;                  1    wreg      void 
  8240 ;; Registers used:
  8241 ;;		wreg, status,2, cstack
  8242 ;; Tracked objects:
  8243 ;;		On entry : 0/0
  8244 ;;		On exit  : 0/0
  8245 ;;		Unchanged: 0/0
  8246 ;; Data sizes:     COMRAM   BANK0   BANK1   BANK2   BANK3   BANK4   BANK5   BANK6   BANK7
  8247 ;;      Params:         0       0       0       0       0       0       0       0       0
  8248 ;;      Locals:         1       0       0       0       0       0       0       0       0
  8249 ;;      Temps:          0       0       0       0       0       0       0       0       0
  8250 ;;      Totals:         1       0       0       0       0       0       0       0       0
  8251 ;;Total ram usage:        1 bytes
  8252 ;; Hardware stack levels used: 1
  8253 ;; Hardware stack levels required when called: 1
  8254 ;; This function calls:
  8255 ;;		_OW_Release
  8256 ;; This function is called by:
  8257 ;;		_DS18B20_WriteByte
  8258 ;; This function uses a non-reentrant model
  8259 ;;
  8260                           
  8261                           	psect	text39
  8262   005A68                     __ptext39:
  8263                           	callstack 0
  8264   005A68                     _OW_WriteBit:
  8265                           	callstack 27
  8266                           
  8267                           ;incstack = 0
  8268                           ;OW_WriteBit@bit stored from wreg
  8269   005A68  6E01               	movwf	OW_WriteBit@bit^0,c
  8270   005A6A                     
  8271                           ;ds18b20.c: 60:     if (bit) {
  8272   005A6A  5001               	movf	OW_WriteBit@bit^0,w,c
  8273   005A6C  B4D8               	btfsc	status,2,c
  8274   005A6E  EF3B  F02D         	goto	u2091
  8275   005A72  EF3D  F02D         	goto	u2090
  8276   005A76                     u2091:
  8277   005A76  EF49  F02D         	goto	l290
  8278   005A7A                     u2090:
  8279   005A7A                     
  8280                           ;ds18b20.c: 62:         LATDbits.LATD6 = 0; TRISDbits.TRISD6 = 0;
  8281   005A7A  9C8C               	bcf	140,6,c	;volatile
  8282   005A7C  9C95               	bcf	149,6,c	;volatile
  8283                           
  8284                           ;ds18b20.c: 63:         _delay((unsigned long)((2)*(8000000/4000000.0)));
  8285   005A7E  D000               	nop2		;2 cycle nop
  8286   005A80  D000               	nop2		;2 cycle nop
  8287   005A82                     
  8288                           ;ds18b20.c: 64:         OW_Release();
  8289   005A82  EC14  F02C         	call	_OW_Release	;wreg free
  8290   005A86                     
  8291                           ;ds18b20.c: 65:         _delay((unsigned long)((62)*(8000000/4000000.0)));
  8292   005A86  0E29               	movlw	41
  8293   005A88                     u4207:
  8294   005A88  2EE8               	decfsz	wreg,f,c
  8295   005A8A  D7FE               	bra	u4207
  8296   005A8C  0000               	nop	
  8297                           
  8298                           ;ds18b20.c: 66:     } else {
  8299   005A8E  EF53  F02D         	goto	l292
  8300   005A92                     l290:
  8301                           
  8302                           ;ds18b20.c: 68:         LATDbits.LATD6 = 0; TRISDbits.TRISD6 = 0;
  8303   005A92  9C8C               	bcf	140,6,c	;volatile
  8304   005A94  9C95               	bcf	149,6,c	;volatile
  8305   005A96                     
  8306                           ;ds18b20.c: 69:         _delay((unsigned long)((64)*(8000000/4000000.0)));
  8307   005A96  0E2A               	movlw	42
  8308   005A98                     u4217:
  8309   005A98  2EE8               	decfsz	wreg,f,c
  8310   005A9A  D7FE               	bra	u4217
  8311   005A9C  D000               	nop2	
  8312   005A9E                     
  8313                           ;ds18b20.c: 70:         OW_Release();
  8314   005A9E  EC14  F02C         	call	_OW_Release	;wreg free
  8315   005AA2                     
  8316                           ;ds18b20.c: 71:         _delay((unsigned long)((2)*(8000000/4000000.0)));
  8317   005AA2  D000               	nop2		;2 cycle nop
  8318   005AA4  D000               	nop2		;2 cycle nop
  8319   005AA6                     l292:
  8320   005AA6  0012               	return		;funcret
  8321   005AA8                     __end_of_OW_WriteBit:
  8322                           	callstack 0
  8323                           
  8324 ;; *************** function _DS18B20_Reset *****************
  8325 ;; Defined at:
  8326 ;;		line 30 in file "ds18b20.c"
  8327 ;; Parameters:    Size  Location     Type
  8328 ;;		None
  8329 ;; Auto vars:     Size  Location     Type
  8330 ;;  presence        1    0[COMRAM] unsigned char 
  8331 ;; Return value:  Size  Location     Type
  8332 ;;                  1    wreg      unsigned char 
  8333 ;; Registers used:
  8334 ;;		wreg, status,2, cstack
  8335 ;; Tracked objects:
  8336 ;;		On entry : 0/0
  8337 ;;		On exit  : 0/0
  8338 ;;		Unchanged: 0/0
  8339 ;; Data sizes:     COMRAM   BANK0   BANK1   BANK2   BANK3   BANK4   BANK5   BANK6   BANK7
  8340 ;;      Params:         0       0       0       0       0       0       0       0       0
  8341 ;;      Locals:         1       0       0       0       0       0       0       0       0
  8342 ;;      Temps:          0       0       0       0       0       0       0       0       0
  8343 ;;      Totals:         1       0       0       0       0       0       0       0       0
  8344 ;;Total ram usage:        1 bytes
  8345 ;; Hardware stack levels used: 1
  8346 ;; This function calls:
  8347 ;;		_OW_Release
  8348 ;; This function is called by:
  8349 ;;		_main
  8350 ;;		_DS18B20_StartConversion
  8351 ;;		_DS18B20_ReadTemp
  8352 ;; This function uses a non-reentrant model
  8353 ;;
  8354                           
  8355                           	psect	text40
  8356   005C06                     __ptext40:
  8357                           	callstack 0
  8358   005C06                     _DS18B20_Reset:
  8359                           	callstack 29
  8360   005C06                     
  8361                           ;ds18b20.c: 31:     unsigned char presence;;ds18b20.c: 34:     OW_Release();
  8362   005C06  EC14  F02C         	call	_OW_Release	;wreg free
  8363   005C0A                     
  8364                           ;ds18b20.c: 35:     _delay((unsigned long)((10)*(8000000/4000000.0)));
  8365   005C0A  0E06               	movlw	6
  8366   005C0C                     u4227:
  8367   005C0C  2EE8               	decfsz	wreg,f,c
  8368   005C0E  D7FE               	bra	u4227
  8369   005C10  D000               	nop2	
  8370   005C12                     
  8371                           ;ds18b20.c: 38:     if (PORTDbits.RD6 == 0) return 0;
  8372   005C12  BC83               	btfsc	131,6,c	;volatile
  8373   005C14  EF0E  F02E         	goto	u2251
  8374   005C18  EF10  F02E         	goto	u2250
  8375   005C1C                     u2251:
  8376   005C1C  EF13  F02E         	goto	l286
  8377   005C20                     u2250:
  8378   005C20  0E00               	movlw	0
  8379   005C22  EF2E  F02E         	goto	l287
  8380   005C26                     l286:
  8381                           
  8382                           ;ds18b20.c: 41:     LATDbits.LATD6 = 0;
  8383   005C26  9C8C               	bcf	140,6,c	;volatile
  8384                           
  8385                           ;ds18b20.c: 42:     TRISDbits.TRISD6 = 0;
  8386   005C28  9C95               	bcf	149,6,c	;volatile
  8387   005C2A                     
  8388                           ;ds18b20.c: 43:     _delay((unsigned long)((500)*(8000000/4000000.0)));
  8389   005C2A  0EC8               	movlw	200
  8390   005C2C                     u4237:
  8391   005C2C  D000               	nop2	
  8392   005C2E  2EE8               	decfsz	wreg,f,c
  8393   005C30  D7FD               	bra	u4237
  8394   005C32                     
  8395                           ;ds18b20.c: 46:     OW_Release();
  8396   005C32  EC14  F02C         	call	_OW_Release	;wreg free
  8397   005C36                     
  8398                           ;ds18b20.c: 47:     _delay((unsigned long)((70)*(8000000/4000000.0)));
  8399   005C36  0E2E               	movlw	46
  8400   005C38                     u4247:
  8401   005C38  2EE8               	decfsz	wreg,f,c
  8402   005C3A  D7FE               	bra	u4247
  8403   005C3C  D000               	nop2	
  8404   005C3E                     
  8405                           ;ds18b20.c: 49:     presence = (PORTDbits.RD6 == 0);
  8406   005C3E  AC83               	btfss	131,6,c	;volatile
  8407   005C40  EF24  F02E         	goto	u2261
  8408   005C44  EF27  F02E         	goto	u2260
  8409   005C48                     u2261:
  8410   005C48  0E01               	movlw	1
  8411   005C4A  EF28  F02E         	goto	u2270
  8412   005C4E                     u2260:
  8413   005C4E  0E00               	movlw	0
  8414   005C50                     u2270:
  8415   005C50  6E01               	movwf	DS18B20_Reset@presence^0,c
  8416   005C52                     
  8417                           ;ds18b20.c: 51:     _delay((unsigned long)((430)*(8000000/4000000.0)));
  8418   005C52  0EAC               	movlw	172
  8419   005C54                     u4257:
  8420   005C54  D000               	nop2	
  8421   005C56  2EE8               	decfsz	wreg,f,c
  8422   005C58  D7FD               	bra	u4257
  8423   005C5A                     
  8424                           ;ds18b20.c: 53:     return presence;
  8425   005C5A  5001               	movf	DS18B20_Reset@presence^0,w,c
  8426   005C5C                     l287:
  8427   005C5C  0012               	return		;funcret
  8428   005C5E                     __end_of_DS18B20_Reset:
  8429                           	callstack 0
  8430                           
  8431 ;; *************** function _DS18B20_ReadByte *****************
  8432 ;; Defined at:
  8433 ;;		line 100 in file "ds18b20.c"
  8434 ;; Parameters:    Size  Location     Type
  8435 ;;		None
  8436 ;; Auto vars:     Size  Location     Type
  8437 ;;  i               1    2[COMRAM] unsigned char 
  8438 ;;  data            1    1[COMRAM] unsigned char 
  8439 ;; Return value:  Size  Location     Type
  8440 ;;                  1    wreg      unsigned char 
  8441 ;; Registers used:
  8442 ;;		wreg, status,2, status,0, cstack
  8443 ;; Tracked objects:
  8444 ;;		On entry : 0/0
  8445 ;;		On exit  : 0/0
  8446 ;;		Unchanged: 0/0
  8447 ;; Data sizes:     COMRAM   BANK0   BANK1   BANK2   BANK3   BANK4   BANK5   BANK6   BANK7
  8448 ;;      Params:         0       0       0       0       0       0       0       0       0
  8449 ;;      Locals:         2       0       0       0       0       0       0       0       0
  8450 ;;      Temps:          0       0       0       0       0       0       0       0       0
  8451 ;;      Totals:         2       0       0       0       0       0       0       0       0
  8452 ;;Total ram usage:        2 bytes
  8453 ;; Hardware stack levels used: 1
  8454 ;; Hardware stack levels required when called: 2
  8455 ;; This function calls:
  8456 ;;		_OW_ReadBit
  8457 ;; This function is called by:
  8458 ;;		_DS18B20_ReadTemp
  8459 ;; This function uses a non-reentrant model
  8460 ;;
  8461                           
  8462                           	psect	text41
  8463   0059FC                     __ptext41:
  8464                           	callstack 0
  8465   0059FC                     _DS18B20_ReadByte:
  8466                           	callstack 27
  8467   0059FC                     
  8468                           ;ds18b20.c: 101:     unsigned char i, data = 0;
  8469   0059FC  6A02               	clrf	DS18B20_ReadByte@data^0,c
  8470                           
  8471                           ;ds18b20.c: 102:     for (i = 0; i < 8; i++) {
  8472   0059FE  6A03               	clrf	DS18B20_ReadByte@i^0,c
  8473   005A00                     l3036:
  8474                           
  8475                           ;ds18b20.c: 103:         data >>= 1;
  8476   005A00  90D8               	bcf	status,0,c
  8477   005A02  3202               	rrcf	DS18B20_ReadByte@data^0,f,c
  8478   005A04                     
  8479                           ;ds18b20.c: 104:         if (OW_ReadBit()) data |= 0x80;
  8480   005A04  ECBB  F02C         	call	_OW_ReadBit	;wreg free
  8481   005A08  0900               	iorlw	0
  8482   005A0A  B4D8               	btfsc	status,2,c
  8483   005A0C  EF0A  F02D         	goto	u2361
  8484   005A10  EF0C  F02D         	goto	u2360
  8485   005A14                     u2361:
  8486   005A14  EF0D  F02D         	goto	l305
  8487   005A18                     u2360:
  8488   005A18  8E02               	bsf	DS18B20_ReadByte@data^0,7,c
  8489   005A1A                     l305:
  8490                           
  8491                           ;ds18b20.c: 105:     }
  8492   005A1A  2A03               	incf	DS18B20_ReadByte@i^0,f,c
  8493   005A1C  0E07               	movlw	7
  8494   005A1E  6403               	cpfsgt	DS18B20_ReadByte@i^0,c
  8495   005A20  EF14  F02D         	goto	u2371
  8496   005A24  EF16  F02D         	goto	u2370
  8497   005A28                     u2371:
  8498   005A28  EF00  F02D         	goto	l3036
  8499   005A2C                     u2370:
  8500   005A2C                     
  8501                           ;ds18b20.c: 106:     return data;
  8502   005A2C  5002               	movf	DS18B20_ReadByte@data^0,w,c
  8503   005A2E  0012               	return		;funcret
  8504   005A30                     __end_of_DS18B20_ReadByte:
  8505                           	callstack 0
  8506                           
  8507 ;; *************** function _OW_ReadBit *****************
  8508 ;; Defined at:
  8509 ;;		line 78 in file "ds18b20.c"
  8510 ;; Parameters:    Size  Location     Type
  8511 ;;		None
  8512 ;; Auto vars:     Size  Location     Type
  8513 ;;  bit             1    0[COMRAM] unsigned char 
  8514 ;; Return value:  Size  Location     Type
  8515 ;;                  1    wreg      unsigned char 
  8516 ;; Registers used:
  8517 ;;		wreg, status,2, cstack
  8518 ;; Tracked objects:
  8519 ;;		On entry : 0/0
  8520 ;;		On exit  : 0/0
  8521 ;;		Unchanged: 0/0
  8522 ;; Data sizes:     COMRAM   BANK0   BANK1   BANK2   BANK3   BANK4   BANK5   BANK6   BANK7
  8523 ;;      Params:         0       0       0       0       0       0       0       0       0
  8524 ;;      Locals:         1       0       0       0       0       0       0       0       0
  8525 ;;      Temps:          0       0       0       0       0       0       0       0       0
  8526 ;;      Totals:         1       0       0       0       0       0       0       0       0
  8527 ;;Total ram usage:        1 bytes
  8528 ;; Hardware stack levels used: 1
  8529 ;; Hardware stack levels required when called: 1
  8530 ;; This function calls:
  8531 ;;		_OW_Release
  8532 ;; This function is called by:
  8533 ;;		_DS18B20_ReadByte
  8534 ;; This function uses a non-reentrant model
  8535 ;;
  8536                           
  8537                           	psect	text42
  8538   005976                     __ptext42:
  8539                           	callstack 0
  8540   005976                     _OW_ReadBit:
  8541                           	callstack 27
  8542   005976                     
  8543                           ;ds18b20.c: 79:     unsigned char bit;;ds18b20.c: 80:     LATDbits.LATD6 = 0; TRISDbits.
      +                          TRISD6 = 0;
  8544   005976  9C8C               	bcf	140,6,c	;volatile
  8545   005978  9C95               	bcf	149,6,c	;volatile
  8546                           
  8547                           ;ds18b20.c: 81:     _delay((unsigned long)((2)*(8000000/4000000.0)));
  8548   00597A  D000               	nop2		;2 cycle nop
  8549   00597C  D000               	nop2		;2 cycle nop
  8550   00597E                     
  8551                           ;ds18b20.c: 82:     OW_Release();
  8552   00597E  EC14  F02C         	call	_OW_Release	;wreg free
  8553   005982                     
  8554                           ;ds18b20.c: 83:     _delay((unsigned long)((10)*(8000000/4000000.0)));
  8555   005982  0E06               	movlw	6
  8556   005984                     u4267:
  8557   005984  2EE8               	decfsz	wreg,f,c
  8558   005986  D7FE               	bra	u4267
  8559   005988  D000               	nop2	
  8560   00598A                     
  8561                           ;ds18b20.c: 84:     bit = PORTDbits.RD6;
  8562   00598A  0E00               	movlw	0
  8563   00598C  BC83               	btfsc	131,6,c	;volatile
  8564   00598E  0E01               	movlw	1
  8565   005990  6E01               	movwf	OW_ReadBit@bit^0,c
  8566   005992                     
  8567                           ;ds18b20.c: 85:     _delay((unsigned long)((52)*(8000000/4000000.0)));
  8568   005992  0E22               	movlw	34
  8569   005994                     u4277:
  8570   005994  2EE8               	decfsz	wreg,f,c
  8571   005996  D7FE               	bra	u4277
  8572   005998  D000               	nop2	
  8573   00599A                     
  8574                           ;ds18b20.c: 86:     return bit;
  8575   00599A  5001               	movf	OW_ReadBit@bit^0,w,c
  8576   00599C  0012               	return		;funcret
  8577   00599E                     __end_of_OW_ReadBit:
  8578                           	callstack 0
  8579                           
  8580 ;; *************** function _OW_Release *****************
  8581 ;; Defined at:
  8582 ;;		line 21 in file "ds18b20.c"
  8583 ;; Parameters:    Size  Location     Type
  8584 ;;		None
  8585 ;; Auto vars:     Size  Location     Type
  8586 ;;		None
  8587 ;; Return value:  Size  Location     Type
  8588 ;;                  1    wreg      void 
  8589 ;; Registers used:
  8590 ;;		None
  8591 ;; Tracked objects:
  8592 ;;		On entry : 0/0
  8593 ;;		On exit  : 0/0
  8594 ;;		Unchanged: 0/0
  8595 ;; Data sizes:     COMRAM   BANK0   BANK1   BANK2   BANK3   BANK4   BANK5   BANK6   BANK7
  8596 ;;      Params:         0       0       0       0       0       0       0       0       0
  8597 ;;      Locals:         0       0       0       0       0       0       0       0       0
  8598 ;;      Temps:          0       0       0       0       0       0       0       0       0
  8599 ;;      Totals:         0       0       0       0       0       0       0       0       0
  8600 ;;Total ram usage:        0 bytes
  8601 ;; Hardware stack levels used: 1
  8602 ;; This function calls:
  8603 ;;		Nothing
  8604 ;; This function is called by:
  8605 ;;		_DS18B20_Reset
  8606 ;;		_OW_WriteBit
  8607 ;;		_OW_ReadBit
  8608 ;; This function uses a non-reentrant model
  8609 ;;
  8610                           
  8611                           	psect	text43
  8612   005828                     __ptext43:
  8613                           	callstack 0
  8614   005828                     _OW_Release:
  8615                           	callstack 27
  8616   005828                     
  8617                           ;ds18b20.c: 22:     LATDbits.LATD6 = 1;
  8618   005828  8C8C               	bsf	140,6,c	;volatile
  8619                           
  8620                           ;ds18b20.c: 23:     TRISDbits.TRISD6 = 1;
  8621   00582A  8C95               	bsf	149,6,c	;volatile
  8622   00582C  0012               	return		;funcret
  8623   00582E                     __end_of_OW_Release:
  8624                           	callstack 0
  8625                           
  8626 ;; *************** function _CAR_ProcesarMuestra *****************
  8627 ;; Defined at:
  8628 ;;		line 30 in file "card.c"
  8629 ;; Parameters:    Size  Location     Type
  8630 ;;  red             4   13[COMRAM] unsigned long 
  8631 ;;  ir              4   17[COMRAM] unsigned long 
  8632 ;; Auto vars:     Size  Location     Type
  8633 ;;  bpm_calc        2   31[COMRAM] unsigned int 
  8634 ;;  i               1   33[COMRAM] unsigned char 
  8635 ;;  delta           4   27[COMRAM] long 
  8636 ;;  promedio        4   23[COMRAM] unsigned long 
  8637 ;; Return value:  Size  Location     Type
  8638 ;;                  1    wreg      unsigned char 
  8639 ;; Registers used:
  8640 ;;		wreg, fsr2l, fsr2h, status,2, status,0, prodl, prodh, cstack
  8641 ;; Tracked objects:
  8642 ;;		On entry : 0/0
  8643 ;;		On exit  : 0/0
  8644 ;;		Unchanged: 0/0
  8645 ;; Data sizes:     COMRAM   BANK0   BANK1   BANK2   BANK3   BANK4   BANK5   BANK6   BANK7
  8646 ;;      Params:         8       0       0       0       0       0       0       0       0
  8647 ;;      Locals:        13       0       0       0       0       0       0       0       0
  8648 ;;      Temps:          0       0       0       0       0       0       0       0       0
  8649 ;;      Totals:        21       0       0       0       0       0       0       0       0
  8650 ;;Total ram usage:       21 bytes
  8651 ;; Hardware stack levels used: 1
  8652 ;; Hardware stack levels required when called: 1
  8653 ;; This function calls:
  8654 ;;		_CAR_HayDedo
  8655 ;;		___lldiv
  8656 ;;		_calcular_promedio
  8657 ;; This function is called by:
  8658 ;;		_main
  8659 ;; This function uses a non-reentrant model
  8660 ;;
  8661                           
  8662                           	psect	text44
  8663   006BE2                     __ptext44:
  8664                           	callstack 0
  8665   006BE2                     _CAR_ProcesarMuestra:
  8666                           	callstack 29
  8667   006BE2                     
  8668                           ;card.c: 31:     unsigned long promedio;;card.c: 32:     long delta;;card.c: 34:     if 
      +                          (!CAR_HayDedo(ir)) {
  8669   006BE2  C012  F001         	movff	CAR_ProcesarMuestra@ir,CAR_HayDedo@ir
  8670   006BE6  C013  F002         	movff	CAR_ProcesarMuestra@ir+1,CAR_HayDedo@ir+1
  8671   006BEA  C014  F003         	movff	CAR_ProcesarMuestra@ir+2,CAR_HayDedo@ir+2
  8672   006BEE  C015  F004         	movff	CAR_ProcesarMuestra@ir+3,CAR_HayDedo@ir+3
  8673   006BF2  EC52  F02C         	call	_CAR_HayDedo	;wreg free
  8674   006BF6  0900               	iorlw	0
  8675   006BF8  A4D8               	btfss	status,2,c
  8676   006BFA  EF01  F036         	goto	u3261
  8677   006BFE  EF03  F036         	goto	u3260
  8678   006C02                     u3261:
  8679   006C02  EF32  F036         	goto	l3734
  8680   006C06                     u3260:
  8681   006C06                     
  8682                           ;card.c: 35:         unsigned char i;;card.c: 36:         buf_idx = 0;
  8683   006C06  6A5B               	clrf	_buf_idx^0,c
  8684                           
  8685                           ;card.c: 37:         bpm_actual = 0;
  8686   006C08  6A5A               	clrf	_bpm_actual^0,c
  8687   006C0A                     
  8688                           ;card.c: 38:         muestras_pico = 0;
  8689   006C0A  6A5D               	clrf	(_muestras_pico+1)^0,c
  8690   006C0C  0E00               	movlw	0
  8691   006C0E  6E5C               	movwf	_muestras_pico^0,c
  8692   006C10                     
  8693                           ;card.c: 39:         en_pico = 0;
  8694   006C10  6A59               	clrf	_en_pico^0,c
  8695   006C12                     
  8696                           ;card.c: 40:         picos_contados = 0;
  8697   006C12  6A58               	clrf	_picos_contados^0,c
  8698                           
  8699                           ;card.c: 41:         ir_promedio_ant = 0;
  8700   006C14  0E00               	movlw	0
  8701   006C16  6E54               	movwf	_ir_promedio_ant^0,c
  8702   006C18  0E00               	movlw	0
  8703   006C1A  6E55               	movwf	(_ir_promedio_ant+1)^0,c
  8704   006C1C  0E00               	movlw	0
  8705   006C1E  6E56               	movwf	(_ir_promedio_ant+2)^0,c
  8706   006C20  0E00               	movlw	0
  8707   006C22  6E57               	movwf	(_ir_promedio_ant+3)^0,c
  8708                           
  8709                           ;card.c: 42:         CAR_ultimo_delta = 0;
  8710   006C24  0E00               	movlw	0
  8711   006C26  0100               	movlb	0	; () banked
  8712   006C28  6FA0               	movwf	_CAR_ultimo_delta& (0+255),b
  8713   006C2A  0E00               	movlw	0
  8714   006C2C  6FA1               	movwf	(_CAR_ultimo_delta+1)& (0+255),b
  8715   006C2E  0E00               	movlw	0
  8716   006C30  6FA2               	movwf	(_CAR_ultimo_delta+2)& (0+255),b
  8717   006C32  0E00               	movlw	0
  8718   006C34  6FA3               	movwf	(_CAR_ultimo_delta+3)& (0+255),b
  8719   006C36                     
  8720                           ; BSR set to: 0
  8721                           ;card.c: 43:         for (i = 0; i < 16; i++) ir_buffer[i] = 0;
  8722   006C36  6A22               	clrf	CAR_ProcesarMuestra@i^0,c
  8723   006C38                     l3724:
  8724   006C38  5022               	movf	CAR_ProcesarMuestra@i^0,w,c
  8725   006C3A  0D04               	mullw	4
  8726   006C3C  50F3               	movf	243,w,c
  8727   006C3E  0F60               	addlw	low _ir_buffer
  8728   006C40  6ED9               	movwf	fsr2l,c
  8729   006C42  6ADA               	clrf	fsr2h,c
  8730   006C44  6ADE               	clrf	postinc2,c
  8731   006C46  6ADE               	clrf	postinc2,c
  8732   006C48  6ADE               	clrf	postinc2,c
  8733   006C4A  6ADD               	clrf	postdec2,c
  8734   006C4C  2A22               	incf	CAR_ProcesarMuestra@i^0,f,c
  8735   006C4E  0E0F               	movlw	15
  8736   006C50  6422               	cpfsgt	CAR_ProcesarMuestra@i^0,c
  8737   006C52  EF2D  F036         	goto	u3271
  8738   006C56  EF2F  F036         	goto	u3270
  8739   006C5A                     u3271:
  8740   006C5A  EF1C  F036         	goto	l3724
  8741   006C5E                     u3270:
  8742   006C5E                     
  8743                           ;card.c: 44:         return 0;
  8744   006C5E  0E00               	movlw	0
  8745   006C60  EFEE  F036         	goto	l260
  8746   006C64                     l3734:
  8747                           
  8748                           ;card.c: 47:     ir_buffer[buf_idx] = ir;
  8749   006C64  505B               	movf	_buf_idx^0,w,c
  8750   006C66  0D04               	mullw	4
  8751   006C68  50F3               	movf	243,w,c
  8752   006C6A  0F60               	addlw	low _ir_buffer
  8753   006C6C  6ED9               	movwf	fsr2l,c
  8754   006C6E  6ADA               	clrf	fsr2h,c
  8755   006C70  C012  FFDE         	movff	CAR_ProcesarMuestra@ir,postinc2
  8756   006C74  C013  FFDE         	movff	CAR_ProcesarMuestra@ir+1,postinc2
  8757   006C78  C014  FFDE         	movff	CAR_ProcesarMuestra@ir+2,postinc2
  8758   006C7C  C015  FFDE         	movff	CAR_ProcesarMuestra@ir+3,postinc2
  8759   006C80                     
  8760                           ;card.c: 48:     buf_idx = (buf_idx + 1) % 16;
  8761   006C80  285B               	incf	_buf_idx^0,w,c
  8762   006C82  0B0F               	andlw	15
  8763   006C84  6E5B               	movwf	_buf_idx^0,c
  8764   006C86                     
  8765                           ;card.c: 49:     muestras_pico++;
  8766   006C86  4A5C               	infsnz	_muestras_pico^0,f,c
  8767   006C88  2A5D               	incf	(_muestras_pico+1)^0,f,c
  8768   006C8A                     
  8769                           ;card.c: 51:     promedio = calcular_promedio();
  8770   006C8A  EC24  F02F         	call	_calcular_promedio	;wreg free
  8771   006C8E  C001  F018         	movff	?_calcular_promedio,CAR_ProcesarMuestra@promedio
  8772   006C92  C002  F019         	movff	?_calcular_promedio+1,CAR_ProcesarMuestra@promedio+1
  8773   006C96  C003  F01A         	movff	?_calcular_promedio+2,CAR_ProcesarMuestra@promedio+2
  8774   006C9A  C004  F01B         	movff	?_calcular_promedio+3,CAR_ProcesarMuestra@promedio+3
  8775   006C9E                     
  8776                           ;card.c: 52:     delta = (long)ir_promedio_ant - (long)promedio;
  8777   006C9E  5018               	movf	CAR_ProcesarMuestra@promedio^0,w,c
  8778   006CA0  5C54               	subwf	_ir_promedio_ant^0,w,c
  8779   006CA2  6E1C               	movwf	CAR_ProcesarMuestra@delta^0,c
  8780   006CA4  5019               	movf	(CAR_ProcesarMuestra@promedio+1)^0,w,c
  8781   006CA6  5855               	subwfb	(_ir_promedio_ant+1)^0,w,c
  8782   006CA8  6E1D               	movwf	(CAR_ProcesarMuestra@delta+1)^0,c
  8783   006CAA  501A               	movf	(CAR_ProcesarMuestra@promedio+2)^0,w,c
  8784   006CAC  5856               	subwfb	(_ir_promedio_ant+2)^0,w,c
  8785   006CAE  6E1E               	movwf	(CAR_ProcesarMuestra@delta+2)^0,c
  8786   006CB0  501B               	movf	(CAR_ProcesarMuestra@promedio+3)^0,w,c
  8787   006CB2  5857               	subwfb	(_ir_promedio_ant+3)^0,w,c
  8788   006CB4  6E1F               	movwf	(CAR_ProcesarMuestra@delta+3)^0,c
  8789   006CB6                     
  8790                           ;card.c: 53:     CAR_ultimo_delta = delta;
  8791   006CB6  C01C  F0A0         	movff	CAR_ProcesarMuestra@delta,_CAR_ultimo_delta
  8792   006CBA  C01D  F0A1         	movff	CAR_ProcesarMuestra@delta+1,_CAR_ultimo_delta+1
  8793   006CBE  C01E  F0A2         	movff	CAR_ProcesarMuestra@delta+2,_CAR_ultimo_delta+2
  8794   006CC2  C01F  F0A3         	movff	CAR_ProcesarMuestra@delta+3,_CAR_ultimo_delta+3
  8795   006CC6                     
  8796                           ;card.c: 55:     if (delta > 80 && !en_pico) {
  8797   006CC6  BE1F               	btfsc	(CAR_ProcesarMuestra@delta+3)^0,7,c
  8798   006CC8  EF71  F036         	goto	u3281
  8799   006CCC  501F               	movf	(CAR_ProcesarMuestra@delta+3)^0,w,c
  8800   006CCE  101E               	iorwf	(CAR_ProcesarMuestra@delta+2)^0,w,c
  8801   006CD0  101D               	iorwf	(CAR_ProcesarMuestra@delta+1)^0,w,c
  8802   006CD2  E109               	bnz	u3280
  8803   006CD4  0E51               	movlw	81
  8804   006CD6  5C1C               	subwf	CAR_ProcesarMuestra@delta^0,w,c
  8805   006CD8  A0D8               	btfss	status,0,c
  8806   006CDA  EF71  F036         	goto	u3281
  8807   006CDE  EF73  F036         	goto	u3280
  8808   006CE2                     u3281:
  8809   006CE2  EFD2  F036         	goto	l3776
  8810   006CE6                     u3280:
  8811   006CE6  5059               	movf	_en_pico^0,w,c
  8812   006CE8  A4D8               	btfss	status,2,c
  8813   006CEA  EF79  F036         	goto	u3291
  8814   006CEE  EF7B  F036         	goto	u3290
  8815   006CF2                     u3291:
  8816   006CF2  EFD2  F036         	goto	l3776
  8817   006CF6                     u3290:
  8818   006CF6                     
  8819                           ;card.c: 56:         en_pico = 1;
  8820   006CF6  0E01               	movlw	1
  8821   006CF8  6E59               	movwf	_en_pico^0,c
  8822   006CFA                     
  8823                           ;card.c: 57:         picos_contados++;
  8824   006CFA  2A58               	incf	_picos_contados^0,f,c
  8825   006CFC                     
  8826                           ;card.c: 58:         if (picos_contados >= 2 && muestras_pico > 0) {
  8827   006CFC  0E01               	movlw	1
  8828   006CFE  6458               	cpfsgt	_picos_contados^0,c
  8829   006D00  EF84  F036         	goto	u3301
  8830   006D04  EF86  F036         	goto	u3300
  8831   006D08                     u3301:
  8832   006D08  EFBB  F036         	goto	l3766
  8833   006D0C                     u3300:
  8834   006D0C  505C               	movf	_muestras_pico^0,w,c
  8835   006D0E  105D               	iorwf	(_muestras_pico+1)^0,w,c
  8836   006D10  B4D8               	btfsc	status,2,c
  8837   006D12  EF8D  F036         	goto	u3311
  8838   006D16  EF8F  F036         	goto	u3310
  8839   006D1A                     u3311:
  8840   006D1A  EFBB  F036         	goto	l3766
  8841   006D1E                     u3310:
  8842   006D1E                     
  8843                           ;card.c: 59:             unsigned int bpm_calc = (unsigned int)(3960UL / muestras_pico);
  8844   006D1E  0E78               	movlw	120
  8845   006D20  6E01               	movwf	___lldiv@dividend^0,c
  8846   006D22  0E0F               	movlw	15
  8847   006D24  6E02               	movwf	(___lldiv@dividend+1)^0,c
  8848   006D26  0E00               	movlw	0
  8849   006D28  6E03               	movwf	(___lldiv@dividend+2)^0,c
  8850   006D2A  0E00               	movlw	0
  8851   006D2C  6E04               	movwf	(___lldiv@dividend+3)^0,c
  8852   006D2E  C05C  F005         	movff	_muestras_pico,___lldiv@divisor
  8853   006D32  C05D  F006         	movff	_muestras_pico+1,___lldiv@divisor+1
  8854   006D36  6A07               	clrf	(___lldiv@divisor+2)^0,c
  8855   006D38  6A08               	clrf	(___lldiv@divisor+3)^0,c
  8856   006D3A  EC31  F030         	call	___lldiv	;wreg free
  8857   006D3E  C001  F020         	movff	?___lldiv,CAR_ProcesarMuestra@bpm_calc
  8858   006D42  C002  F021         	movff	?___lldiv+1,CAR_ProcesarMuestra@bpm_calc+1
  8859   006D46                     
  8860                           ;card.c: 60:             if (bpm_calc >= 40 && bpm_calc <= 180) {
  8861   006D46  5021               	movf	(CAR_ProcesarMuestra@bpm_calc+1)^0,w,c
  8862   006D48  E109               	bnz	u3320
  8863   006D4A  0E28               	movlw	40
  8864   006D4C  5C20               	subwf	CAR_ProcesarMuestra@bpm_calc^0,w,c
  8865   006D4E  A0D8               	btfss	status,0,c
  8866   006D50  EFAC  F036         	goto	u3321
  8867   006D54  EFAE  F036         	goto	u3320
  8868   006D58                     u3321:
  8869   006D58  EFBB  F036         	goto	l3766
  8870   006D5C                     u3320:
  8871   006D5C  5021               	movf	(CAR_ProcesarMuestra@bpm_calc+1)^0,w,c
  8872   006D5E  E107               	bnz	u3331
  8873   006D60  0EB5               	movlw	181
  8874   006D62  5C20               	subwf	CAR_ProcesarMuestra@bpm_calc^0,w,c
  8875   006D64  B0D8               	btfsc	status,0,c
  8876   006D66  EFB7  F036         	goto	u3331
  8877   006D6A  EFB9  F036         	goto	u3330
  8878   006D6E                     u3331:
  8879   006D6E  EFBB  F036         	goto	l3766
  8880   006D72                     u3330:
  8881   006D72                     
  8882                           ;card.c: 61:                 bpm_actual = (unsigned char)bpm_calc;
  8883   006D72  C020  F05A         	movff	CAR_ProcesarMuestra@bpm_calc,_bpm_actual
  8884   006D76                     l3766:
  8885                           
  8886                           ;card.c: 64:         muestras_pico = 0;
  8887   006D76  6A5D               	clrf	(_muestras_pico+1)^0,c
  8888   006D78  0E00               	movlw	0
  8889   006D7A  6E5C               	movwf	_muestras_pico^0,c
  8890   006D7C                     
  8891                           ;card.c: 65:         picos_contados = (picos_contados > 8) ? 1 : picos_contados;
  8892   006D7C  0E09               	movlw	9
  8893   006D7E  6058               	cpfslt	_picos_contados^0,c
  8894   006D80  EFC4  F036         	goto	u3341
  8895   006D84  EFC6  F036         	goto	u3340
  8896   006D88                     u3341:
  8897   006D88  EFCB  F036         	goto	l3772
  8898   006D8C                     u3340:
  8899   006D8C  C058  F016         	movff	_picos_contados,_CAR_ProcesarMuestra$542
  8900   006D90  6A17               	clrf	(_CAR_ProcesarMuestra$542+1)^0,c
  8901   006D92  EFCE  F036         	goto	l3774
  8902   006D96                     l3772:
  8903   006D96  6A17               	clrf	(_CAR_ProcesarMuestra$542+1)^0,c
  8904   006D98  0E01               	movlw	1
  8905   006D9A  6E16               	movwf	_CAR_ProcesarMuestra$542^0,c
  8906   006D9C                     l3774:
  8907   006D9C  C016  F058         	movff	_CAR_ProcesarMuestra$542,_picos_contados
  8908                           
  8909                           ;card.c: 66:     } else if (delta < -40) {
  8910   006DA0  EFE5  F036         	goto	l268
  8911   006DA4                     l3776:
  8912   006DA4  AE1F               	btfss	(CAR_ProcesarMuestra@delta+3)^0,7,c
  8913   006DA6  EFE2  F036         	goto	u3351
  8914   006DAA  0ED8               	movlw	216
  8915   006DAC  5C1C               	subwf	CAR_ProcesarMuestra@delta^0,w,c
  8916   006DAE  0EFF               	movlw	255
  8917   006DB0  581D               	subwfb	(CAR_ProcesarMuestra@delta+1)^0,w,c
  8918   006DB2  0EFF               	movlw	255
  8919   006DB4  581E               	subwfb	(CAR_ProcesarMuestra@delta+2)^0,w,c
  8920   006DB6  0EFF               	movlw	255
  8921   006DB8  581F               	subwfb	(CAR_ProcesarMuestra@delta+3)^0,w,c
  8922   006DBA  B0D8               	btfsc	status,0,c
  8923   006DBC  EFE2  F036         	goto	u3351
  8924   006DC0  EFE4  F036         	goto	u3350
  8925   006DC4                     u3351:
  8926   006DC4  EFE5  F036         	goto	l268
  8927   006DC8                     u3350:
  8928   006DC8                     
  8929                           ;card.c: 67:         en_pico = 0;
  8930   006DC8  6A59               	clrf	_en_pico^0,c
  8931   006DCA                     l268:
  8932                           
  8933                           ;card.c: 70:     ir_promedio_ant = promedio;
  8934   006DCA  C018  F054         	movff	CAR_ProcesarMuestra@promedio,_ir_promedio_ant
  8935   006DCE  C019  F055         	movff	CAR_ProcesarMuestra@promedio+1,_ir_promedio_ant+1
  8936   006DD2  C01A  F056         	movff	CAR_ProcesarMuestra@promedio+2,_ir_promedio_ant+2
  8937   006DD6  C01B  F057         	movff	CAR_ProcesarMuestra@promedio+3,_ir_promedio_ant+3
  8938   006DDA                     
  8939                           ;card.c: 71:     return bpm_actual;
  8940   006DDA  505A               	movf	_bpm_actual^0,w,c
  8941   006DDC                     l260:
  8942   006DDC  0012               	return		;funcret
  8943   006DDE                     __end_of_CAR_ProcesarMuestra:
  8944                           	callstack 0
  8945                           
  8946 ;; *************** function _calcular_promedio *****************
  8947 ;; Defined at:
  8948 ;;		line 19 in file "card.c"
  8949 ;; Parameters:    Size  Location     Type
  8950 ;;		None
  8951 ;; Auto vars:     Size  Location     Type
  8952 ;;  suma            4    8[COMRAM] unsigned long 
  8953 ;;  i               1   12[COMRAM] unsigned char 
  8954 ;; Return value:  Size  Location     Type
  8955 ;;                  4    0[COMRAM] unsigned long 
  8956 ;; Registers used:
  8957 ;;		wreg, fsr2l, fsr2h, status,2, status,0, prodl, prodh
  8958 ;; Tracked objects:
  8959 ;;		On entry : 0/0
  8960 ;;		On exit  : 0/0
  8961 ;;		Unchanged: 0/0
  8962 ;; Data sizes:     COMRAM   BANK0   BANK1   BANK2   BANK3   BANK4   BANK5   BANK6   BANK7
  8963 ;;      Params:         4       0       0       0       0       0       0       0       0
  8964 ;;      Locals:         5       0       0       0       0       0       0       0       0
  8965 ;;      Temps:          4       0       0       0       0       0       0       0       0
  8966 ;;      Totals:        13       0       0       0       0       0       0       0       0
  8967 ;;Total ram usage:       13 bytes
  8968 ;; Hardware stack levels used: 1
  8969 ;; This function calls:
  8970 ;;		Nothing
  8971 ;; This function is called by:
  8972 ;;		_CAR_ProcesarMuestra
  8973 ;; This function uses a non-reentrant model
  8974 ;;
  8975                           
  8976                           	psect	text45
  8977   005E48                     __ptext45:
  8978                           	callstack 0
  8979   005E48                     _calcular_promedio:
  8980                           	callstack 29
  8981   005E48                     
  8982                           ;card.c: 20:     unsigned long suma = 0;
  8983   005E48  0E00               	movlw	0
  8984   005E4A  6E09               	movwf	calcular_promedio@suma^0,c
  8985   005E4C  0E00               	movlw	0
  8986   005E4E  6E0A               	movwf	(calcular_promedio@suma+1)^0,c
  8987   005E50  0E00               	movlw	0
  8988   005E52  6E0B               	movwf	(calcular_promedio@suma+2)^0,c
  8989   005E54  0E00               	movlw	0
  8990   005E56  6E0C               	movwf	(calcular_promedio@suma+3)^0,c
  8991   005E58                     
  8992                           ;card.c: 21:     unsigned char i;;card.c: 22:     for (i = 0; i < 16; i++) suma += ir_bu
      +                          ffer[i];
  8993   005E58  6A0D               	clrf	calcular_promedio@i^0,c
  8994   005E5A                     l3006:
  8995   005E5A  500D               	movf	calcular_promedio@i^0,w,c
  8996   005E5C  0D04               	mullw	4
  8997   005E5E  50F3               	movf	243,w,c
  8998   005E60  0F60               	addlw	low _ir_buffer
  8999   005E62  6ED9               	movwf	fsr2l,c
  9000   005E64  6ADA               	clrf	fsr2h,c
  9001   005E66  50DE               	movf	postinc2,w,c
  9002   005E68  2609               	addwf	calcular_promedio@suma^0,f,c
  9003   005E6A  50DE               	movf	postinc2,w,c
  9004   005E6C  220A               	addwfc	(calcular_promedio@suma+1)^0,f,c
  9005   005E6E  50DE               	movf	postinc2,w,c
  9006   005E70  220B               	addwfc	(calcular_promedio@suma+2)^0,f,c
  9007   005E72  50DD               	movf	postdec2,w,c
  9008   005E74  220C               	addwfc	(calcular_promedio@suma+3)^0,f,c
  9009   005E76  2A0D               	incf	calcular_promedio@i^0,f,c
  9010   005E78  0E0F               	movlw	15
  9011   005E7A  640D               	cpfsgt	calcular_promedio@i^0,c
  9012   005E7C  EF42  F02F         	goto	u2331
  9013   005E80  EF44  F02F         	goto	u2330
  9014   005E84                     u2331:
  9015   005E84  EF2D  F02F         	goto	l3006
  9016   005E88                     u2330:
  9017   005E88                     
  9018                           ;card.c: 23:     return suma / 16;
  9019   005E88  C009  F005         	movff	calcular_promedio@suma,??_calcular_promedio
  9020   005E8C  C00A  F006         	movff	calcular_promedio@suma+1,??_calcular_promedio+1
  9021   005E90  C00B  F007         	movff	calcular_promedio@suma+2,??_calcular_promedio+2
  9022   005E94  C00C  F008         	movff	calcular_promedio@suma+3,??_calcular_promedio+3
  9023   005E98  0E05               	movlw	5
  9024   005E9A  EF54  F02F         	goto	u2340
  9025   005E9E                     u2345:
  9026   005E9E  90D8               	bcf	status,0,c
  9027   005EA0  3208               	rrcf	(??_calcular_promedio+3)^0,f,c
  9028   005EA2  3207               	rrcf	(??_calcular_promedio+2)^0,f,c
  9029   005EA4  3206               	rrcf	(??_calcular_promedio+1)^0,f,c
  9030   005EA6  3205               	rrcf	??_calcular_promedio^0,f,c
  9031   005EA8                     u2340:
  9032   005EA8  2EE8               	decfsz	wreg,f,c
  9033   005EAA  EF4F  F02F         	goto	u2345
  9034   005EAE  C005  F001         	movff	??_calcular_promedio,?_calcular_promedio
  9035   005EB2  C006  F002         	movff	??_calcular_promedio+1,?_calcular_promedio+1
  9036   005EB6  C007  F003         	movff	??_calcular_promedio+2,?_calcular_promedio+2
  9037   005EBA  C008  F004         	movff	??_calcular_promedio+3,?_calcular_promedio+3
  9038   005EBE  0012               	return		;funcret
  9039   005EC0                     __end_of_calcular_promedio:
  9040                           	callstack 0
  9041                           
  9042 ;; *************** function ___lldiv *****************
  9043 ;; Defined at:
  9044 ;;		line 7 in file "C:\Program Files\Microchip\xc8\v3.10\pic\sources\c99\common\__lldiv.c"
  9045 ;; Parameters:    Size  Location     Type
  9046 ;;  dividend        4    0[COMRAM] unsigned long 
  9047 ;;  divisor         4    4[COMRAM] unsigned long 
  9048 ;; Auto vars:     Size  Location     Type
  9049 ;;  quotient        4    8[COMRAM] unsigned long 
  9050 ;;  counter         1   12[COMRAM] unsigned char 
  9051 ;; Return value:  Size  Location     Type
  9052 ;;                  4    0[COMRAM] unsigned long 
  9053 ;; Registers used:
  9054 ;;		wreg, status,2, status,0
  9055 ;; Tracked objects:
  9056 ;;		On entry : 0/0
  9057 ;;		On exit  : 0/0
  9058 ;;		Unchanged: 0/0
  9059 ;; Data sizes:     COMRAM   BANK0   BANK1   BANK2   BANK3   BANK4   BANK5   BANK6   BANK7
  9060 ;;      Params:         8       0       0       0       0       0       0       0       0
  9061 ;;      Locals:         5       0       0       0       0       0       0       0       0
  9062 ;;      Temps:          0       0       0       0       0       0       0       0       0
  9063 ;;      Totals:        13       0       0       0       0       0       0       0       0
  9064 ;;Total ram usage:       13 bytes
  9065 ;; Hardware stack levels used: 1
  9066 ;; This function calls:
  9067 ;;		Nothing
  9068 ;; This function is called by:
  9069 ;;		_CAR_ProcesarMuestra
  9070 ;; This function uses a non-reentrant model
  9071 ;;
  9072                           
  9073                           	psect	text46
  9074   006062                     __ptext46:
  9075                           	callstack 0
  9076   006062                     ___lldiv:
  9077                           	callstack 29
  9078   006062  0E00               	movlw	0
  9079   006064  6E09               	movwf	___lldiv@quotient^0,c
  9080   006066  0E00               	movlw	0
  9081   006068  6E0A               	movwf	(___lldiv@quotient+1)^0,c
  9082   00606A  0E00               	movlw	0
  9083   00606C  6E0B               	movwf	(___lldiv@quotient+2)^0,c
  9084   00606E  0E00               	movlw	0
  9085   006070  6E0C               	movwf	(___lldiv@quotient+3)^0,c
  9086   006072  5005               	movf	___lldiv@divisor^0,w,c
  9087   006074  1006               	iorwf	(___lldiv@divisor+1)^0,w,c
  9088   006076  1007               	iorwf	(___lldiv@divisor+2)^0,w,c
  9089   006078  1008               	iorwf	(___lldiv@divisor+3)^0,w,c
  9090   00607A  B4D8               	btfsc	status,2,c
  9091   00607C  EF42  F030         	goto	u2381
  9092   006080  EF44  F030         	goto	u2380
  9093   006084                     u2381:
  9094   006084  EF7A  F030         	goto	l350
  9095   006088                     u2380:
  9096   006088  0E01               	movlw	1
  9097   00608A  6E0D               	movwf	___lldiv@counter^0,c
  9098   00608C  EF4E  F030         	goto	l3056
  9099   006090                     l3054:
  9100   006090  90D8               	bcf	status,0,c
  9101   006092  3605               	rlcf	___lldiv@divisor^0,f,c
  9102   006094  3606               	rlcf	(___lldiv@divisor+1)^0,f,c
  9103   006096  3607               	rlcf	(___lldiv@divisor+2)^0,f,c
  9104   006098  3608               	rlcf	(___lldiv@divisor+3)^0,f,c
  9105   00609A  2A0D               	incf	___lldiv@counter^0,f,c
  9106   00609C                     l3056:
  9107   00609C  AE08               	btfss	(___lldiv@divisor+3)^0,7,c
  9108   00609E  EF53  F030         	goto	u2391
  9109   0060A2  EF55  F030         	goto	u2390
  9110   0060A6                     u2391:
  9111   0060A6  EF48  F030         	goto	l3054
  9112   0060AA                     u2390:
  9113   0060AA                     l3058:
  9114   0060AA  90D8               	bcf	status,0,c
  9115   0060AC  3609               	rlcf	___lldiv@quotient^0,f,c
  9116   0060AE  360A               	rlcf	(___lldiv@quotient+1)^0,f,c
  9117   0060B0  360B               	rlcf	(___lldiv@quotient+2)^0,f,c
  9118   0060B2  360C               	rlcf	(___lldiv@quotient+3)^0,f,c
  9119   0060B4  5005               	movf	___lldiv@divisor^0,w,c
  9120   0060B6  5C01               	subwf	___lldiv@dividend^0,w,c
  9121   0060B8  5006               	movf	(___lldiv@divisor+1)^0,w,c
  9122   0060BA  5802               	subwfb	(___lldiv@dividend+1)^0,w,c
  9123   0060BC  5007               	movf	(___lldiv@divisor+2)^0,w,c
  9124   0060BE  5803               	subwfb	(___lldiv@dividend+2)^0,w,c
  9125   0060C0  5008               	movf	(___lldiv@divisor+3)^0,w,c
  9126   0060C2  5804               	subwfb	(___lldiv@dividend+3)^0,w,c
  9127   0060C4  A0D8               	btfss	status,0,c
  9128   0060C6  EF67  F030         	goto	u2401
  9129   0060CA  EF69  F030         	goto	u2400
  9130   0060CE                     u2401:
  9131   0060CE  EF72  F030         	goto	l3066
  9132   0060D2                     u2400:
  9133   0060D2  5005               	movf	___lldiv@divisor^0,w,c
  9134   0060D4  5E01               	subwf	___lldiv@dividend^0,f,c
  9135   0060D6  5006               	movf	(___lldiv@divisor+1)^0,w,c
  9136   0060D8  5A02               	subwfb	(___lldiv@dividend+1)^0,f,c
  9137   0060DA  5007               	movf	(___lldiv@divisor+2)^0,w,c
  9138   0060DC  5A03               	subwfb	(___lldiv@dividend+2)^0,f,c
  9139   0060DE  5008               	movf	(___lldiv@divisor+3)^0,w,c
  9140   0060E0  5A04               	subwfb	(___lldiv@dividend+3)^0,f,c
  9141   0060E2  8009               	bsf	___lldiv@quotient^0,0,c
  9142   0060E4                     l3066:
  9143   0060E4  90D8               	bcf	status,0,c
  9144   0060E6  3208               	rrcf	(___lldiv@divisor+3)^0,f,c
  9145   0060E8  3207               	rrcf	(___lldiv@divisor+2)^0,f,c
  9146   0060EA  3206               	rrcf	(___lldiv@divisor+1)^0,f,c
  9147   0060EC  3205               	rrcf	___lldiv@divisor^0,f,c
  9148   0060EE  2E0D               	decfsz	___lldiv@counter^0,f,c
  9149   0060F0  EF55  F030         	goto	l3058
  9150   0060F4                     l350:
  9151   0060F4  C009  F001         	movff	___lldiv@quotient,?___lldiv
  9152   0060F8  C00A  F002         	movff	___lldiv@quotient+1,?___lldiv+1
  9153   0060FC  C00B  F003         	movff	___lldiv@quotient+2,?___lldiv+2
  9154   006100  C00C  F004         	movff	___lldiv@quotient+3,?___lldiv+3
  9155   006104  0012               	return		;funcret
  9156   006106                     __end_of___lldiv:
  9157                           	callstack 0
  9158                           
  9159 ;; *************** function _CAR_HayDedo *****************
  9160 ;; Defined at:
  9161 ;;		line 26 in file "card.c"
  9162 ;; Parameters:    Size  Location     Type
  9163 ;;  ir              4    0[COMRAM] unsigned long 
  9164 ;; Auto vars:     Size  Location     Type
  9165 ;;		None
  9166 ;; Return value:  Size  Location     Type
  9167 ;;                  1    wreg      unsigned char 
  9168 ;; Registers used:
  9169 ;;		wreg, status,2, status,0
  9170 ;; Tracked objects:
  9171 ;;		On entry : 0/0
  9172 ;;		On exit  : 0/0
  9173 ;;		Unchanged: 0/0
  9174 ;; Data sizes:     COMRAM   BANK0   BANK1   BANK2   BANK3   BANK4   BANK5   BANK6   BANK7
  9175 ;;      Params:         4       0       0       0       0       0       0       0       0
  9176 ;;      Locals:         0       0       0       0       0       0       0       0       0
  9177 ;;      Temps:          0       0       0       0       0       0       0       0       0
  9178 ;;      Totals:         4       0       0       0       0       0       0       0       0
  9179 ;;Total ram usage:        4 bytes
  9180 ;; Hardware stack levels used: 1
  9181 ;; This function calls:
  9182 ;;		Nothing
  9183 ;; This function is called by:
  9184 ;;		_main
  9185 ;;		_CAR_ProcesarMuestra
  9186 ;; This function uses a non-reentrant model
  9187 ;;
  9188                           
  9189                           	psect	text47
  9190   0058A4                     __ptext47:
  9191                           	callstack 0
  9192   0058A4                     _CAR_HayDedo:
  9193                           	callstack 29
  9194   0058A4                     
  9195                           ;card.c: 27:     return (ir > 50000UL) ? 1 : 0;
  9196   0058A4  5004               	movf	(CAR_HayDedo@ir+3)^0,w,c
  9197   0058A6  1003               	iorwf	(CAR_HayDedo@ir+2)^0,w,c
  9198   0058A8  E109               	bnz	u2281
  9199   0058AA  0E51               	movlw	81
  9200   0058AC  5C01               	subwf	CAR_HayDedo@ir^0,w,c
  9201   0058AE  0EC3               	movlw	195
  9202   0058B0  5802               	subwfb	(CAR_HayDedo@ir+1)^0,w,c
  9203   0058B2  B0D8               	btfsc	status,0,c
  9204   0058B4  EF5E  F02C         	goto	u2281
  9205   0058B8  EF61  F02C         	goto	u2280
  9206   0058BC                     u2281:
  9207   0058BC  0E01               	movlw	1
  9208   0058BE  EF62  F02C         	goto	u2290
  9209   0058C2                     u2280:
  9210   0058C2  0E00               	movlw	0
  9211   0058C4                     u2290:
  9212   0058C4  0012               	return		;funcret
  9213   0058C6                     __end_of_CAR_HayDedo:
  9214                           	callstack 0
  9215                           
  9216                           	psect	rparam
  9217   000001                     ___rparam_used  equ	1
  9218   000000                     ___param_bank   equ	0
  9219   000000                     __Lparam        equ	__Lrparam
  9220   000000                     __Hparam        equ	__Hrparam
  9221                           
  9222                           	psect	config
  9223                           
  9224                           ;Config register CONFIG1L @ 0x300000
  9225                           ;	unspecified, using default values
  9226                           ;	PLL Prescaler Selection bits
  9227                           ;	PLLDIV = 0x0, unprogrammed default
  9228                           ;	System Clock Postscaler Selection bits
  9229                           ;	CPUDIV = 0x0, unprogrammed default
  9230                           ;	USB Clock Selection bit (used in Full-Speed USB mode only; UCFG:FSEN = 1)
  9231                           ;	USBDIV = 0x0, unprogrammed default
  9232   300000                     	org	3145728
  9233   300000  00                 	db	0
  9234                           
  9235                           ;Config register CONFIG1H @ 0x300001
  9236                           ;	Oscillator Selection bits
  9237                           ;	FOSC = INTOSCIO_EC, Internal oscillator, port function on RA6, EC used by USB (INTIO)
  9238                           ;	Fail-Safe Clock Monitor Enable bit
  9239                           ;	FCMEN = 0x0, unprogrammed default
  9240                           ;	Internal/External Oscillator Switchover bit
  9241                           ;	IESO = 0x0, unprogrammed default
  9242   300001                     	org	3145729
  9243   300001  08                 	db	8
  9244                           
  9245                           ;Config register CONFIG2L @ 0x300002
  9246                           ;	unspecified, using default values
  9247                           ;	Power-up Timer Enable bit
  9248                           ;	PWRT = 0x1, unprogrammed default
  9249                           ;	Brown-out Reset Enable bits
  9250                           ;	BOR = 0x3, unprogrammed default
  9251                           ;	Brown-out Reset Voltage bits
  9252                           ;	BORV = 0x3, unprogrammed default
  9253                           ;	USB Voltage Regulator Enable bit
  9254                           ;	VREGEN = 0x0, unprogrammed default
  9255   300002                     	org	3145730
  9256   300002  1F                 	db	31
  9257                           
  9258                           ;Config register CONFIG2H @ 0x300003
  9259                           ;	Watchdog Timer Enable bit
  9260                           ;	WDT = OFF, WDT disabled (control is placed on the SWDTEN bit)
  9261                           ;	Watchdog Timer Postscale Select bits
  9262                           ;	WDTPS = 0xF, unprogrammed default
  9263   300003                     	org	3145731
  9264   300003  1E                 	db	30
  9265                           
  9266                           ; Padding undefined space
  9267   300004                     	org	3145732
  9268   300004  FF                 	db	255
  9269                           
  9270                           ;Config register CONFIG3H @ 0x300005
  9271                           ;	CCP2 MUX bit
  9272                           ;	CCP2MX = 0x1, unprogrammed default
  9273                           ;	PORTB A/D Enable bit
  9274                           ;	PBADEN = OFF, PORTB<4:0> pins are configured as digital I/O on Reset
  9275                           ;	Low-Power Timer 1 Oscillator Enable bit
  9276                           ;	LPT1OSC = 0x0, unprogrammed default
  9277                           ;	MCLR Pin Enable bit
  9278                           ;	MCLRE = ON, MCLR pin enabled; RE3 input pin disabled
  9279   300005                     	org	3145733
  9280   300005  81                 	db	129
  9281                           
  9282                           ;Config register CONFIG4L @ 0x300006
  9283                           ;	Stack Full/Underflow Reset Enable bit
  9284                           ;	STVREN = 0x1, unprogrammed default
  9285                           ;	Single-Supply ICSP Enable bit
  9286                           ;	LVP = OFF, Single-Supply ICSP disabled
  9287                           ;	Dedicated In-Circuit Debug/Programming Port (ICPORT) Enable bit
  9288                           ;	ICPRT = 0x0, unprogrammed default
  9289                           ;	Extended Instruction Set Enable bit
  9290                           ;	XINST = 0x0, unprogrammed default
  9291                           ;	Background Debugger Enable bit
  9292                           ;	DEBUG = 0x1, unprogrammed default
  9293   300006                     	org	3145734
  9294   300006  81                 	db	129
  9295                           
  9296                           ; Padding undefined space
  9297   300007                     	org	3145735
  9298   300007  FF                 	db	255
  9299                           tosu	equ	0xFFF
  9300                           tosh	equ	0xFFE
  9301                           tosl	equ	0xFFD
  9302                           stkptr	equ	0xFFC
  9303                           pclatu	equ	0xFFB
  9304                           pclath	equ	0xFFA
  9305                           pcl	equ	0xFF9
  9306                           tblptru	equ	0xFF8
  9307                           tblptrh	equ	0xFF7
  9308                           tblptrl	equ	0xFF6
  9309                           tablat	equ	0xFF5
  9310                           prodh	equ	0xFF4
  9311                           prodl	equ	0xFF3
  9312                           indf0	equ	0xFEF
  9313                           postinc0	equ	0xFEE
  9314                           postdec0	equ	0xFED
  9315                           preinc0	equ	0xFEC
  9316                           plusw0	equ	0xFEB
  9317                           fsr0h	equ	0xFEA
  9318                           fsr0l	equ	0xFE9
  9319                           wreg	equ	0xFE8
  9320                           indf1	equ	0xFE7
  9321                           postinc1	equ	0xFE6
  9322                           postdec1	equ	0xFE5
  9323                           preinc1	equ	0xFE4
  9324                           plusw1	equ	0xFE3
  9325                           fsr1h	equ	0xFE2
  9326                           fsr1l	equ	0xFE1
  9327                           bsr	equ	0xFE0
  9328                           indf2	equ	0xFDF
  9329                           postinc2	equ	0xFDE
  9330                           postdec2	equ	0xFDD
  9331                           preinc2	equ	0xFDC
  9332                           plusw2	equ	0xFDB
  9333                           fsr2h	equ	0xFDA
  9334                           fsr2l	equ	0xFD9
  9335                           status	equ	0xFD8

Data Sizes:
    Strings     180
    Constant    200
    Data        0
    BSS         78
    Persistent  0
    Stack       0

Auto Spaces:
    Space          Size  Autos    Used
    COMRAM           95     83      93
    BANK0           160      0      68
    BANK1           256      0       0
    BANK2           256      0       0
    BANK3           256      0       0
    BANK4           256      0       0
    BANK5           256      0       0
    BANK6           256      0       0
    BANK7           256      0       0

Pointer List with Targets:

    MAX30102_ReadRegister@data	PTR unsigned char  size(1) Largest target is 1
		 -> MAX30102_Check@part_id(COMRAM[1]), MAX30102_Init@status(COMRAM[1]), MAX30102_SamplesAvailable@read_ptr(COMRAM[1]), MAX30102_SamplesAvailable@write_ptr(COMRAM[1]), 

    MAX30102_ReadSample@ir	PTR unsigned long  size(1) Largest target is 4
		 -> main@ir(COMRAM[4]), 

    MAX30102_ReadSample@red	PTR unsigned long  size(1) Largest target is 4
		 -> main@red(COMRAM[4]), 

    OLED_Error@msg	PTR unsigned char  size(2) Largest target is 9
		 -> STR_17(CODE[9]), STR_18(CODE[8]), 

    OLED_WriteString@str	PTR unsigned char  size(2) Largest target is 16
		 -> OLED_Vitals@buf(COMRAM[6]), STR_1(CODE[15]), STR_10(CODE[14]), STR_11(CODE[7]), 
		 -> STR_12(CODE[8]), STR_13(CODE[9]), STR_14(CODE[14]), STR_15(CODE[6]), 
		 -> STR_16(CODE[9]), STR_17(CODE[9]), STR_18(CODE[8]), STR_2(CODE[11]), 
		 -> STR_3(CODE[11]), STR_4(CODE[13]), STR_5(CODE[16]), STR_6(CODE[16]), 
		 -> STR_7(CODE[7]), STR_8(CODE[2]), STR_9(CODE[7]), 

    uint_to_str@buf	PTR unsigned char  size(1) Largest target is 6
		 -> OLED_Vitals@buf(COMRAM[6]), 


Critical Paths under _main in COMRAM

    _main->___fltol
    ___fltol->___flmul
    ___flsub->___fladd
    ___flmul->___flsub
    _OLED_Vitals->_uint_to_str
    _uint_to_str->___lwdiv
    _OLED_ClearLine->_OLED_Command
    _OLED_Splash->_OLED_WriteString
    _OLED_Paused->_OLED_WriteString
    _OLED_Init->_OLED_Command
    _OLED_Error->_OLED_WriteString
    _OLED_WriteString->_OLED_WriteChar
    _OLED_WriteChar->_I2C_Write
    _OLED_SetCursor->_OLED_Command
    _OLED_Clear->_OLED_Command
    _OLED_Command->_I2C_Write
    _MAX30102_ReadSample->_MAX30102_SamplesAvailable
    _MAX30102_SamplesAvailable->_MAX30102_ReadRegister
    _MAX30102_Init->_MAX30102_Check
    _MAX30102_WriteRegister->_I2C_Write
    _MAX30102_Check->_MAX30102_ReadRegister
    _MAX30102_ReadRegister->_I2C_Read
    _DS18B20_StartConversion->_DS18B20_WriteByte
    _DS18B20_ReadTemp->___fldiv
    ___fldiv->___xxtofl
    _DS18B20_WriteByte->_OW_WriteBit
    _DS18B20_ReadByte->_OW_ReadBit
    _CAR_ProcesarMuestra->___lldiv
    _CAR_ProcesarMuestra->_calcular_promedio

Critical Paths under _main in BANK0

    None.

Critical Paths under _main in BANK1

    None.

Critical Paths under _main in BANK2

    None.

Critical Paths under _main in BANK3

    None.

Critical Paths under _main in BANK4

    None.

Critical Paths under _main in BANK5

    None.

Critical Paths under _main in BANK6

    None.

Critical Paths under _main in BANK7

    None.

Call Graph Tables:

 ---------------------------------------------------------------------------------
 (Depth) Function   	        Calls       Base Space   Used Autos Params    Refs
 ---------------------------------------------------------------------------------
 (0) _main                                                24    24      0   14554
                                             59 COMRAM    24    24      0
                        _CAR_HayDedo
                _CAR_ProcesarMuestra
                   _DS18B20_ReadTemp
                      _DS18B20_Reset
            _DS18B20_StartConversion
             _DS18B20_WaitConversion
                           _I2C_Init
                      _MAX30102_Init
                _MAX30102_ReadSample
                         _OLED_Clear
                         _OLED_Error
                          _OLED_Init
                        _OLED_Paused
                        _OLED_Splash
                        _OLED_Vitals
                             ___flge
                            ___flmul
                            ___flsub
                            ___fltol
                           ___xxtofl
                              _setup
 ---------------------------------------------------------------------------------
 (1) _setup                                                2     2      0       0
                                              0 COMRAM     2     2      0
 ---------------------------------------------------------------------------------
 (1) ___fltol                                             10     6      4     233
                                             49 COMRAM    10     6      4
                            ___flmul (ARG)
                            ___flsub (ARG)
                           ___xxtofl (ARG)
 ---------------------------------------------------------------------------------
 (1) ___flsub                                              8     0      8    2035
                                             16 COMRAM     8     0      8
                            ___fladd
                           ___xxtofl (ARG)
 ---------------------------------------------------------------------------------
 (2) ___fladd                                             16     8      8    1986
                                              0 COMRAM    16     8      8
 ---------------------------------------------------------------------------------
 (1) ___flmul                                             25    17      8    1470
                                             24 COMRAM    25    17      8
                            ___flsub (ARG)
                           ___xxtofl (ARG)
 ---------------------------------------------------------------------------------
 (1) ___flge                                              12     4      8     194
                                              0 COMRAM    12     4      8
 ---------------------------------------------------------------------------------
 (1) _OLED_Vitals                                         11     7      4    1921
                                             18 COMRAM    11     7      4
                     _OLED_ClearLine
                     _OLED_SetCursor
                   _OLED_WriteString
                        _uint_to_str
 ---------------------------------------------------------------------------------
 (2) _uint_to_str                                         11     8      3     669
                                              7 COMRAM    11     8      3
                            ___lwdiv
                            ___lwmod
 ---------------------------------------------------------------------------------
 (3) ___lwmod                                              5     1      4     161
                                              0 COMRAM     5     1      4
 ---------------------------------------------------------------------------------
 (3) ___lwdiv                                              7     3      4     164
                                              0 COMRAM     7     3      4
 ---------------------------------------------------------------------------------
 (2) _OLED_ClearLine                                       2     2      0     258
                                              4 COMRAM     2     2      0
                          _I2C_Start
                           _I2C_Stop
                          _I2C_Write
                       _OLED_Command
 ---------------------------------------------------------------------------------
 (1) _OLED_Splash                                          0     0      0    1028
                         _OLED_Clear
                     _OLED_SetCursor
                   _OLED_WriteString
 ---------------------------------------------------------------------------------
 (1) _OLED_Paused                                          0     0      0    1028
                         _OLED_Clear
                     _OLED_SetCursor
                   _OLED_WriteString
 ---------------------------------------------------------------------------------
 (1) _OLED_Init                                            2     2      0     106
                                              4 COMRAM     2     2      0
                       _OLED_Command
 ---------------------------------------------------------------------------------
 (1) _OLED_Error                                           2     0      2    1052
                                             13 COMRAM     2     0      2
                         _OLED_Clear
                     _OLED_SetCursor
                   _OLED_WriteString
 ---------------------------------------------------------------------------------
 (2) _OLED_WriteString                                     2     0      2     529
                                             11 COMRAM     2     0      2
                     _OLED_WriteChar
 ---------------------------------------------------------------------------------
 (3) _OLED_WriteChar                                       8     8      0     464
                                              3 COMRAM     8     8      0
                          _I2C_Start
                           _I2C_Stop
                          _I2C_Write
 ---------------------------------------------------------------------------------
 (2) _OLED_SetCursor                                       2     1      1     202
                                              4 COMRAM     2     1      1
                       _OLED_Command
 ---------------------------------------------------------------------------------
 (2) _OLED_Clear                                           2     2      0     297
                                              4 COMRAM     2     2      0
                          _I2C_Start
                           _I2C_Stop
                          _I2C_Write
                       _OLED_Command
 ---------------------------------------------------------------------------------
 (3) _OLED_Command                                         1     1      0     106
                                              3 COMRAM     1     1      0
                          _I2C_Start
                           _I2C_Stop
                          _I2C_Write
 ---------------------------------------------------------------------------------
 (1) _MAX30102_ReadSample                                 25    23      2     806
                                              8 COMRAM    25    23      2
                           _I2C_Read
                  _I2C_RepeatedStart
                          _I2C_Start
                           _I2C_Stop
                          _I2C_Write
          _MAX30102_SamplesAvailable
 ---------------------------------------------------------------------------------
 (2) _MAX30102_SamplesAvailable                            2     2      0     325
                                              6 COMRAM     2     2      0
              _MAX30102_ReadRegister
 ---------------------------------------------------------------------------------
 (1) _MAX30102_Init                                        2     2      0     695
                                              7 COMRAM     2     2      0
                     _MAX30102_Check
              _MAX30102_ReadRegister
             _MAX30102_WriteRegister
 ---------------------------------------------------------------------------------
 (2) _MAX30102_WriteRegister                               2     1      1     137
                                              3 COMRAM     2     1      1
                          _I2C_Start
                           _I2C_Stop
                          _I2C_Write
 ---------------------------------------------------------------------------------
 (2) _MAX30102_Check                                       1     1      0     279
                                              6 COMRAM     1     1      0
              _MAX30102_ReadRegister
 ---------------------------------------------------------------------------------
 (3) _MAX30102_ReadRegister                                2     1      1     233
                                              4 COMRAM     2     1      1
                           _I2C_Read
                  _I2C_RepeatedStart
                          _I2C_Start
                           _I2C_Stop
                          _I2C_Write
 ---------------------------------------------------------------------------------
 (4) _I2C_Write                                            3     3      0      77
                                              0 COMRAM     3     3      0
 ---------------------------------------------------------------------------------
 (4) _I2C_RepeatedStart                                    0     0      0       0
                          _I2C_Start
                           _I2C_Stop
 ---------------------------------------------------------------------------------
 (5) _I2C_Stop                                             0     0      0       0
 ---------------------------------------------------------------------------------
 (5) _I2C_Start                                            0     0      0       0
 ---------------------------------------------------------------------------------
 (4) _I2C_Read                                             4     4      0     100
                                              0 COMRAM     4     4      0
 ---------------------------------------------------------------------------------
 (1) _I2C_Init                                             0     0      0       0
 ---------------------------------------------------------------------------------
 (1) _DS18B20_WaitConversion                               2     2      0       0
                                              0 COMRAM     2     2      0
 ---------------------------------------------------------------------------------
 (1) _DS18B20_StartConversion                              0     0      0     129
                      _DS18B20_Reset
                  _DS18B20_WriteByte
 ---------------------------------------------------------------------------------
 (1) _DS18B20_ReadTemp                                    10     6      4    1886
                                             39 COMRAM    10     6      4
                   _DS18B20_ReadByte
                      _DS18B20_Reset
                  _DS18B20_WriteByte
                            ___fldiv
                           ___xxtofl
 ---------------------------------------------------------------------------------
 (2) ___xxtofl                                            14    10      4     339
                                              0 COMRAM    14    10      4
 ---------------------------------------------------------------------------------
 (2) ___fldiv                                             25    17      8    1123
                                             14 COMRAM    25    17      8
                           ___xxtofl (ARG)
 ---------------------------------------------------------------------------------
 (2) _DS18B20_WriteByte                                    2     2      0     106
                                              1 COMRAM     2     2      0
                        _OW_WriteBit
 ---------------------------------------------------------------------------------
 (3) _OW_WriteBit                                          1     1      0      29
                                              0 COMRAM     1     1      0
                         _OW_Release
 ---------------------------------------------------------------------------------
 (2) _DS18B20_Reset                                        1     1      0      23
                                              0 COMRAM     1     1      0
                         _OW_Release
 ---------------------------------------------------------------------------------
 (2) _DS18B20_ReadByte                                     2     2      0      94
                                              1 COMRAM     2     2      0
                         _OW_ReadBit
 ---------------------------------------------------------------------------------
 (3) _OW_ReadBit                                           1     1      0      23
                                              0 COMRAM     1     1      0
                         _OW_Release
 ---------------------------------------------------------------------------------
 (4) _OW_Release                                           0     0      0       0
 ---------------------------------------------------------------------------------
 (1) _CAR_ProcesarMuestra                                 21    13      8     597
                                             13 COMRAM    21    13      8
                        _CAR_HayDedo
                            ___lldiv
                  _calcular_promedio
 ---------------------------------------------------------------------------------
 (2) _calcular_promedio                                   13     9      4      92
                                              0 COMRAM    13     9      4
 ---------------------------------------------------------------------------------
 (2) ___lldiv                                             13     5      8     164
                                              0 COMRAM    13     5      8
 ---------------------------------------------------------------------------------
 (2) _CAR_HayDedo                                          4     0      4      24
                                              0 COMRAM     4     0      4
 ---------------------------------------------------------------------------------
 Estimated maximum stack depth 5
 ---------------------------------------------------------------------------------

 Call Graph Graphs:

 _main (ROOT)
   _CAR_HayDedo
   _CAR_ProcesarMuestra
     _CAR_HayDedo
     ___lldiv
     _calcular_promedio
   _DS18B20_ReadTemp
     _DS18B20_ReadByte
       _OW_ReadBit
         _OW_Release
     _DS18B20_Reset
       _OW_Release
     _DS18B20_WriteByte
       _OW_WriteBit
         _OW_Release
     ___fldiv
       ___xxtofl (ARG)
     ___xxtofl
   _DS18B20_Reset
   _DS18B20_StartConversion
     _DS18B20_Reset
     _DS18B20_WriteByte
   _DS18B20_WaitConversion
   _I2C_Init
   _MAX30102_Init
     _MAX30102_Check
       _MAX30102_ReadRegister
         _I2C_Read
         _I2C_RepeatedStart
           _I2C_Start
           _I2C_Stop
         _I2C_Start
         _I2C_Stop
         _I2C_Write
     _MAX30102_ReadRegister
     _MAX30102_WriteRegister
       _I2C_Start
       _I2C_Stop
       _I2C_Write
   _MAX30102_ReadSample
     _I2C_Read
     _I2C_RepeatedStart
     _I2C_Start
     _I2C_Stop
     _I2C_Write
     _MAX30102_SamplesAvailable
       _MAX30102_ReadRegister
   _OLED_Clear
     _I2C_Start
     _I2C_Stop
     _I2C_Write
     _OLED_Command
       _I2C_Start
       _I2C_Stop
       _I2C_Write
   _OLED_Error
     _OLED_Clear
     _OLED_SetCursor
       _OLED_Command
     _OLED_WriteString
       _OLED_WriteChar
         _I2C_Start
         _I2C_Stop
         _I2C_Write
   _OLED_Init
     _OLED_Command
   _OLED_Paused
     _OLED_Clear
     _OLED_SetCursor
     _OLED_WriteString
   _OLED_Splash
     _OLED_Clear
     _OLED_SetCursor
     _OLED_WriteString
   _OLED_Vitals
     _OLED_ClearLine
       _I2C_Start
       _I2C_Stop
       _I2C_Write
       _OLED_Command
     _OLED_SetCursor
     _OLED_WriteString
     _uint_to_str
       ___lwdiv
       ___lwmod
   ___flge
   ___flmul
     ___flsub (ARG)
       ___fladd
       ___xxtofl (ARG)
     ___xxtofl (ARG)
   ___flsub
   ___fltol
     ___flmul (ARG)
     ___flsub (ARG)
     ___xxtofl (ARG)
   ___xxtofl
   _setup

Address spaces:
Name               Size   Autos  Total    Usage
BIGRAM            2047      0       0      0.0%
BITBANK7           256      0       0      0.0%
BANK7              256      0       0      0.0%
BITBANK6           256      0       0      0.0%
BANK6              256      0       0      0.0%
BITBANK5           256      0       0      0.0%
BANK5              256      0       0      0.0%
BITBANK4           256      0       0      0.0%
BANK4              256      0       0      0.0%
BITBANK3           256      0       0      0.0%
BANK3              256      0       0      0.0%
BITBANK2           256      0       0      0.0%
BANK2              256      0       0      0.0%
BITBANK1           256      0       0      0.0%
BANK1              256      0       0      0.0%
BITBANK0           160      0       0      0.0%
BANK0              160      0      68     42.5%
BITBIGSFRh         126      0       0      0.0%
BITCOMRAM           95      0       0      0.0%
COMRAM              95     83      93     97.9%
BITBIGSFRl          33      0       0      0.0%
STACK                0      0       0      0.0%
DATA                 0      0     161      0.0%


Microchip Technology PIC18 Macro Assembler V3.10 build 20250813170317 
Symbol Table                                                                                   Sun May 31 22:41:38 2026

               OLED_ClearLine@linea 0005                        ___fldiv@aexp 0027  
                      ___fldiv@bexp 0026                        ___fldiv@sign 001F  
                                l13 5838                                  l22 584A  
                                l31 5F82                                  l16 59C8  
                                l33 5FC6                                  l26 5F16  
                                l19 58E6                                  l27 5F36  
                                l62 6344                                  l47 61BA  
                                l56 58A2                                  l74 5B2E  
                                l69 5CB4                                  l77 5908  
                                l93 6790                                  l99 5D12  
                       _uint_to_str 6106                                 l102 5D70  
                               l112 5C04                                 l115 5BBC  
                               l300 594E                                 l212 5884  
                               l109 6656                                 l310 5974  
                               l230 6A2C                                 l215 59FA  
                               l223 6060                                 l305 5A1A  
                               l313 627C                                 l306 5A2E  
                               l226 5866                                 l170 5AAC  
                               l251 5EBE                                 l219 5A66  
                  _CAR_ultimo_delta 00A0                                 l260 6DDC  
                               l317 68D4                                 l173 5AE8  
                               l254 58C4                                 l350 60F4  
                               l182 776A                                 l183 776A  
                               l192 7966                                 l290 5A92  
                               l283 582C                                 l268 6DCA  
                               l292 5AA6                                 l357 6104  
                               l286 5C26                                 l295 599C  
                               l287 5C5C                                 l703 6448  
                               l730 654E                                 l931 5E46  
                               l924 5E3E                                 l941 5DD4  
                               l934 5DCC                                 l961 7BB0  
                               l698 6402                                 l970 7E7C  
                               l962 7B9E                                 l963 7B64  
                               l975 7D58                                 l994 7E40  
                               l978 7CCA                                 l987 7D98  
                               l988 7D86                    ??_OLED_SetCursor 0006  
                               wreg 0FE8                        ___flmul@aexp 002A  
                      ___flmul@bexp 002B            __end_of_OLED_WriteString 5D14  
                      ___flmul@sign 0025                        ___flmul@temp 0030  
                      ___flmul@prod 002C                          _OW_ReadBit 5976  
                      ___fltol@exp1 003B                          _OW_Release 5828  
                              l1003 5B74                                l1020 6F94  
                              l1102 6B78                                l1015 716A  
                              l1017 6FD0                                l1026 7016  
                              l1027 7034                                l1051 7590  
                              l1028 708C                                l1029 707A  
                              l1054 7426                                l1055 7444  
                              l1047 7230                                l3000 5E58  
                              l1064 7552                                l1056 749C  
                              l1057 748A                                l3010 5E78  
                              l1091 6BE0                                l3012 5E88  
                              l3100 7A5C                                l3006 5E5A  
                              l3030 59FC                                l3022 5930  
                              l3102 7A6C                                l3110 7A94  
                              l1095 6B1C                                l3008 5E76  
                              l3040 5A18                                l3024 5938  
                              l3016 592E                                l1088 6A84  
                              l3200 7CAA                                l3120 7ACC  
                              l3112 7AA4                                l3104 7A7C  
                              l4000 759E                                l3050 6072  
                              l3042 5A1C                                l3026 593C  
                              l3210 7D04                                l3202 7CBA  
                              l3130 7AE0                                l3122 7AD0  
                              l3114 7AB6                                l3106 7A8C  
                              l4010 75C6                                l4002 75A0  
                              l3060 60B4                                l3052 6088  
                              l3044 5A2C                                l3036 5A00  
                              l3028 593E                                l3300 6E96  
                              l3220 7D34                                l3212 7D0E  
                              l3204 7CE0                                l3140 7AF4  
                              l3132 7AE4                                l3124 7AD4  
                              l3116 7AC4                                l3108 7A8E  
                              l4020 7608                                l4012 75C8  
                              l4004 75A8                                l3062 60D2  
                              l3054 6090                                l3038 5A04  
                              l3310 6ED8                                l3302 6EA6  
                              l3230 7D7E                                l3222 7D38  
                              l3214 7D1C                                l3206 7CF0  
                              l3150 7B30                                l3142 7AF8  
                              l3134 7AE8                                l3126 7AD8  
                              l3118 7AC8                                l3070 79C8  
                              l4030 769C                                l4022 760C  
                              l4014 75DC                                l4006 75AC  
                              l3064 60E2                                l3056 609C  
                              l3048 6062                                l3304 6EBC  
                              l3400 6A30                                l3240 7DFC  
                              l3224 7D48                                l3216 7D1E  
                              l3160 7B82                                l3152 7B4C  
                              l3144 7AFC                                l3136 7AEC  
                              l3128 7ADC                                l3080 7A04  
                              l3072 79D4                                l4040 775E  
                              l4032 770C                                l4024 7620  
                              l4016 75E8                                l4008 75B0  
                              l3066 60E4                                l3058 60AA  
                              l3330 6F5A                                l3322 6F10  
                              l3306 6ECC                                l3314 6EEC  
                              l3402 6A40                                l2610 59B4  
                              l3250 7E4E                                l3234 7DA8  
                              l3242 7DFE                                l3218 7D2C  
                              l3226 7D4A                                l3170 7BCE  
                              l3162 7B90                                l3154 7B5C  
                              l3146 7B00                                l3138 7AF0  
                              l3090 7A32                                l3082 7A14  
                              l3074 79E2                                l4042 776E  
                              l4026 7652                                l4034 7744  
                              l4018 7604                                l3068 60EE  
                              l2700 5828                                l3340 6F9E  
                              l3332 6F60                                l3324 6F2A  
                              l3316 6EFC                                l3308 6ED4  
                              l3420 6B06                                l3412 6ABE  
                              l3404 6A4E                                l2612 59BE  
                              l2604 599E                                l2620 58DC  
                              l3500 632C                                l3260 7E6C  
                              l3252 7E54                                l3244 7E0E  
                              l3236 7DB4                                l3228 7D68  
                              l3180 7C0E                                l3164 7B92  
                              l3156 7B72                                l3148 7B04  
                              l3092 7A44                                l3084 7A16  
                              l3076 79E4                                l4060 77DE  
                              l4052 7776                                l4044 7772  
                              l4028 7684                                l4036 7748  
                              l3350 6FF6                                l3342 6FBC  
                              l3334 6F70                                l3326 6F3A  
                              l3318 6EFC                                l3270 6DFA  
                              l3430 6B86                                l3422 6B12  
                              l3414 6AC6                                l3406 6A94  
                              l2606 59A2                                l2614 58C6  
                              l2622 583A                                l2710 589E  
                              l2702 5888                                l3510 5D4E  
                              l3502 5D14                                l3254 7E56  
                              l3246 7E1E                                l3238 7DC2  
                              l3190 7C38                                l3182 7C1A  
                              l3174 7BE2                                l3166 7B9C  
                              l3158 7B7E                                l3094 7A46  
                              l3078 79F4                                l3086 7A1C  
                              l4070 7804                                l4062 77E0  
                              l4054 7792                                l4046 7774  
                              l4038 774A                                l2800 598A  
                              l3360 7044                                l3352 6FFC  
                              l3344 6FBE                                l3336 6F84  
                              l3328 6F4A                                l3272 6E0A  
                              l3280 6E32                                l3264 6DDE  
                              l3440 6BCE                                l3432 6B88  
                              l3424 6B4E                                l3416 6AD2  
                              l3408 6AAA                                l3600 6792  
                              l2608 59AA                                l2616 58CA  
                              l2624 583E                                l2640 5EF2  
                              l2704 588C                                l2720 668C  
                              l2712 665A                                l3512 5D64  
                              l3504 5D22                                l3520 6582  
                              l3256 7E5C                                l3248 7E3E  
                              l3184 7C1E                                l3176 7BF2  
                              l3168 7BBE                                l3192 7C3E  
                              l3096 7A4C                                l3088 7A2C  
                              l4072 784A                                l4080 793C  
                              l4064 77F0                                l4056 77B8  
                              l2802 5992                                l3370 70B6  
                              l3362 7072                                l3354 7006  
                              l3346 6FCE                                l3338 6F92  
                              l3290 6E5E                                l3282 6E42  
                              l3274 6E1A                                l3266 6DEA  
                              l3442 6BD0                                l3434 6B8C  
                              l3426 6B5A                                l3418 6B04  
                              l3610 67E2                                l3602 67A6  
                              l2618 58D2                                l2626 5846  
                              l2650 5F20                                l2642 5EFA  
                              l2634 5EC4                                l2706 5892  
                              l2730 66DC                                l2722 669C  
                              l2714 6660                                l3450 6296  
                              l3506 5D2E                                l2810 5DDC  
                              l3530 65C2                                l3522 658E  
                              l3514 6552                                l3258 7E6A  
                              l3194 7C64                                l3186 7C2C  
                              l3178 7C00                                l3098 7A5A  
                              l4090 796C                                l4074 787C  
                              l4082 7940                                l4066 77F2  
                              l4058 77CE                                l2804 599A  
                              l3380 712E                                l3372 70E0  
                              l3356 7014                                l3348 6FE0  
                              l3292 6E6E                                l3284 6E48  
                              l3276 6E2A                                l3268 6DF8  
                              l3436 6BB0                                l3428 6B68  
                              l3620 6826                                l3612 67F2  
                              l2652 5F2A                                l2644 5EFC  
                              l2636 5EE8                                l2628 5EC2  
                              l3700 693E                                l2708 5898  
                              l2900 5CA2                                l2740 6726  
                              l2732 66EE                                l2724 66AC  
                              l2716 6672                                l3460 62B4  
                              l3452 629C                                l3508 5D44  
                              l2820 5E12                                l2812 5DEE  
                              l3540 6610                                l3532 65CE  
                              l3524 6594                                l3516 6562  
                              l3196 7C98                                l3188 7C2E  
                              l4092 798E                                l4084 7944  
                              l4076 7894                                l4068 7802  
                              l3710 6C06                                l3390 715E  
                              l3382 7144                                l3366 709C  
                              l3374 70E4                                l3358 7026  
                              l3294 6E7E                                l3286 6E4E  
                              l3278 6E2C                                l3438 6BC0  
                              l3606 67BA                                l3446 582E  
                              l2670 5F56                                l2662 5F40  
                              l2654 5F2C                                l2646 5F06  
                              l2638 5EF0                                l3702 69B4  
                              l2902 5CA4                                l2734 66F8  
                              l2726 66BC                                l2742 672C  
                              l2718 667C                                l3470 62D2  
                              l3462 62BA                                l3454 62A2  
                              l2910 5B0A                                l2822 5E28  
                              l2814 5DF6                                l2830 5D72  
                              l3550 664A                                l3542 661A  
                              l3534 65E6                                l3526 65AA  
                              l3518 6572                                l3198 7C9A  
                              l4094 7992                                l4086 7954  
                              l4078 7904                                l3712 6C0A  
                              l3392 7160                                l3384 7146  
                              l3376 70FE                                l3368 70A8  
                              l3296 6E8E                                l3288 6E5C  
                              l3632 6872                                l3624 683A  
                              l3616 6806                                l3608 67D2  
                              l2680 5F72                                l2672 5F64  
                              l2664 5F44                                l2656 5F3A  
                              l2648 5F18                                l3640 5FDC  
                              l3704 6A2A                                l2760 6786  
                              l2744 6730                                l2736 670A  
                              l2728 66CC                                l3480 62F0  
                              l3472 62D8                                l3464 62C0  
                              l3456 62A8                                l3448 627E  
                              l3560 5BF8                                l3552 5BBE  
                              l2920 5B18                                l2912 5B10  
                              l2904 5AEC                                l2824 5E30  
                              l2816 5DFE                                l2808 5DD6  
                              l2840 5DB8                                l2832 5D84  
                              l3544 6620                                l3536 65EC  
                              l3528 65B8                                l3800 71CE  
                              l4096 79A2                                l4088 7964  
                              l3730 6C5E                                l3714 6C10  
                              l3386 714A                                l3378 7114  
                              l3298 6E90                                l3634 6888  
                              l3626 684C                                l3618 6816  
                              l2690 5FB8                                l2682 5F84  
                              l2674 5F66                                l2666 5F4C  
                              l2770 59E0                                l3650 6004  
                              l2930 58F6                                l2762 678C  
                              l2754 673E                                l2746 6736  
                              l2738 6714                                l3570 5BB0  
                              l3562 5B76                                l3490 630E  
                              l3482 62F6                                l3474 62DE  
                              l3466 62C6                                l3458 62AE  
                              l3554 5BCC                                l2922 5B1A  
                              l2906 5B00                                l2826 5E32  
                              l2818 5E0C                                l2842 5DC0  
                              l2834 5D8C                                l2850 611C  
                              l3546 662A                                l3538 6602  
                              l3810 71FA                                l3802 71D4  
                              l4098 79AA                                l3740 6C8A  
                              l3724 6C38                                l3716 6C12  
                              l3708 6BE2                                l2780 5A6A  
                              l3388 7158                                l3628 685E  
                              l2692 5FBA                                l2684 5FA6  
                              l2676 5F68                                l2668 5F4E  
                              l2772 59E6                                l2764 59CC  
                              l3660 6036                                l3652 600E  
                              l3644 5FE2                                l2932 58FE  
                              l2756 6774                                l2748 673C  
                              l2940 5CE2                                l3564 5B84  
                              l3492 6314                                l3484 62FC  
                              l3476 62E4                                l3468 62CC  
                              l3556 5BD8                                l2924 5B2A  
                              l2908 5B04                                l2828 5E38  
                              l2844 5DC6                                l2836 5D94  
                              l2860 6158                                l2852 6126  
                              l3548 663A                                l3900 7566  
                              l3820 7250                                l3812 720A  
                              l3804 71DA                                l3580 5AD8  
                              l3572 5AA8                                l3750 6CF6  
                              l3742 6C9E                                l3726 6C4C  
                              l3718 6C36                                l3734 6C64  
                              l2942 5C06                                l2790 5A9E  
                              l2782 5A7A                                l3590 5950  
                              l2694 5FBC                                l2686 5FAE  
                              l2678 5F70                                l2774 59F4  
                              l2766 59D0                                l3662 6040  
                              l3654 6018                                l3646 5FEC  
                              l3638 5FC8                                l2926 58EA  
                              l2758 6776                                l2934 5CB6  
                              l3566 5B90                                l3494 631A  
                              l3486 6302                                l3478 62EA  
                              l3558 5BEE                                l2918 5B12  
                              l2838 5DA2                                l2870 61B0  
                              l2862 6172                                l2846 6106  
                              l3902 7574                                l3830 7290  
                              l3814 721A                                l3806 71E8  
                              l3582 5ADC                                l3574 5ABA  
                              l3760 6D46                                l3752 6CFA  
                              l3744 6CB6                                l3736 6C80  
                              l3728 6C4E                                l2960 5C52  
                              l2952 5C2A                                l2944 5C0A  
                              l2792 5AA2                                l2784 5A82  
                              l2696 5FC4                                l2688 5FB0  
                              l2776 59F8                                l2768 59D6  
                              l3664 604A                                l3656 6022  
                              l3648 5FFA                                l3680 68F4  
                              l3672 68D6                                l2880 5C74  
                              l2872 5C5E                                l2928 58EE  
                              l2936 5CBA                                l3568 5BA6  
                              l3496 6320                                l3488 6308  
                              l2864 6188                                l2856 6136  
                              l2848 610A                                l3920 6374  
                              l3904 7576                                l3840 72DA  
                              l3832 729C                                l3824 7264  
                              l3816 7220                                l3808 71EA  
                              l3912 5B30                                l3584 5ADE  
                              l3576 5AD2                                l3770 6D8C  
                              l3762 6D5C                                l3754 6CFC  
                              l3746 6CC6                                l3738 6C86  
                              l2794 5976                                l2962 5C5A  
                              l2954 5C32                                l2946 5C12  
                              l2786 5A86                                l3594 5968  
                              l2970 586A                                l3666 6054  
                              l3658 602C                                l3690 691A  
                              l3682 68FA                                l3674 68EA  
                              l2882 5C78                                l2938 5CDE  
                              l3498 6326                                l2866 619E  
                              l2858 6156                                l3930 63E2  
                              l3922 6384                                l3906 757C  
                              l3850 732C                                l3842 72E6  
                              l3834 72B4                                l3826 7270  
                              l3818 7240                                l3914 5B40  
                              l3586 5AE0                                l3578 5AD6  
                              l3780 6DDA                                l3772 6D96  
                              l3764 6D72                                l3756 6D0C  
                              l3748 6CE6                                l2796 597E  
                              l2956 5C36                                l2948 5C20  
                              l2788 5A96                                l2972 586E  
                              l3668 605E                                l3692 6922  
                              l3684 6904                                l2892 5C86  
                              l2884 5C7E                                l2868 61A0  
                              l3932 63F0                                l3924 63B2  
                              l3908 7580                                l3860 73AA  
                              l3852 733C                                l3844 72F6  
                              l3836 72C0                                l3828 727A  
                              l3940 644A                                l3588 5AE4  
                              l2966 58A4                                l3774 6D9C  
                              l3758 6D1E                                l3766 6D76  
                              l2798 5982                                l2958 5C3E  
                              l3598 61BC                                l2982 5A30  
                              l2974 5874                                l3694 692A  
                              l3686 690A                                l3678 68F0  
                              l2894 5C8C                                l2886 5C84  
                              l2878 5C60                                l3934 6440  
                              l3926 63C2                                l3918 6346  
                              l3870 7424                                l3862 73E0  
                              l3854 7358                                l3846 7302  
                              l3838 72CC                                l3790 7188  
                              l3950 64A0                                l3942 6460  
                              l3768 6D7C                                l3776 6DA4  
                              l2984 5A4A                                l2976 587A  
                              l2992 584C                                l3696 6932  
                              l3688 6912                                l2896 5C8E  
                              l3936 6446                                l3928 63D0  
                              l3880 74AC                                l3872 7436  
                              l3864 73EE                                l3856 7364  
                              l3848 7312                                l3792 7198  
                              l3784 716C                                l3952 64B0  
                              l3778 6DC8                                l2978 5880  
                              l2994 5860                                l3698 693A  
                              l2898 5C9E                                l3890 750E  
                              l3882 74B8                                l3874 7454  
                              l3866 740C                                l3858 7380  
                              l3794 71A8                                l3786 7178  
                              l3962 64DA                                l3954 64B4  
                              l3946 6474                                l2988 5A50  
                              l3892 7522                                l3884 74C6  
                              l3876 7482                                l3868 7416  
                              l3796 71B8                                l3788 7186  
                              l3980 653E                                l3972 6502  
                              l3964 64E4                                l3956 64C2  
                              l3948 649E                                l2998 5E48  
                              l3894 753C                                l3886 74F0  
                              l3798 71BE                                l3974 650E  
                              l3966 64EE                                l3896 754C  
                              l3888 74F4                                l3976 651E  
                              l3898 7556                                l3978 652E  
                              l3994 7592                                l3996 759C  
                              l3998 759C                                STR_1 7F67  
                              STR_2 7F9F                                STR_3 7FAA  
                              STR_4 7F92                                STR_5 7F57  
                              STR_6 7F47                                STR_7 7FE7  
                              STR_8 7F9D                                STR_9 7FE0  
                              u2000 6672                                u2001 666E  
                              u2010 668C                                u2011 6688  
                              u2020 669C                                u2100 5DEE  
                              u2021 6698                                u2101 5DEA  
                              u2030 66BC                                u2110 5E0C  
                              u2031 66B8                                u2111 5E08  
                       ?_OLED_Clear 0001                                u3000 70FE  
                              u2200 5CB4                                u2040 66CC  
                              u2120 5E28                                u3001 70FA  
                              u2201 5CB0                                u2041 66C8  
                              u2121 5E24                                u3010 712E  
                              u2050 66EE                                u2210 5B2A  
                              u2130 5D84                                u3011 712A  
                              u2051 66EA                                u2211 5B26  
                              u2131 5D80                                u3020 7158  
                              u3100 6B86                                u2300 5A4A  
                              u2060 670A                                u2220 5CDA  
                              u2140 5DA2                                u3021 7154  
                              u3101 6B82                                u2301 5A46  
                              u2061 6706                                u2141 5D9E  
                              u3110 6BC0                                u3030 6A40  
                              u2310 5A64                                u2070 6726  
                              u2230 5D02                                u2150 5DB8  
                              _LATB 0F8A                                u3111 6BBC  
                              u3031 6A3C                                u2311 5A5E  
                              u2071 6722                                u2151 5DB4  
                              u2400 60D2                                u3120 6BCE  
                              u3040 6A4E                                u3200 6816  
                              u2320 5A66                                u2080 6786  
                              u2240 5D12                                u2160 611C  
                              _LATD 0F8C                                u2401 60CE  
                              u3121 6BCA                                u3041 6A4A  
                              u3201 6812                                u2081 6782  
                              u2241 5D0E                                u2161 6118  
                              u2330 5E88                                u2250 5C20  
                              u2090 5A7A                                u3050 6AAA  
                              u3210 6826                                u2170 6184  
                              u3130 6572                                u2410 79E2  
                              u2331 5E84                                u2251 5C1C  
                              u2091 5A76                                u3051 6AA6  
                              u3211 6822                                u2227 5CD0  
                              u2171 6180                                u3131 656E  
                              u2411 79DE                                u2340 5EA8  
                              u3300 6D0C                                u2260 5C4E  
                              u3060 6B00                                u3220 684C  
                              u2180 61B0                                u3140 663A  
                              u2500 7B30                                u2420 79F4  
                              u3301 6D08                                u2261 5C48  
                              u3061 6AFC                                u3221 6848  
                              u2237 5CF8                                u2181 61AC  
                              u3141 6636                                u2501 7B2C  
                              u2421 79F0                                u3310 6D1E  
                              u2270 5C50                                u2350 594E  
                              u3070 6B4A                                u3230 685E  
                              u2190 5C9E                                u2510 7B48  
                              u2430 7A04                                u3150 5ABA  
                              u3311 6D1A                                u2351 594A  
                              u3071 6B46                                u3231 685A  
                              u4007 58D6                                u2191 5C9A  
                              u2511 7B42                                u2431 7A00  
                              u3151 5AB6                                u2280 58C2  
                              u3320 6D5C                                u2360 5A18  
                              u3080 6B68                                u3160 5964  
                              u3240 5FDC                                u3400 71FA  
                              u2600 7C2C                                u2520 7B4A  
                              u2440 7A44                                u2281 58BC  
                              u2345 5E9E                                u3321 6D58  
                              u2361 5A14                                u3081 6B64  
                              u3161 5960                                u4017 58E0  
                              u3241 5FD8                                u3401 71F6  
                              u2601 7C28                                u2441 7A40  
                              u2290 58C4                                u3330 6D72  
                              u2370 5A2C                                u3090 6B78  
                              u3170 67A6                                u3250 68EA  
                              u3410 720A                                u2610 7C64  
                              u2530 7B72                                u2450 7A5A  
                              u3331 6D6E                                u2371 5A28  
                              u3091 6B74                                u3171 67A2  
                              u4107 5FB2                                u4027 59A4  
                              u3251 68E6                                u3411 7206  
                              u2611 7C60                                u2531 7B6E  
                              u2451 7A56                                u2380 6088  
                              u3340 6D8C                                u3260 6C06  
                              u3180 67E2                                u3500 74AC  
                              u3420 7240                                u2700 7D7E  
                              u2620 7CAA                                u2540 7B90  
                              u2460 7A6C                                u2381 6084  
                              u3341 6D88                                u3261 6C02  
                              u3181 67DE                                u4117 5FBE  
                              u4037 59AE                                u3501 74A8  
                              u3421 723C                                u2701 7D7A  
                              u2621 7CA6                                u2541 7B8C  
                              u2461 7A68                                u2390 60AA  
                              u3350 6DC8                                u3270 6C5E  
                              u3190 67F2                                u3510 74C6  
                              u3430 7250                                u2710 7D94  
                              u2630 7CE0                                u2550 7BB0  
                              u2470 7A7C                                u2391 60A6  
                              u3351 6DC4                                u3271 6C5A  
                              u4207 5A88                                u3191 67EE  
                              u4127 61C6                                u4047 59B8  
                              u3511 74C2                                u3431 724C  
                              u2711 7D90                                u2631 7CDC  
                              u2551 7BAC                                u2471 7A78  
                              u3280 6CE6                                u2800 6DF8  
                              u3520 750E                                u3440 73CA  
                              u3360 7186                                u2720 7DA8  
                              u2640 7CF0                                u2560 7BBE  
                              u2480 7AB6                                u3600 6460  
                              u3281 6CE2                                u4217 5A98  
                              u2801 6DF4                                u4137 61DE  
                              u4057 59C2                                u3521 750A  
                              u3361 7182                                u2721 7DA4  
                              u2641 7CEC                                u2561 7BBA  
                              u2481 7AB2                                u3601 645C  
                              u3290 6CF6                                u2810 6E0A  
                              u1930 5ED6                                u3530 753C  
                              u3450 7424                                u3370 7198  
                              u2730 7DC2                                u2650 7D1C  
                              u2570 7BCE                                u2490 7AC4  
                              u3610 6494                                u3291 6CF2  
                              u4227 5C0C                                u2811 6E06  
                              u4147 61F6                                u4067 5F46  
                              u1931 5ECE                                u3531 7538  
                              u3451 7420                                u3371 7194  
                              u2731 7DBE                                u2651 7D18  
                              u2571 7BCA                                u2491 7AC0  
                              u2900 6FBC                                u2820 6E1A  
                              u3540 7574                                u3460 7444  
                              u3380 71A8                                u2740 7DFC  
                              u2660 7D2C                                u2580 7C00  
                              u3620 64C2                                u3700 7740  
                              u4237 5C2C                                u2901 6FB8  
                              u2821 6E16                                u4157 620E  
                              u4077 5F50                                u3541 7570  
                              u3461 7440                                u3445 73C0  
                              u3381 71A4                                u2741 7DF8  
                              u2661 7D28                                u2581 7BFC  
                              u3621 64BE                                u3701 773A  
                              u2910 6FE0                                u2830 6E5C  
                              u1950 5F16                                u3550 6374  
                              u3470 7454                                u3390 71E8  
                              u2750 7E0E                                u2670 7D48  
                              u2590 7C0E                                u3630 64D6  
                              u3710 7742                                u4247 5C38  
                              u2911 6FDC                                u2831 6E58  
                              u4167 6226                                u4087 5F6A  
                              u1951 5F12                                u3551 6370  
                              u3471 7450                                u3391 71E4  
                              u2751 7E0A                                u2671 7D44  
                              u2591 7C0A                                u3631 64D2  
                              u3615 648A                                u2920 6FF6  
                              u2840 6E6E                                u1960 5F64  
                              u3560 63B2                                u3480 7482  
                              u2760 7E1E                                u2680 7D58  
                              u3640 64FE                                u3800 7954  
                              u3720 775E                                u4257 5C54  
                              u2921 6FF2                                u2841 6E6A  
                              u4177 623E                                u4097 5FA8  
                              u1961 5F60                                u3561 63AE  
                              u3481 747E                                u2761 7E1A  
                              u2681 7D54                                u3641 64FA  
                              u3801 7950                                u3721 775A  
                              u2930 7014                                u2850 6E7E  
                              u1970 5F82                                u3570 63D0  
                              u3490 7498                                u2770 7E3E  
                              u2690 7D68                                u3650 651E  
                              u3810 7964                                u3730 7792  
                              u4267 5984                                u2931 7010  
                              u2851 6E7A                                u4187 6256  
                              u1971 5F7E                                u3571 63CC  
                              u3491 7494                                u2771 7E3A  
                              u2691 7D64                                u3651 651A  
                              u3811 7960                                u3731 778E  
                              u2940 7034                                u2860 6EBC  
                              u1980 5F98                                u1948 5ED8  
                              u3580 63F0                                u2780 7E4E  
                              u3660 652E                                u3820 7980  
                              u3740 77F0                                u4277 5994  
                              u2941 7030                                u2861 6EB8  
                              u4197 626E                                u1981 5F90  
                              u3581 63EC                                u2781 7E4A  
                              u3661 652A                                u3821 7978  
                              u3741 77EC                                u2950 7044  
                              u2870 6EFC                                u3590 6440  
                              u2790 7E6A                                u3750 7802  
                              u3670 75DC                                u2951 7040  
                              u2871 6EF8                                u3591 643C  
                              u2791 7E66                                u3751 77FE  
                              u3671 75D8                                u2960 7072  
                              u2880 6F70                                u3840 79A2  
                              u3760 784A                                u3680 7652  
                              u2961 706E                                u2881 6F6C  
                              u3841 799E                                u3761 7846  
                              u3681 764E                                u2970 7088  
                              u2890 6F92                                u3770 787C  
                              u3690 7684                                u2971 7084  
                              u2891 6F8E                                u3907 6336  
                              u3771 7878                                u3691 7680  
                              u2980 709C                                u3780 7938  
                              u2981 7098                                u3917 5FF2  
                              u3781 7932                                u2990 70B6  
                              u1998 5F9A                                u3838 7982  
                              u3790 793A                                u2991 70B2  
                              u3927 5EEA                                u3937 5EF4  
                              u3857 75BA                                u3947 5EFE  
                              u3867 75F2                                u3957 5F1A  
                              u3877 77D4                                u3967 5F24  
                              u3887 5AC4                                u3977 5F30  
                              u3897 6288                                u3987 5840  
                              u3997 58CC                         ?_OLED_Error 000E  
                 DS18B20_ReadByte@i 0003            ?_DS18B20_StartConversion 0001  
                calcular_promedio@i 000D                                _main 7592  
                  __end_of_I2C_Init 583A                    __end_of_I2C_Read 5FC8  
                              fsr1h 0FE2                                fsr2h 0FDA  
                              indf1 0FE7                                indf2 0FDF  
                              fsr1l 0FE1                                fsr2l 0FD9  
                    _picos_contados 0058                    __end_of_I2C_Stop 58E8  
                              prodh 0FF4                                prodl 0FF3  
                              start 7FFC                     ___fldiv@new_exp 0020  
               OLED_WriteString@str 000C                        ___param_bank 0000  
                  ??_OLED_WriteChar 0004                        main@hay_dedo 003F  
                      main@hay_temp 0041                       ___fltol@sign1 003A  
                   __end_of___fladd 7E7E                               ?_main 0001  
                   __end_of___fldiv 716C                               STR_10 7F76  
                             STR_11 7FEE                               STR_12 7FD8  
                             STR_13 7FBE                               STR_14 7F84  
                             STR_15 7FF5                               STR_16 7FC7  
                             STR_17 7FB5                               STR_18 7FD0  
                   __end_of___flmul 7592                     __end_of___flsub 5B76  
                   __end_of___fltol 6550                               _CMCON 0FB4  
                   __end_of___lldiv 6106                     __end_of___lwdiv 5E48  
                   __end_of___lwmod 5DD6              MAX30102_ReadSample@red 0009  
                             _TRISB 0F93                               _TRISD 0F95  
                      ?_OLED_Paused 0001                        ?_OLED_Splash 0001  
                      ?_OLED_Vitals 0013                     __end_of_font5x7 7F47  
                       _OW_WriteBit 5A68                        main@temp_dec 0043  
                             _setup 5AA8                        main@temp_int 004F  
                             main@i 004A                   __end_of_I2C_Start 59CA  
                 __end_of_I2C_Write 5F38                               tablat 0FF5  
MAX30102_SamplesAvailable@write_ptr 0007                       _DS18B20_Reset 5C06  
                             status 0FD8                     __initialization 590A  
                      __end_of_main 79C8                              ??_main 003C  
                     __activetblptr 0002               __end_of_MAX30102_Init 6062  
          __end_of_DS18B20_ReadByte 5A30                           I2C_Read@i 0004  
          __end_of_DS18B20_ReadTemp 68D6          ?_MAX30102_SamplesAvailable 0001  
                       ?_OW_ReadBit 0001     __end_of_DS18B20_StartConversion 5976  
                            _ADCON1 0FC1                         ?_OW_Release 0001  
                            ?_setup 0001                   __end_of_OLED_Init 6346  
                    ?_DS18B20_Reset 0001                              _OSCCON 0FD3  
                     ?_OLED_Command 0001             MAX30102_ReadSample@data 001C  
                  __end_of___xxtofl 6BE2                        uint_to_str@i 0012  
                      uint_to_str@j 0011               _MAX30102_ReadRegister 59CA  
                            ___flge 6346                   OLED_Vitals@alarma 0015  
                         ??___fladd 0009                           ??___fldiv 0017  
                         ??___flmul 0021                           ??___flsub 0019  
                         ??___fltol 0036                           ??___lldiv 0009  
                         ??___lwdiv 0005                           ??___lwmod 0005  
                 OLED_Vitals@perfil 0016                         OLED_Clear@i 0005  
                            clear_0 5910                              clear_1 591C  
               DS18B20_ReadTemp@lsb 0030                 DS18B20_ReadTemp@msb 0031  
               DS18B20_ReadTemp@raw 002E                              isa$std 0001  
                            main@ir 004B                           ?_I2C_Init 0001  
                         ?_I2C_Read 0001                           ?_I2C_Stop 0001  
                      __mediumconst 7E7E                              tblptrh 0FF7  
                            tblptrl 0FF6                              tblptru 0FF8  
 __end_of_MAX30102_SamplesAvailable 5868                          ___flge@ff1 0001  
                        ___flge@ff2 0005                      ??_OLED_Command 0004  
                      ___xxtofl@arg 000B                        ___xxtofl@exp 000A  
                      ___xxtofl@val 0001                          __accesstop 0060  
           __end_of__initialization 5922                      OW_WriteBit@bit 0001  
          ??_MAX30102_WriteRegister 0005                       ___rparam_used 0001  
                        ___fltol@f1 0032                      _MAX30102_Check 5A30  
       CAR_ProcesarMuestra@bpm_calc 0020                      __pcstackCOMRAM 0001  
                     __end_of_setup 5AEA                        ?_uint_to_str 0008  
                    main@ciclo_temp 0042                          ??_I2C_Init 0001  
                        ??_I2C_Read 0001                          ??_I2C_Stop 0001  
       CAR_ProcesarMuestra@promedio 0018                   ?_OLED_WriteString 000C  
                   ??_DS18B20_Reset 0001                             ??_setup 0001  
                      ??_OLED_Clear 0005                  ??_OLED_WriteString 000E  
                        __pbssBANK0 0060                       CAR_HayDedo@ir 0001  
                      ??_OLED_Error 0010                     _ir_promedio_ant 0054  
            __end_of_MAX30102_Check 5A68              ?_MAX30102_ReadRegister 0005  
         MAX30102_ReadRegister@data 0005                        I2C_Read@data 0003  
                           ?___flge 0001                 _CAR_ProcesarMuestra 6BE2  
                        _bpm_actual 005A                          I2C_Write@i 0003  
                 _calcular_promedio 5E48                  __end_of_OLED_Clear 5CB6  
                __end_of_OLED_Error 5BBE                  ?_calcular_promedio 0001  
                         ?___xxtofl 0001            ??_DS18B20_WaitConversion 0001  
               MAX30102_Init@status 0009            MAX30102_ReadRegister@reg 0006  
              ?_CAR_ProcesarMuestra 000E                        ?_OW_WriteBit 0001  
                DS18B20_WriteByte@i 0003                 ??_calcular_promedio 0005  
        MAX30102_WriteRegister@data 0004                     ?_MAX30102_Check 0001  
                         _I2C_Start 599E                           _I2C_Write 5EC0  
                           __Hparam 0000                             __Lparam 0000  
              DS18B20_ReadByte@data 0002                             ___fladd 79C8  
                           ___fldiv 6DDE                             ___flmul 716C  
                           ___flsub 5B30                             ___fltol 644A  
                           ___lldiv 6062                             ___lwdiv 5DD6  
                OLED_SetCursor@page 0005                             ___lwmod 5D72  
         __end_of_calcular_promedio 5EC0                             __pcinit 590A  
                           __ramtop 0800                __end_of_OLED_Command 58A4  
             calcular_promedio@suma 0009                             __ptext0 7592  
                           __ptext1 5AA8                             __ptext2 644A  
                           __ptext3 5B30                             __ptext4 79C8  
                           __ptext5 716C                             __ptext6 6346  
                           __ptext7 6550                             __ptext8 6106  
                           __ptext9 5D72                             _en_pico 0059  
                           _buf_idx 005B                             _font5x7 7E7F  
           _CAR_ProcesarMuestra$542 0016                       ??_CAR_HayDedo 0005  
                        ??___xxtofl 0005                        ??_OW_ReadBit 0001  
             ??_CAR_ProcesarMuestra 0016                   ?_DS18B20_ReadByte 0001  
       ??_MAX30102_SamplesAvailable 0007                   ?_DS18B20_ReadTemp 0028  
                   OLED_ClearLine@i 0006                             main@bpm 003E  
                      ??_OW_Release 0001                             main@red 0044  
              end_of_initialization 5922                  ??_DS18B20_ReadByte 0002  
                ??_DS18B20_ReadTemp 002C                       __Lmediumconst 7E7E  
                         _OLED_Init 627E                          ?_I2C_Start 0001  
                        ?_I2C_Write 0001                     ___lldiv@divisor 0005  
                   ___lldiv@counter 000D                             postdec2 0FDD  
                           postinc0 0FEE                             postinc2 0FDE  
                __end_of_OW_ReadBit 599E                  __end_of_OW_Release 582E  
                         _PORTBbits 0F81                           _PORTDbits 0F83  
            _MAX30102_WriteRegister 5868                         ___fladd@grs 0010  
                     ___xxtofl@sign 0009                           _TRISBbits 0F93  
                         _TRISDbits 0F95                         ___fldiv@grs 0022  
                       ___fldiv@rem 001B                 __end_of_CAR_HayDedo 58C6  
                   OLED_Command@cmd 0004                         ___flmul@grs 0026  
                        main@alarma 0049                          main@activo 0048  
                        ?_OLED_Init 0001                          main@temp_f 0050  
         _MAX30102_SamplesAvailable 584C             _DS18B20_StartConversion 5950  
                    __end_of___flge 644A               MAX30102_ReadSample@ir 000A  
               _MAX30102_ReadSample 68D6                 start_initialization 590A  
              ?_MAX30102_ReadSample 0009             ??_MAX30102_ReadRegister 0006  
                    _OLED_ClearLine 5AEA                         ??_I2C_Start 0001  
                       ??_I2C_Write 0001              _DS18B20_WaitConversion 61BC  
                          ??___flge 0009                   _I2C_RepeatedStart 583A  
                ?_I2C_RepeatedStart 0001                           ___fladd@a 0005  
                         ___fladd@b 0001                           ___fldiv@a 0013  
                         ___fldiv@b 000F                       ??_OLED_Paused 000E  
                         ___flmul@a 001D                           ___flmul@b 0019  
                       __pbssCOMRAM 0054                           ___flsub@a 0015  
                         ___flsub@b 0011                         _CAR_HayDedo 58A4  
                     ??_OLED_Splash 000E                       ??_OLED_Vitals 0017  
               ??_I2C_RepeatedStart 0001                       _MAX30102_Init 5FC8  
             DS18B20_Reset@presence 0001                    ??_MAX30102_Check 0007  
             ??_MAX30102_ReadSample 000B               __end_of_DS18B20_Reset 5C5E  
            __end_of_OLED_ClearLine 5B30                      _OLED_SetCursor 58E8  
                      _OLED_Command 5886                         ??_OLED_Init 0005  
         ??_DS18B20_StartConversion 0004                    ___lwdiv@dividend 0001  
                       I2C_Read@ack 0002           __end_of_I2C_RepeatedStart 584C  
                     __pmediumconst 7E7E                            ?___fladd 0001  
                          ?___fldiv 000F                            ?___flmul 0019  
                          ?___flsub 0011                            ?___fltol 0032  
                          ?___lldiv 0001                            ?___lwdiv 0001  
                          ?___lwmod 0001           MAX30102_WriteRegister@reg 0005  
                       __smallconst 7E7E                            _I2C_Init 582E  
                          _I2C_Read 5F38                            _I2C_Stop 58C6  
                    _OLED_WriteChar 6658                      ?_MAX30102_Init 0001  
                         _ir_buffer 0060                   OLED_SetCursor@col 0006  
                  ___lwdiv@quotient 0005              __end_of_OLED_SetCursor 590A  
               __end_of_OLED_Paused 5C06                     ?_OLED_ClearLine 0001  
                    OLED_Clear@page 0006              CAR_ProcesarMuestra@red 000E  
               __end_of_OLED_Splash 5D72                 __end_of_OLED_Vitals 6658  
                          _LATBbits 0F8A                            _LATDbits 0F8C  
             MAX30102_Check@part_id 0007   MAX30102_SamplesAvailable@read_ptr 0008  
           ?_MAX30102_WriteRegister 0004         __end_of_CAR_ProcesarMuestra 6DDE  
            __end_of_OLED_WriteChar 6792                         _INTCON2bits 0FF1  
                   ?_OLED_SetCursor 0005                      uint_to_str@buf 000A  
                    uint_to_str@num 0008                      uint_to_str@tmp 000B  
                          __Hrparam 0000                    _OLED_WriteString 5CB6  
                          __Lrparam 0000      __end_of_MAX30102_WriteRegister 5886  
                     I2C_Write@data 0002                       ??_uint_to_str 000B  
                   ?_OLED_WriteChar 0001                     ??_MAX30102_Init 0008  
                          ___xxtofl 6A2E                         _OLED_Paused 5BBE  
                          _main$488 0040                 OLED_WriteChar@index 0008  
                   ___lwdiv@divisor 0003                         _OLED_Splash 5D14  
                       _OLED_Vitals 6550                     ___lwdiv@counter 0007  
                          __ptext10 5DD6                            __ptext11 5AEA  
                          __ptext20 5886                            __ptext12 5D14  
                          __ptext21 68D6                            __ptext13 5BBE  
                          __ptext30 599E                            __ptext22 584C  
                          __ptext14 627E                            __ptext31 5F38  
                          __ptext23 5FC8                            __ptext15 5B76  
                          __ptext40 5C06                            __ptext32 582E  
                          __ptext24 5868                            __ptext16 5CB6  
                          __ptext41 59FC                            __ptext33 61BC  
                          __ptext25 5A30                            __ptext17 6658  
                          __ptext42 5976                            __ptext34 5950  
                          __ptext26 59CA                            __ptext18 58E8  
                          __ptext43 5828                            __ptext35 6792  
                          __ptext27 5EC0                            __ptext19 5C5E  
                          __ptext44 6BE2                            __ptext36 6A2E  
                          __ptext28 583A                            __ptext45 5E48  
                          __ptext37 6DDE                            __ptext29 58C6  
                          __ptext46 6062                            __ptext38 592C  
                          __ptext47 58A4                            __ptext39 5A68  
                     _muestras_pico 005C                       OW_ReadBit@bit 0001  
               OLED_Vitals@temp_dec 0013                 OLED_Vitals@temp_int 001D  
           ?_DS18B20_WaitConversion 0001               CAR_ProcesarMuestra@ir 0012  
     __end_of_MAX30102_ReadRegister 59FC            CAR_ProcesarMuestra@delta 001C  
                   OLED_WriteChar@c 000B                     OLED_WriteChar@i 000A  
                          isa$xinst 0000                        ?_CAR_HayDedo 0001  
               __end_of_uint_to_str 61BC                      OLED_Vitals@bpm 0014  
                    OLED_Vitals@buf 0017                       OLED_Error@msg 000E  
                     ??_OW_WriteBit 0001                          _OLED_Clear 5C5E  
                        _OLED_Error 5B76      __end_of_DS18B20_WaitConversion 627E  
                  ___lwmod@dividend 0001                    ___lldiv@dividend 0001  
              CAR_ProcesarMuestra@i 0022                          _OSCCONbits 0FD3  
                  _DS18B20_ReadByte 59FC                   _DS18B20_WriteByte 592C  
                  _DS18B20_ReadTemp 6792                  ?_DS18B20_WriteByte 0001  
               ??_DS18B20_WriteByte 0002                    ___lldiv@quotient 0009  
                   ___lwmod@divisor 0003                     ___lwmod@counter 0005  
       __end_of_MAX30102_ReadSample 6A2E                    ??_OLED_ClearLine 0005  
                     ___fladd@signs 000D                        ___fladd@aexp 000E  
                      ___fladd@bexp 000F                 __end_of_OW_WriteBit 5AA8  
         __end_of_DS18B20_WriteByte 5950               DS18B20_WriteByte@byte 0002  
