

Microchip MPLAB XC8 Assembler V3.10 build 20250813170317 
                                                                                               Sat May 30 20:15:21 2026

Microchip MPLAB XC8 C Compiler v3.10 (Free license) build 20250813170317 Og1 
     1                           	processor	18F4550
     2                           	fnconf	rparam,??,?,0
     3                           	pagewidth 120
     4                           	opt	flic
     5                           	psect	mediumconst,global,reloc=2,class=MEDIUMCONST,space=0,delta=1,noexec
     6                           	psect	cinit,global,reloc=2,class=CODE,space=0,delta=1
     7                           	psect	cstackCOMRAM,global,class=COMRAM,space=1,delta=1,lowdata,noexec
     8                           	psect	text0,global,reloc=2,class=CODE,space=0,delta=1
     9                           	psect	text1,global,reloc=2,class=CODE,space=0,delta=1
    10                           	psect	text2,global,reloc=2,class=CODE,space=0,delta=1
    11                           	psect	text3,global,reloc=2,class=CODE,space=0,delta=1
    12                           	psect	text4,global,reloc=2,class=CODE,space=0,delta=1
    13                           	psect	text5,global,reloc=2,class=CODE,space=0,delta=1
    14                           	psect	text6,global,reloc=2,class=CODE,space=0,delta=1
    15                           	psect	text7,global,reloc=2,class=CODE,space=0,delta=1
    16                           	psect	text8,global,reloc=2,class=CODE,space=0,delta=1
    17                           	psect	text9,global,reloc=2,class=CODE,space=0,delta=1
    18                           	psect	text10,global,reloc=2,class=CODE,space=0,delta=1
    19                           	psect	text11,global,reloc=2,class=CODE,space=0,delta=1
    20                           	psect	intsave_regs,global,class=BIGRAM,space=1,delta=1,noexec
    21                           	psect	rparam,global,class=COMRAM,space=1,delta=1,noexec
    22                           	psect	config,global,abs,ovrld,class=CONFIG,space=4,delta=1,noexec
    23   000000                     
    24                           ; Generated 17/01/2025 GMT
    25                           ; 
    26                           ; Copyright © 2025, Microchip Technology Inc. and its subsidiaries ("Microchip")
    27                           ; All rights reserved.
    28                           ; 
    29                           ; This software is developed by Microchip Technology Inc. and its subsidiaries ("Microch
      +                          ip").
    30                           ; 
    31                           ; Redistribution and use in source and binary forms, with or without modification, are
    32                           ; permitted provided that the following conditions are met:
    33                           ; 
    34                           ;     1. Redistributions of source code must retain the above copyright notice, this lis
      +                          t of
    35                           ;        conditions and the following disclaimer.
    36                           ; 
    37                           ;     2. Redistributions in binary form must reproduce the above copyright notice, this 
      +                          list
    38                           ;        of conditions and the following disclaimer in the documentation and/or other
    39                           ;        materials provided with the distribution. Publication is not required when
    40                           ;        this file is used in an embedded application.
    41                           ; 
    42                           ;     3. Microchip's name may not be used to endorse or promote products derived from th
      +                          is
    43                           ;        software without specific prior written permission.
    44                           ; 
    45                           ; THIS SOFTWARE IS PROVIDED BY MICROCHIP "AS IS" AND ANY EXPRESS OR IMPLIED WARRANTIES,
    46                           ; INCLUDING, BUT NOT LIMITED TO, THE IMPLIED WARRANTIES OF MERCHANTABILITY AND FITNESS F
      +                          OR
    47                           ; PURPOSE ARE DISCLAIMED.  IN NO EVENT SHALL MICROCHIP BE LIABLE FOR ANY DIRECT, INDIREC
      +                          T,
    48                           ; INCIDENTAL, SPECIAL, EXEMPLARY, OR CONSEQUENTIAL DAMAGES (INCLUDING BUT NOT LIMITED TO
    49                           ; PROCUREMENT OF SUBSTITUTE GOODS OR SERVICES; LOSS OF USE, DATA OR PROFITS; OR BUSINESS
    50                           ; INTERRUPTION) HOWSOEVER CAUSED AND ON ANY THEORY OF LIABILITY, WHETHER IN CONTRACT, ST
      +                          RICT
    51                           ; LIABILITY, OR TORT (INCLUDING NEGLIGENCE OR OTHERWISE) ARISING IN ANY WAY OUT OF THE U
      +                          SE OF
    52                           ; THIS SOFTWARE, EVEN IF ADVISED OF THE POSSIBILITY OF SUCH DAMAGE.
    53                           ; 
    54                           ; 
    55                           ; Code-generator required, PIC18F4550 Definitions
    56                           ; 
    57                           ; SFR Addresses
    58   000FE0                     bsr             equ	4064
    59   000FE9                     fsr0            equ	4073
    60   000FEA                     fsr0h           equ	4074
    61   000FE9                     fsr0l           equ	4073
    62   000FE1                     fsr1            equ	4065
    63   000FE2                     fsr1h           equ	4066
    64   000FE1                     fsr1l           equ	4065
    65   000FD9                     fsr2            equ	4057
    66   000FDA                     fsr2h           equ	4058
    67   000FD9                     fsr2l           equ	4057
    68   000FEF                     indf0           equ	4079
    69   000FE7                     indf1           equ	4071
    70   000FDF                     indf2           equ	4063
    71   000FF2                     intcon          equ	4082
    72   000000                     nvmcon          equ	0
    73   000FF9                     pcl             equ	4089
    74   000FFA                     pclath          equ	4090
    75   000FFB                     pclatu          equ	4091
    76   000FEB                     plusw0          equ	4075
    77   000FE3                     plusw1          equ	4067
    78   000FDB                     plusw2          equ	4059
    79   000FED                     postdec0        equ	4077
    80   000FE5                     postdec1        equ	4069
    81   000FDD                     postdec2        equ	4061
    82   000FEE                     postinc0        equ	4078
    83   000FE6                     postinc1        equ	4070
    84   000FDE                     postinc2        equ	4062
    85   000FEC                     preinc0         equ	4076
    86   000FE4                     preinc1         equ	4068
    87   000FDC                     preinc2         equ	4060
    88   000FF3                     prod            equ	4083
    89   000FF4                     prodh           equ	4084
    90   000FF3                     prodl           equ	4083
    91   000FD8                     status          equ	4056
    92   000FF5                     tablat          equ	4085
    93   000FF6                     tblptr          equ	4086
    94   000FF7                     tblptrh         equ	4087
    95   000FF6                     tblptrl         equ	4086
    96   000FF8                     tblptru         equ	4088
    97   000FFD                     tosl            equ	4093
    98   000FE8                     wreg            equ	4072
    99   000F62                     SPPDATA         equ	3938	;# 
   100   000F63                     SPPCFG          equ	3939	;# 
   101   000F64                     SPPEPS          equ	3940	;# 
   102   000F65                     SPPCON          equ	3941	;# 
   103   000F66                     UFRM            equ	3942	;# 
   104   000F66                     UFRML           equ	3942	;# 
   105   000F67                     UFRMH           equ	3943	;# 
   106   000F68                     UIR             equ	3944	;# 
   107   000F69                     UIE             equ	3945	;# 
   108   000F6A                     UEIR            equ	3946	;# 
   109   000F6B                     UEIE            equ	3947	;# 
   110   000F6C                     USTAT           equ	3948	;# 
   111   000F6D                     UCON            equ	3949	;# 
   112   000F6E                     UADDR           equ	3950	;# 
   113   000F6F                     UCFG            equ	3951	;# 
   114   000F70                     UEP0            equ	3952	;# 
   115   000F71                     UEP1            equ	3953	;# 
   116   000F72                     UEP2            equ	3954	;# 
   117   000F73                     UEP3            equ	3955	;# 
   118   000F74                     UEP4            equ	3956	;# 
   119   000F75                     UEP5            equ	3957	;# 
   120   000F76                     UEP6            equ	3958	;# 
   121   000F77                     UEP7            equ	3959	;# 
   122   000F78                     UEP8            equ	3960	;# 
   123   000F79                     UEP9            equ	3961	;# 
   124   000F7A                     UEP10           equ	3962	;# 
   125   000F7B                     UEP11           equ	3963	;# 
   126   000F7C                     UEP12           equ	3964	;# 
   127   000F7D                     UEP13           equ	3965	;# 
   128   000F7E                     UEP14           equ	3966	;# 
   129   000F7F                     UEP15           equ	3967	;# 
   130   000F80                     PORTA           equ	3968	;# 
   131   000F81                     PORTB           equ	3969	;# 
   132   000F82                     PORTC           equ	3970	;# 
   133   000F83                     PORTD           equ	3971	;# 
   134   000F84                     PORTE           equ	3972	;# 
   135   000F89                     LATA            equ	3977	;# 
   136   000F8A                     LATB            equ	3978	;# 
   137   000F8B                     LATC            equ	3979	;# 
   138   000F8C                     LATD            equ	3980	;# 
   139   000F8D                     LATE            equ	3981	;# 
   140   000F92                     TRISA           equ	3986	;# 
   141   000F92                     DDRA            equ	3986	;# 
   142   000F93                     TRISB           equ	3987	;# 
   143   000F93                     DDRB            equ	3987	;# 
   144   000F94                     TRISC           equ	3988	;# 
   145   000F94                     DDRC            equ	3988	;# 
   146   000F95                     TRISD           equ	3989	;# 
   147   000F95                     DDRD            equ	3989	;# 
   148   000F96                     TRISE           equ	3990	;# 
   149   000F96                     DDRE            equ	3990	;# 
   150   000F9B                     OSCTUNE         equ	3995	;# 
   151   000F9D                     PIE1            equ	3997	;# 
   152   000F9E                     PIR1            equ	3998	;# 
   153   000F9F                     IPR1            equ	3999	;# 
   154   000FA0                     PIE2            equ	4000	;# 
   155   000FA1                     PIR2            equ	4001	;# 
   156   000FA2                     IPR2            equ	4002	;# 
   157   000FA6                     EECON1          equ	4006	;# 
   158   000FA7                     EECON2          equ	4007	;# 
   159   000FA8                     EEDATA          equ	4008	;# 
   160   000FA9                     EEADR           equ	4009	;# 
   161   000FAB                     RCSTA           equ	4011	;# 
   162   000FAB                     RCSTA1          equ	4011	;# 
   163   000FAC                     TXSTA           equ	4012	;# 
   164   000FAC                     TXSTA1          equ	4012	;# 
   165   000FAD                     TXREG           equ	4013	;# 
   166   000FAD                     TXREG1          equ	4013	;# 
   167   000FAE                     RCREG           equ	4014	;# 
   168   000FAE                     RCREG1          equ	4014	;# 
   169   000FAF                     SPBRG           equ	4015	;# 
   170   000FAF                     SPBRG1          equ	4015	;# 
   171   000FB0                     SPBRGH          equ	4016	;# 
   172   000FB1                     T3CON           equ	4017	;# 
   173   000FB2                     TMR3            equ	4018	;# 
   174   000FB2                     TMR3L           equ	4018	;# 
   175   000FB3                     TMR3H           equ	4019	;# 
   176   000FB4                     CMCON           equ	4020	;# 
   177   000FB5                     CVRCON          equ	4021	;# 
   178   000FB6                     ECCP1AS         equ	4022	;# 
   179   000FB6                     CCP1AS          equ	4022	;# 
   180   000FB7                     ECCP1DEL        equ	4023	;# 
   181   000FB7                     CCP1DEL         equ	4023	;# 
   182   000FB8                     BAUDCON         equ	4024	;# 
   183   000FB8                     BAUDCTL         equ	4024	;# 
   184   000FBA                     CCP2CON         equ	4026	;# 
   185   000FBB                     CCPR2           equ	4027	;# 
   186   000FBB                     CCPR2L          equ	4027	;# 
   187   000FBC                     CCPR2H          equ	4028	;# 
   188   000FBD                     CCP1CON         equ	4029	;# 
   189   000FBD                     ECCP1CON        equ	4029	;# 
   190   000FBE                     CCPR1           equ	4030	;# 
   191   000FBE                     CCPR1L          equ	4030	;# 
   192   000FBF                     CCPR1H          equ	4031	;# 
   193   000FC0                     ADCON2          equ	4032	;# 
   194   000FC1                     ADCON1          equ	4033	;# 
   195   000FC2                     ADCON0          equ	4034	;# 
   196   000FC3                     ADRES           equ	4035	;# 
   197   000FC3                     ADRESL          equ	4035	;# 
   198   000FC4                     ADRESH          equ	4036	;# 
   199   000FC5                     SSPCON2         equ	4037	;# 
   200   000FC6                     SSPCON1         equ	4038	;# 
   201   000FC7                     SSPSTAT         equ	4039	;# 
   202   000FC8                     SSPADD          equ	4040	;# 
   203   000FC9                     SSPBUF          equ	4041	;# 
   204   000FCA                     T2CON           equ	4042	;# 
   205   000FCB                     PR2             equ	4043	;# 
   206   000FCB                     MEMCON          equ	4043	;# 
   207   000FCC                     TMR2            equ	4044	;# 
   208   000FCD                     T1CON           equ	4045	;# 
   209   000FCE                     TMR1            equ	4046	;# 
   210   000FCE                     TMR1L           equ	4046	;# 
   211   000FCF                     TMR1H           equ	4047	;# 
   212   000FD0                     RCON            equ	4048	;# 
   213   000FD1                     WDTCON          equ	4049	;# 
   214   000FD2                     HLVDCON         equ	4050	;# 
   215   000FD2                     LVDCON          equ	4050	;# 
   216   000FD3                     OSCCON          equ	4051	;# 
   217   000FD5                     T0CON           equ	4053	;# 
   218   000FD6                     TMR0            equ	4054	;# 
   219   000FD6                     TMR0L           equ	4054	;# 
   220   000FD7                     TMR0H           equ	4055	;# 
   221   000FD8                     STATUS          equ	4056	;# 
   222   000FD9                     FSR2            equ	4057	;# 
   223   000FD9                     FSR2L           equ	4057	;# 
   224   000FDA                     FSR2H           equ	4058	;# 
   225   000FDB                     PLUSW2          equ	4059	;# 
   226   000FDC                     PREINC2         equ	4060	;# 
   227   000FDD                     POSTDEC2        equ	4061	;# 
   228   000FDE                     POSTINC2        equ	4062	;# 
   229   000FDF                     INDF2           equ	4063	;# 
   230   000FE0                     BSR             equ	4064	;# 
   231   000FE1                     FSR1            equ	4065	;# 
   232   000FE1                     FSR1L           equ	4065	;# 
   233   000FE2                     FSR1H           equ	4066	;# 
   234   000FE3                     PLUSW1          equ	4067	;# 
   235   000FE4                     PREINC1         equ	4068	;# 
   236   000FE5                     POSTDEC1        equ	4069	;# 
   237   000FE6                     POSTINC1        equ	4070	;# 
   238   000FE7                     INDF1           equ	4071	;# 
   239   000FE8                     WREG            equ	4072	;# 
   240   000FE9                     FSR0            equ	4073	;# 
   241   000FE9                     FSR0L           equ	4073	;# 
   242   000FEA                     FSR0H           equ	4074	;# 
   243   000FEB                     PLUSW0          equ	4075	;# 
   244   000FEC                     PREINC0         equ	4076	;# 
   245   000FED                     POSTDEC0        equ	4077	;# 
   246   000FEE                     POSTINC0        equ	4078	;# 
   247   000FEF                     INDF0           equ	4079	;# 
   248   000FF0                     INTCON3         equ	4080	;# 
   249   000FF1                     INTCON2         equ	4081	;# 
   250   000FF2                     INTCON          equ	4082	;# 
   251   000FF3                     PROD            equ	4083	;# 
   252   000FF3                     PRODL           equ	4083	;# 
   253   000FF4                     PRODH           equ	4084	;# 
   254   000FF5                     TABLAT          equ	4085	;# 
   255   000FF6                     TBLPTR          equ	4086	;# 
   256   000FF6                     TBLPTRL         equ	4086	;# 
   257   000FF7                     TBLPTRH         equ	4087	;# 
   258   000FF8                     TBLPTRU         equ	4088	;# 
   259   000FF9                     PCLAT           equ	4089	;# 
   260   000FF9                     PC              equ	4089	;# 
   261   000FF9                     PCL             equ	4089	;# 
   262   000FFA                     PCLATH          equ	4090	;# 
   263   000FFB                     PCLATU          equ	4091	;# 
   264   000FFC                     STKPTR          equ	4092	;# 
   265   000FFD                     TOS             equ	4093	;# 
   266   000FFD                     TOSL            equ	4093	;# 
   267   000FFE                     TOSH            equ	4094	;# 
   268   000FFF                     TOSU            equ	4095	;# 
   269   000F62                     SPPDATA         equ	3938	;# 
   270   000F63                     SPPCFG          equ	3939	;# 
   271   000F64                     SPPEPS          equ	3940	;# 
   272   000F65                     SPPCON          equ	3941	;# 
   273   000F66                     UFRM            equ	3942	;# 
   274   000F66                     UFRML           equ	3942	;# 
   275   000F67                     UFRMH           equ	3943	;# 
   276   000F68                     UIR             equ	3944	;# 
   277   000F69                     UIE             equ	3945	;# 
   278   000F6A                     UEIR            equ	3946	;# 
   279   000F6B                     UEIE            equ	3947	;# 
   280   000F6C                     USTAT           equ	3948	;# 
   281   000F6D                     UCON            equ	3949	;# 
   282   000F6E                     UADDR           equ	3950	;# 
   283   000F6F                     UCFG            equ	3951	;# 
   284   000F70                     UEP0            equ	3952	;# 
   285   000F71                     UEP1            equ	3953	;# 
   286   000F72                     UEP2            equ	3954	;# 
   287   000F73                     UEP3            equ	3955	;# 
   288   000F74                     UEP4            equ	3956	;# 
   289   000F75                     UEP5            equ	3957	;# 
   290   000F76                     UEP6            equ	3958	;# 
   291   000F77                     UEP7            equ	3959	;# 
   292   000F78                     UEP8            equ	3960	;# 
   293   000F79                     UEP9            equ	3961	;# 
   294   000F7A                     UEP10           equ	3962	;# 
   295   000F7B                     UEP11           equ	3963	;# 
   296   000F7C                     UEP12           equ	3964	;# 
   297   000F7D                     UEP13           equ	3965	;# 
   298   000F7E                     UEP14           equ	3966	;# 
   299   000F7F                     UEP15           equ	3967	;# 
   300   000F80                     PORTA           equ	3968	;# 
   301   000F81                     PORTB           equ	3969	;# 
   302   000F82                     PORTC           equ	3970	;# 
   303   000F83                     PORTD           equ	3971	;# 
   304   000F84                     PORTE           equ	3972	;# 
   305   000F89                     LATA            equ	3977	;# 
   306   000F8A                     LATB            equ	3978	;# 
   307   000F8B                     LATC            equ	3979	;# 
   308   000F8C                     LATD            equ	3980	;# 
   309   000F8D                     LATE            equ	3981	;# 
   310   000F92                     TRISA           equ	3986	;# 
   311   000F92                     DDRA            equ	3986	;# 
   312   000F93                     TRISB           equ	3987	;# 
   313   000F93                     DDRB            equ	3987	;# 
   314   000F94                     TRISC           equ	3988	;# 
   315   000F94                     DDRC            equ	3988	;# 
   316   000F95                     TRISD           equ	3989	;# 
   317   000F95                     DDRD            equ	3989	;# 
   318   000F96                     TRISE           equ	3990	;# 
   319   000F96                     DDRE            equ	3990	;# 
   320   000F9B                     OSCTUNE         equ	3995	;# 
   321   000F9D                     PIE1            equ	3997	;# 
   322   000F9E                     PIR1            equ	3998	;# 
   323   000F9F                     IPR1            equ	3999	;# 
   324   000FA0                     PIE2            equ	4000	;# 
   325   000FA1                     PIR2            equ	4001	;# 
   326   000FA2                     IPR2            equ	4002	;# 
   327   000FA6                     EECON1          equ	4006	;# 
   328   000FA7                     EECON2          equ	4007	;# 
   329   000FA8                     EEDATA          equ	4008	;# 
   330   000FA9                     EEADR           equ	4009	;# 
   331   000FAB                     RCSTA           equ	4011	;# 
   332   000FAB                     RCSTA1          equ	4011	;# 
   333   000FAC                     TXSTA           equ	4012	;# 
   334   000FAC                     TXSTA1          equ	4012	;# 
   335   000FAD                     TXREG           equ	4013	;# 
   336   000FAD                     TXREG1          equ	4013	;# 
   337   000FAE                     RCREG           equ	4014	;# 
   338   000FAE                     RCREG1          equ	4014	;# 
   339   000FAF                     SPBRG           equ	4015	;# 
   340   000FAF                     SPBRG1          equ	4015	;# 
   341   000FB0                     SPBRGH          equ	4016	;# 
   342   000FB1                     T3CON           equ	4017	;# 
   343   000FB2                     TMR3            equ	4018	;# 
   344   000FB2                     TMR3L           equ	4018	;# 
   345   000FB3                     TMR3H           equ	4019	;# 
   346   000FB4                     CMCON           equ	4020	;# 
   347   000FB5                     CVRCON          equ	4021	;# 
   348   000FB6                     ECCP1AS         equ	4022	;# 
   349   000FB6                     CCP1AS          equ	4022	;# 
   350   000FB7                     ECCP1DEL        equ	4023	;# 
   351   000FB7                     CCP1DEL         equ	4023	;# 
   352   000FB8                     BAUDCON         equ	4024	;# 
   353   000FB8                     BAUDCTL         equ	4024	;# 
   354   000FBA                     CCP2CON         equ	4026	;# 
   355   000FBB                     CCPR2           equ	4027	;# 
   356   000FBB                     CCPR2L          equ	4027	;# 
   357   000FBC                     CCPR2H          equ	4028	;# 
   358   000FBD                     CCP1CON         equ	4029	;# 
   359   000FBD                     ECCP1CON        equ	4029	;# 
   360   000FBE                     CCPR1           equ	4030	;# 
   361   000FBE                     CCPR1L          equ	4030	;# 
   362   000FBF                     CCPR1H          equ	4031	;# 
   363   000FC0                     ADCON2          equ	4032	;# 
   364   000FC1                     ADCON1          equ	4033	;# 
   365   000FC2                     ADCON0          equ	4034	;# 
   366   000FC3                     ADRES           equ	4035	;# 
   367   000FC3                     ADRESL          equ	4035	;# 
   368   000FC4                     ADRESH          equ	4036	;# 
   369   000FC5                     SSPCON2         equ	4037	;# 
   370   000FC6                     SSPCON1         equ	4038	;# 
   371   000FC7                     SSPSTAT         equ	4039	;# 
   372   000FC8                     SSPADD          equ	4040	;# 
   373   000FC9                     SSPBUF          equ	4041	;# 
   374   000FCA                     T2CON           equ	4042	;# 
   375   000FCB                     PR2             equ	4043	;# 
   376   000FCB                     MEMCON          equ	4043	;# 
   377   000FCC                     TMR2            equ	4044	;# 
   378   000FCD                     T1CON           equ	4045	;# 
   379   000FCE                     TMR1            equ	4046	;# 
   380   000FCE                     TMR1L           equ	4046	;# 
   381   000FCF                     TMR1H           equ	4047	;# 
   382   000FD0                     RCON            equ	4048	;# 
   383   000FD1                     WDTCON          equ	4049	;# 
   384   000FD2                     HLVDCON         equ	4050	;# 
   385   000FD2                     LVDCON          equ	4050	;# 
   386   000FD3                     OSCCON          equ	4051	;# 
   387   000FD5                     T0CON           equ	4053	;# 
   388   000FD6                     TMR0            equ	4054	;# 
   389   000FD6                     TMR0L           equ	4054	;# 
   390   000FD7                     TMR0H           equ	4055	;# 
   391   000FD8                     STATUS          equ	4056	;# 
   392   000FD9                     FSR2            equ	4057	;# 
   393   000FD9                     FSR2L           equ	4057	;# 
   394   000FDA                     FSR2H           equ	4058	;# 
   395   000FDB                     PLUSW2          equ	4059	;# 
   396   000FDC                     PREINC2         equ	4060	;# 
   397   000FDD                     POSTDEC2        equ	4061	;# 
   398   000FDE                     POSTINC2        equ	4062	;# 
   399   000FDF                     INDF2           equ	4063	;# 
   400   000FE0                     BSR             equ	4064	;# 
   401   000FE1                     FSR1            equ	4065	;# 
   402   000FE1                     FSR1L           equ	4065	;# 
   403   000FE2                     FSR1H           equ	4066	;# 
   404   000FE3                     PLUSW1          equ	4067	;# 
   405   000FE4                     PREINC1         equ	4068	;# 
   406   000FE5                     POSTDEC1        equ	4069	;# 
   407   000FE6                     POSTINC1        equ	4070	;# 
   408   000FE7                     INDF1           equ	4071	;# 
   409   000FE8                     WREG            equ	4072	;# 
   410   000FE9                     FSR0            equ	4073	;# 
   411   000FE9                     FSR0L           equ	4073	;# 
   412   000FEA                     FSR0H           equ	4074	;# 
   413   000FEB                     PLUSW0          equ	4075	;# 
   414   000FEC                     PREINC0         equ	4076	;# 
   415   000FED                     POSTDEC0        equ	4077	;# 
   416   000FEE                     POSTINC0        equ	4078	;# 
   417   000FEF                     INDF0           equ	4079	;# 
   418   000FF0                     INTCON3         equ	4080	;# 
   419   000FF1                     INTCON2         equ	4081	;# 
   420   000FF2                     INTCON          equ	4082	;# 
   421   000FF3                     PROD            equ	4083	;# 
   422   000FF3                     PRODL           equ	4083	;# 
   423   000FF4                     PRODH           equ	4084	;# 
   424   000FF5                     TABLAT          equ	4085	;# 
   425   000FF6                     TBLPTR          equ	4086	;# 
   426   000FF6                     TBLPTRL         equ	4086	;# 
   427   000FF7                     TBLPTRH         equ	4087	;# 
   428   000FF8                     TBLPTRU         equ	4088	;# 
   429   000FF9                     PCLAT           equ	4089	;# 
   430   000FF9                     PC              equ	4089	;# 
   431   000FF9                     PCL             equ	4089	;# 
   432   000FFA                     PCLATH          equ	4090	;# 
   433   000FFB                     PCLATU          equ	4091	;# 
   434   000FFC                     STKPTR          equ	4092	;# 
   435   000FFD                     TOS             equ	4093	;# 
   436   000FFD                     TOSL            equ	4093	;# 
   437   000FFE                     TOSH            equ	4094	;# 
   438   000FFF                     TOSU            equ	4095	;# 
   439   000F62                     SPPDATA         equ	3938	;# 
   440   000F63                     SPPCFG          equ	3939	;# 
   441   000F64                     SPPEPS          equ	3940	;# 
   442   000F65                     SPPCON          equ	3941	;# 
   443   000F66                     UFRM            equ	3942	;# 
   444   000F66                     UFRML           equ	3942	;# 
   445   000F67                     UFRMH           equ	3943	;# 
   446   000F68                     UIR             equ	3944	;# 
   447   000F69                     UIE             equ	3945	;# 
   448   000F6A                     UEIR            equ	3946	;# 
   449   000F6B                     UEIE            equ	3947	;# 
   450   000F6C                     USTAT           equ	3948	;# 
   451   000F6D                     UCON            equ	3949	;# 
   452   000F6E                     UADDR           equ	3950	;# 
   453   000F6F                     UCFG            equ	3951	;# 
   454   000F70                     UEP0            equ	3952	;# 
   455   000F71                     UEP1            equ	3953	;# 
   456   000F72                     UEP2            equ	3954	;# 
   457   000F73                     UEP3            equ	3955	;# 
   458   000F74                     UEP4            equ	3956	;# 
   459   000F75                     UEP5            equ	3957	;# 
   460   000F76                     UEP6            equ	3958	;# 
   461   000F77                     UEP7            equ	3959	;# 
   462   000F78                     UEP8            equ	3960	;# 
   463   000F79                     UEP9            equ	3961	;# 
   464   000F7A                     UEP10           equ	3962	;# 
   465   000F7B                     UEP11           equ	3963	;# 
   466   000F7C                     UEP12           equ	3964	;# 
   467   000F7D                     UEP13           equ	3965	;# 
   468   000F7E                     UEP14           equ	3966	;# 
   469   000F7F                     UEP15           equ	3967	;# 
   470   000F80                     PORTA           equ	3968	;# 
   471   000F81                     PORTB           equ	3969	;# 
   472   000F82                     PORTC           equ	3970	;# 
   473   000F83                     PORTD           equ	3971	;# 
   474   000F84                     PORTE           equ	3972	;# 
   475   000F89                     LATA            equ	3977	;# 
   476   000F8A                     LATB            equ	3978	;# 
   477   000F8B                     LATC            equ	3979	;# 
   478   000F8C                     LATD            equ	3980	;# 
   479   000F8D                     LATE            equ	3981	;# 
   480   000F92                     TRISA           equ	3986	;# 
   481   000F92                     DDRA            equ	3986	;# 
   482   000F93                     TRISB           equ	3987	;# 
   483   000F93                     DDRB            equ	3987	;# 
   484   000F94                     TRISC           equ	3988	;# 
   485   000F94                     DDRC            equ	3988	;# 
   486   000F95                     TRISD           equ	3989	;# 
   487   000F95                     DDRD            equ	3989	;# 
   488   000F96                     TRISE           equ	3990	;# 
   489   000F96                     DDRE            equ	3990	;# 
   490   000F9B                     OSCTUNE         equ	3995	;# 
   491   000F9D                     PIE1            equ	3997	;# 
   492   000F9E                     PIR1            equ	3998	;# 
   493   000F9F                     IPR1            equ	3999	;# 
   494   000FA0                     PIE2            equ	4000	;# 
   495   000FA1                     PIR2            equ	4001	;# 
   496   000FA2                     IPR2            equ	4002	;# 
   497   000FA6                     EECON1          equ	4006	;# 
   498   000FA7                     EECON2          equ	4007	;# 
   499   000FA8                     EEDATA          equ	4008	;# 
   500   000FA9                     EEADR           equ	4009	;# 
   501   000FAB                     RCSTA           equ	4011	;# 
   502   000FAB                     RCSTA1          equ	4011	;# 
   503   000FAC                     TXSTA           equ	4012	;# 
   504   000FAC                     TXSTA1          equ	4012	;# 
   505   000FAD                     TXREG           equ	4013	;# 
   506   000FAD                     TXREG1          equ	4013	;# 
   507   000FAE                     RCREG           equ	4014	;# 
   508   000FAE                     RCREG1          equ	4014	;# 
   509   000FAF                     SPBRG           equ	4015	;# 
   510   000FAF                     SPBRG1          equ	4015	;# 
   511   000FB0                     SPBRGH          equ	4016	;# 
   512   000FB1                     T3CON           equ	4017	;# 
   513   000FB2                     TMR3            equ	4018	;# 
   514   000FB2                     TMR3L           equ	4018	;# 
   515   000FB3                     TMR3H           equ	4019	;# 
   516   000FB4                     CMCON           equ	4020	;# 
   517   000FB5                     CVRCON          equ	4021	;# 
   518   000FB6                     ECCP1AS         equ	4022	;# 
   519   000FB6                     CCP1AS          equ	4022	;# 
   520   000FB7                     ECCP1DEL        equ	4023	;# 
   521   000FB7                     CCP1DEL         equ	4023	;# 
   522   000FB8                     BAUDCON         equ	4024	;# 
   523   000FB8                     BAUDCTL         equ	4024	;# 
   524   000FBA                     CCP2CON         equ	4026	;# 
   525   000FBB                     CCPR2           equ	4027	;# 
   526   000FBB                     CCPR2L          equ	4027	;# 
   527   000FBC                     CCPR2H          equ	4028	;# 
   528   000FBD                     CCP1CON         equ	4029	;# 
   529   000FBD                     ECCP1CON        equ	4029	;# 
   530   000FBE                     CCPR1           equ	4030	;# 
   531   000FBE                     CCPR1L          equ	4030	;# 
   532   000FBF                     CCPR1H          equ	4031	;# 
   533   000FC0                     ADCON2          equ	4032	;# 
   534   000FC1                     ADCON1          equ	4033	;# 
   535   000FC2                     ADCON0          equ	4034	;# 
   536   000FC3                     ADRES           equ	4035	;# 
   537   000FC3                     ADRESL          equ	4035	;# 
   538   000FC4                     ADRESH          equ	4036	;# 
   539   000FC5                     SSPCON2         equ	4037	;# 
   540   000FC6                     SSPCON1         equ	4038	;# 
   541   000FC7                     SSPSTAT         equ	4039	;# 
   542   000FC8                     SSPADD          equ	4040	;# 
   543   000FC9                     SSPBUF          equ	4041	;# 
   544   000FCA                     T2CON           equ	4042	;# 
   545   000FCB                     PR2             equ	4043	;# 
   546   000FCB                     MEMCON          equ	4043	;# 
   547   000FCC                     TMR2            equ	4044	;# 
   548   000FCD                     T1CON           equ	4045	;# 
   549   000FCE                     TMR1            equ	4046	;# 
   550   000FCE                     TMR1L           equ	4046	;# 
   551   000FCF                     TMR1H           equ	4047	;# 
   552   000FD0                     RCON            equ	4048	;# 
   553   000FD1                     WDTCON          equ	4049	;# 
   554   000FD2                     HLVDCON         equ	4050	;# 
   555   000FD2                     LVDCON          equ	4050	;# 
   556   000FD3                     OSCCON          equ	4051	;# 
   557   000FD5                     T0CON           equ	4053	;# 
   558   000FD6                     TMR0            equ	4054	;# 
   559   000FD6                     TMR0L           equ	4054	;# 
   560   000FD7                     TMR0H           equ	4055	;# 
   561   000FD8                     STATUS          equ	4056	;# 
   562   000FD9                     FSR2            equ	4057	;# 
   563   000FD9                     FSR2L           equ	4057	;# 
   564   000FDA                     FSR2H           equ	4058	;# 
   565   000FDB                     PLUSW2          equ	4059	;# 
   566   000FDC                     PREINC2         equ	4060	;# 
   567   000FDD                     POSTDEC2        equ	4061	;# 
   568   000FDE                     POSTINC2        equ	4062	;# 
   569   000FDF                     INDF2           equ	4063	;# 
   570   000FE0                     BSR             equ	4064	;# 
   571   000FE1                     FSR1            equ	4065	;# 
   572   000FE1                     FSR1L           equ	4065	;# 
   573   000FE2                     FSR1H           equ	4066	;# 
   574   000FE3                     PLUSW1          equ	4067	;# 
   575   000FE4                     PREINC1         equ	4068	;# 
   576   000FE5                     POSTDEC1        equ	4069	;# 
   577   000FE6                     POSTINC1        equ	4070	;# 
   578   000FE7                     INDF1           equ	4071	;# 
   579   000FE8                     WREG            equ	4072	;# 
   580   000FE9                     FSR0            equ	4073	;# 
   581   000FE9                     FSR0L           equ	4073	;# 
   582   000FEA                     FSR0H           equ	4074	;# 
   583   000FEB                     PLUSW0          equ	4075	;# 
   584   000FEC                     PREINC0         equ	4076	;# 
   585   000FED                     POSTDEC0        equ	4077	;# 
   586   000FEE                     POSTINC0        equ	4078	;# 
   587   000FEF                     INDF0           equ	4079	;# 
   588   000FF0                     INTCON3         equ	4080	;# 
   589   000FF1                     INTCON2         equ	4081	;# 
   590   000FF2                     INTCON          equ	4082	;# 
   591   000FF3                     PROD            equ	4083	;# 
   592   000FF3                     PRODL           equ	4083	;# 
   593   000FF4                     PRODH           equ	4084	;# 
   594   000FF5                     TABLAT          equ	4085	;# 
   595   000FF6                     TBLPTR          equ	4086	;# 
   596   000FF6                     TBLPTRL         equ	4086	;# 
   597   000FF7                     TBLPTRH         equ	4087	;# 
   598   000FF8                     TBLPTRU         equ	4088	;# 
   599   000FF9                     PCLAT           equ	4089	;# 
   600   000FF9                     PC              equ	4089	;# 
   601   000FF9                     PCL             equ	4089	;# 
   602   000FFA                     PCLATH          equ	4090	;# 
   603   000FFB                     PCLATU          equ	4091	;# 
   604   000FFC                     STKPTR          equ	4092	;# 
   605   000FFD                     TOS             equ	4093	;# 
   606   000FFD                     TOSL            equ	4093	;# 
   607   000FFE                     TOSH            equ	4094	;# 
   608   000FFF                     TOSU            equ	4095	;# 
   609                           
   610                           	psect	mediumconst
   611   007E7E                     __pmediumconst:
   612                           	callstack 0
   613   007E7E  00                 	db	0
   614   007E7F                     _font5x7:
   615                           	callstack 0
   616   007E7F  00                 	db	0
   617   007E80  00                 	db	0
   618   007E81  00                 	db	0
   619   007E82  00                 	db	0
   620   007E83  00                 	db	0
   621   007E84  3E                 	db	62
   622   007E85  51                 	db	81
   623   007E86  49                 	db	73
   624   007E87  45                 	db	69
   625   007E88  3E                 	db	62
   626   007E89  00                 	db	0
   627   007E8A  42                 	db	66
   628   007E8B  7F                 	db	127
   629   007E8C  40                 	db	64
   630   007E8D  00                 	db	0
   631   007E8E  42                 	db	66
   632   007E8F  61                 	db	97
   633   007E90  51                 	db	81
   634   007E91  49                 	db	73
   635   007E92  46                 	db	70
   636   007E93  21                 	db	33
   637   007E94  41                 	db	65
   638   007E95  45                 	db	69
   639   007E96  4B                 	db	75
   640   007E97  31                 	db	49
   641   007E98  18                 	db	24
   642   007E99  14                 	db	20
   643   007E9A  12                 	db	18
   644   007E9B  7F                 	db	127
   645   007E9C  10                 	db	16
   646   007E9D  27                 	db	39
   647   007E9E  45                 	db	69
   648   007E9F  45                 	db	69
   649   007EA0  45                 	db	69
   650   007EA1  39                 	db	57
   651   007EA2  3C                 	db	60
   652   007EA3  4A                 	db	74
   653   007EA4  49                 	db	73
   654   007EA5  49                 	db	73
   655   007EA6  30                 	db	48
   656   007EA7  01                 	db	1
   657   007EA8  71                 	db	113
   658   007EA9  09                 	db	9
   659   007EAA  05                 	db	5
   660   007EAB  03                 	db	3
   661   007EAC  36                 	db	54
   662   007EAD  49                 	db	73
   663   007EAE  49                 	db	73
   664   007EAF  49                 	db	73
   665   007EB0  36                 	db	54
   666   007EB1  06                 	db	6
   667   007EB2  49                 	db	73
   668   007EB3  49                 	db	73
   669   007EB4  29                 	db	41
   670   007EB5  1E                 	db	30
   671   007EB6  7E                 	db	126
   672   007EB7  11                 	db	17
   673   007EB8  11                 	db	17
   674   007EB9  11                 	db	17
   675   007EBA  7E                 	db	126
   676   007EBB  7F                 	db	127
   677   007EBC  49                 	db	73
   678   007EBD  49                 	db	73
   679   007EBE  49                 	db	73
   680   007EBF  36                 	db	54
   681   007EC0  3E                 	db	62
   682   007EC1  41                 	db	65
   683   007EC2  41                 	db	65
   684   007EC3  41                 	db	65
   685   007EC4  22                 	db	34
   686   007EC5  7F                 	db	127
   687   007EC6  41                 	db	65
   688   007EC7  41                 	db	65
   689   007EC8  22                 	db	34
   690   007EC9  1C                 	db	28
   691   007ECA  7F                 	db	127
   692   007ECB  49                 	db	73
   693   007ECC  49                 	db	73
   694   007ECD  49                 	db	73
   695   007ECE  41                 	db	65
   696   007ECF  7F                 	db	127
   697   007ED0  09                 	db	9
   698   007ED1  09                 	db	9
   699   007ED2  09                 	db	9
   700   007ED3  01                 	db	1
   701   007ED4  3E                 	db	62
   702   007ED5  41                 	db	65
   703   007ED6  49                 	db	73
   704   007ED7  49                 	db	73
   705   007ED8  7A                 	db	122
   706   007ED9  7F                 	db	127
   707   007EDA  08                 	db	8
   708   007EDB  08                 	db	8
   709   007EDC  08                 	db	8
   710   007EDD  7F                 	db	127
   711   007EDE  00                 	db	0
   712   007EDF  41                 	db	65
   713   007EE0  7F                 	db	127
   714   007EE1  41                 	db	65
   715   007EE2  00                 	db	0
   716   007EE3  20                 	db	32
   717   007EE4  40                 	db	64
   718   007EE5  41                 	db	65
   719   007EE6  3F                 	db	63
   720   007EE7  01                 	db	1
   721   007EE8  7F                 	db	127
   722   007EE9  08                 	db	8
   723   007EEA  14                 	db	20
   724   007EEB  22                 	db	34
   725   007EEC  41                 	db	65
   726   007EED  7F                 	db	127
   727   007EEE  40                 	db	64
   728   007EEF  40                 	db	64
   729   007EF0  40                 	db	64
   730   007EF1  40                 	db	64
   731   007EF2  7F                 	db	127
   732   007EF3  02                 	db	2
   733   007EF4  0C                 	db	12
   734   007EF5  02                 	db	2
   735   007EF6  7F                 	db	127
   736   007EF7  7F                 	db	127
   737   007EF8  04                 	db	4
   738   007EF9  08                 	db	8
   739   007EFA  10                 	db	16
   740   007EFB  7F                 	db	127
   741   007EFC  3E                 	db	62
   742   007EFD  41                 	db	65
   743   007EFE  41                 	db	65
   744   007EFF  41                 	db	65
   745   007F00  3E                 	db	62
   746   007F01  7F                 	db	127
   747   007F02  09                 	db	9
   748   007F03  09                 	db	9
   749   007F04  09                 	db	9
   750   007F05  06                 	db	6
   751   007F06  3E                 	db	62
   752   007F07  41                 	db	65
   753   007F08  51                 	db	81
   754   007F09  21                 	db	33
   755   007F0A  5E                 	db	94
   756   007F0B  7F                 	db	127
   757   007F0C  09                 	db	9
   758   007F0D  19                 	db	25
   759   007F0E  29                 	db	41
   760   007F0F  46                 	db	70
   761   007F10  46                 	db	70
   762   007F11  49                 	db	73
   763   007F12  49                 	db	73
   764   007F13  49                 	db	73
   765   007F14  31                 	db	49
   766   007F15  01                 	db	1
   767   007F16  01                 	db	1
   768   007F17  7F                 	db	127
   769   007F18  01                 	db	1
   770   007F19  01                 	db	1
   771   007F1A  3F                 	db	63
   772   007F1B  40                 	db	64
   773   007F1C  40                 	db	64
   774   007F1D  40                 	db	64
   775   007F1E  3F                 	db	63
   776   007F1F  1F                 	db	31
   777   007F20  20                 	db	32
   778   007F21  40                 	db	64
   779   007F22  20                 	db	32
   780   007F23  1F                 	db	31
   781   007F24  3F                 	db	63
   782   007F25  40                 	db	64
   783   007F26  38                 	db	56
   784   007F27  40                 	db	64
   785   007F28  3F                 	db	63
   786   007F29  63                 	db	99
   787   007F2A  14                 	db	20
   788   007F2B  08                 	db	8
   789   007F2C  14                 	db	20
   790   007F2D  63                 	db	99
   791   007F2E  07                 	db	7
   792   007F2F  08                 	db	8
   793   007F30  70                 	db	112
   794   007F31  08                 	db	8
   795   007F32  07                 	db	7
   796   007F33  61                 	db	97
   797   007F34  51                 	db	81
   798   007F35  49                 	db	73
   799   007F36  45                 	db	69
   800   007F37  43                 	db	67
   801   007F38  00                 	db	0
   802   007F39  00                 	db	0
   803   007F3A  5F                 	db	95
   804   007F3B  00                 	db	0
   805   007F3C  00                 	db	0
   806   007F3D  00                 	db	0
   807   007F3E  06                 	db	6
   808   007F3F  09                 	db	9
   809   007F40  09                 	db	9
   810   007F41  06                 	db	6
   811   007F42  00                 	db	0
   812   007F43  00                 	db	0
   813   007F44  08                 	db	8
   814   007F45  00                 	db	0
   815   007F46  00                 	db	0
   816   007F47                     __end_of_font5x7:
   817                           	callstack 0
   818   000F8C                     _LATDbits       set	3980
   819   000FC1                     _ADCON1         set	4033
   820   000FB4                     _CMCON          set	4020
   821   000F8A                     _LATB           set	3978
   822   000F93                     _TRISB          set	3987
   823   000F8C                     _LATD           set	3980
   824   000F95                     _TRISD          set	3989
   825   000FD3                     _OSCCONbits     set	4051
   826   000FD3                     _OSCCON         set	4051
   827   000F81                     _PORTBbits      set	3969
   828   000FF1                     _INTCON2bits    set	4081
   829   000F8A                     _LATBbits       set	3978
   830   000F93                     _TRISBbits      set	3987
   831   007F47  50                 	db	80	;'P'
   832   007F48  45                 	db	69	;'E'
   833   007F49  52                 	db	82	;'R'
   834   007F4A  46                 	db	70	;'F'
   835   007F4B  49                 	db	73	;'I'
   836   007F4C  4C                 	db	76	;'L'
   837   007F4D  3A                 	db	58	;':'
   838   007F4E  20                 	db	32
   839   007F4F  44                 	db	68	;'D'
   840   007F50  45                 	db	69	;'E'
   841   007F51  50                 	db	80	;'P'
   842   007F52  4F                 	db	79	;'O'
   843   007F53  52                 	db	82	;'R'
   844   007F54  20                 	db	32
   845   007F55  20                 	db	32
   846   007F56  00                 	db	0
   847   007F57  50                 	db	80	;'P'
   848   007F58  45                 	db	69	;'E'
   849   007F59  52                 	db	82	;'R'
   850   007F5A  46                 	db	70	;'F'
   851   007F5B  49                 	db	73	;'I'
   852   007F5C  4C                 	db	76	;'L'
   853   007F5D  3A                 	db	58	;':'
   854   007F5E  20                 	db	32
   855   007F5F  4E                 	db	78	;'N'
   856   007F60  4F                 	db	79	;'O'
   857   007F61  52                 	db	82	;'R'
   858   007F62  4D                 	db	77	;'M'
   859   007F63  41                 	db	65	;'A'
   860   007F64  4C                 	db	76	;'L'
   861   007F65  20                 	db	32
   862   007F66  00                 	db	0
   863   007F67  53                 	db	83	;'S'
   864   007F68  49                 	db	73	;'I'
   865   007F69  47                 	db	71	;'G'
   866   007F6A  4E                 	db	78	;'N'
   867   007F6B  4F                 	db	79	;'O'
   868   007F6C  53                 	db	83	;'S'
   869   007F6D  20                 	db	32
   870   007F6E  56                 	db	86	;'V'
   871   007F6F  49                 	db	73	;'I'
   872   007F70  54                 	db	84	;'T'
   873   007F71  41                 	db	65	;'A'
   874   007F72  4C                 	db	76	;'L'
   875   007F73  45                 	db	69	;'E'
   876   007F74  53                 	db	83	;'S'
   877   007F75  00                 	db	0
   878   007F76  41                 	db	65	;'A'
   879   007F77  4C                 	db	76	;'L'
   880   007F78  41                 	db	65	;'A'
   881   007F79  52                 	db	82	;'R'
   882   007F7A  4D                 	db	77	;'M'
   883   007F7B  41                 	db	65	;'A'
   884   007F7C  20                 	db	32
   885   007F7D  41                 	db	65	;'A'
   886   007F7E  43                 	db	67	;'C'
   887   007F7F  54                 	db	84	;'T'
   888   007F80  49                 	db	73	;'I'
   889   007F81  56                 	db	86	;'V'
   890   007F82  41                 	db	65	;'A'
   891   007F83  00                 	db	0
   892   007F84  42                 	db	66	;'B'
   893   007F85  54                 	db	84	;'T'
   894   007F86  4E                 	db	78	;'N'
   895   007F87  3A                 	db	58	;':'
   896   007F88  20                 	db	32
   897   007F89  52                 	db	82	;'R'
   898   007F8A  45                 	db	69	;'E'
   899   007F8B  41                 	db	65	;'A'
   900   007F8C  4E                 	db	78	;'N'
   901   007F8D  55                 	db	85	;'U'
   902   007F8E  44                 	db	68	;'D'
   903   007F8F  41                 	db	65	;'A'
   904   007F90  52                 	db	82	;'R'
   905   007F91  00                 	db	0
   906   007F92                     STR_4:
   907   007F92  49                 	db	73	;'I'
   908   007F93  4E                 	db	78	;'N'
   909   007F94  49                 	db	73	;'I'
   910   007F95  43                 	db	67	;'C'
   911   007F96  49                 	db	73	;'I'
   912   007F97  41                 	db	65	;'A'
   913   007F98  4E                 	db	78	;'N'
   914   007F99  44                 	db	68	;'D'
   915   007F9A  4F                 	db	79	;'O'
   916   007F9B  2E                 	db	46
   917   007F9C  2E                 	db	46
   918   007F9D  2E                 	db	46
   919   007F9E  00                 	db	0
   920   007F9F                     STR_2:
   921   007F9F  50                 	db	80	;'P'
   922   007FA0  49                 	db	73	;'I'
   923   007FA1  43                 	db	67	;'C'
   924   007FA2  31                 	db	49	;'1'
   925   007FA3  38                 	db	56	;'8'
   926   007FA4  46                 	db	70	;'F'
   927   007FA5  34                 	db	52	;'4'
   928   007FA6  35                 	db	53	;'5'
   929   007FA7  35                 	db	53	;'5'
   930   007FA8  30                 	db	48	;'0'
   931   007FA9  00                 	db	0
   932   007FAA  49                 	db	73	;'I'
   933   007FAB  32                 	db	50	;'2'
   934   007FAC  43                 	db	67	;'C'
   935   007FAD  20                 	db	32
   936   007FAE  59                 	db	89	;'Y'
   937   007FAF  20                 	db	32
   938   007FB0  55                 	db	85	;'U'
   939   007FB1  41                 	db	65	;'A'
   940   007FB2  52                 	db	82	;'R'
   941   007FB3  54                 	db	84	;'T'
   942   007FB4  00                 	db	0
   943   007FB5                     STR_17:
   944   007FB5  43                 	db	67	;'C'
   945   007FB6  41                 	db	65	;'A'
   946   007FB7  52                 	db	82	;'R'
   947   007FB8  44                 	db	68	;'D'
   948   007FB9  49                 	db	73	;'I'
   949   007FBA  4F                 	db	79	;'O'
   950   007FBB  2E                 	db	46
   951   007FBC  58                 	db	88	;'X'
   952   007FBD  00                 	db	0
   953   007FBE  45                 	db	69	;'E'
   954   007FBF  4E                 	db	78	;'N'
   955   007FC0  20                 	db	32
   956   007FC1  50                 	db	80	;'P'
   957   007FC2  41                 	db	65	;'A'
   958   007FC3  55                 	db	85	;'U'
   959   007FC4  53                 	db	83	;'S'
   960   007FC5  41                 	db	65	;'A'
   961   007FC6  00                 	db	0
   962   007FC7  52                 	db	82	;'R'
   963   007FC8  45                 	db	69	;'E'
   964   007FC9  49                 	db	73	;'I'
   965   007FCA  4E                 	db	78	;'N'
   966   007FCB  49                 	db	73	;'I'
   967   007FCC  43                 	db	67	;'C'
   968   007FCD  49                 	db	73	;'I'
   969   007FCE  45                 	db	69	;'E'
   970   007FCF  00                 	db	0
   971   007FD0                     STR_18:
   972   007FD0  4F                 	db	79	;'O'
   973   007FD1  4C                 	db	76	;'L'
   974   007FD2  45                 	db	69	;'E'
   975   007FD3  44                 	db	68	;'D'
   976   007FD4  20                 	db	32
   977   007FD5  4F                 	db	79	;'O'
   978   007FD6  4B                 	db	75	;'K'
   979   007FD7  00                 	db	0
   980   007FD8  53                 	db	83	;'S'
   981   007FD9  49                 	db	73	;'I'
   982   007FDA  53                 	db	83	;'S'
   983   007FDB  54                 	db	84	;'T'
   984   007FDC  45                 	db	69	;'E'
   985   007FDD  4D                 	db	77	;'M'
   986   007FDE  41                 	db	65	;'A'
   987   007FDF  00                 	db	0
   988   007FE0  42                 	db	66	;'B'
   989   007FE1  50                 	db	80	;'P'
   990   007FE2  4D                 	db	77	;'M'
   991   007FE3  3A                 	db	58	;':'
   992   007FE4  20                 	db	32
   993   007FE5  20                 	db	32
   994   007FE6  00                 	db	0
   995   007FE7  54                 	db	84	;'T'
   996   007FE8  45                 	db	69	;'E'
   997   007FE9  4D                 	db	77	;'M'
   998   007FEA  50                 	db	80	;'P'
   999   007FEB  3A                 	db	58	;':'
  1000   007FEC  20                 	db	32
  1001   007FED  00                 	db	0
  1002   007FEE  4E                 	db	78	;'N'
  1003   007FEF  4F                 	db	79	;'O'
  1004   007FF0  52                 	db	82	;'R'
  1005   007FF1  4D                 	db	77	;'M'
  1006   007FF2  41                 	db	65	;'A'
  1007   007FF3  4C                 	db	76	;'L'
  1008   007FF4  00                 	db	0
  1009   007FF5  45                 	db	69	;'E'
  1010   007FF6  52                 	db	82	;'R'
  1011   007FF7  52                 	db	82	;'R'
  1012   007FF8  4F                 	db	79	;'O'
  1013   007FF9  52                 	db	82	;'R'
  1014   007FFA  00                 	db	0
  1015   007F9F                     STR_19          equ	STR_2
  1016   007F9D                     STR_8           equ	STR_4+11
  1017   007FFB  00                 	db	0	; dummy byte at the end
  1018   007E7E                     __smallconst    set	__pmediumconst
  1019   007E7E                     __mediumconst   set	__pmediumconst
  1020   000002                     __activetblptr  equ	2
  1021                           
  1022                           ; #config settings
  1023                           
  1024                           	psect	cinit
  1025   0079DE                     __pcinit:
  1026                           	callstack 0
  1027   0079DE                     start_initialization:
  1028                           	callstack 0
  1029   0079DE                     __initialization:
  1030                           	callstack 0
  1031   0079DE                     end_of_initialization:
  1032                           	callstack 0
  1033   0079DE                     __end_of__initialization:
  1034                           	callstack 0
  1035   0079DE  0E00               	movlw	low (__Lmediumconst shr (0+16))
  1036   0079E0  6EF8               	movwf	tblptru,c
  1037   0079E2  0100               	movlb	0
  1038   0079E4  EFF8  F03D         	goto	_main	;jump to C main() function
  1039                           
  1040                           	psect	cstackCOMRAM
  1041   000001                     __pcstackCOMRAM:
  1042                           	callstack 0
  1043   000001                     ??_I2C_Write:
  1044   000001                     ??_setup:
  1045                           
  1046                           ; 1 bytes @ 0x0
  1047   000001                     	ds	1
  1048   000002                     I2C_Write@data:
  1049                           	callstack 0
  1050                           
  1051                           ; 1 bytes @ 0x1
  1052   000002                     	ds	1
  1053   000003                     I2C_Write@i:
  1054                           	callstack 0
  1055                           
  1056                           ; 1 bytes @ 0x2
  1057   000003                     	ds	1
  1058   000004                     OLED_Command@cmd:
  1059                           	callstack 0
  1060   000004                     ??_OLED_WriteChar:
  1061                           
  1062                           ; 1 bytes @ 0x3
  1063   000004                     	ds	1
  1064   000005                     OLED_Clear@i:
  1065                           	callstack 0
  1066   000005                     OLED_SetCursor@page:
  1067                           	callstack 0
  1068   000005                     ??_OLED_Init:
  1069   000005                     
  1070                           ; 1 bytes @ 0x4
  1071   000005                     	ds	1
  1072   000006                     OLED_Clear@page:
  1073                           	callstack 0
  1074   000006                     OLED_SetCursor@col:
  1075                           	callstack 0
  1076   000006                     
  1077                           ; 1 bytes @ 0x5
  1078   000006                     	ds	2
  1079   000008                     OLED_WriteChar@index:
  1080                           	callstack 0
  1081                           
  1082                           ; 2 bytes @ 0x7
  1083   000008                     	ds	2
  1084   00000A                     OLED_WriteChar@i:
  1085                           	callstack 0
  1086                           
  1087                           ; 1 bytes @ 0x9
  1088   00000A                     	ds	1
  1089   00000B                     OLED_WriteChar@c:
  1090                           	callstack 0
  1091                           
  1092                           ; 1 bytes @ 0xA
  1093   00000B                     	ds	1
  1094   00000C                     OLED_WriteString@str:
  1095                           	callstack 0
  1096                           
  1097                           ; 2 bytes @ 0xB
  1098   00000C                     	ds	2
  1099   00000E                     ??_main:
  1100                           
  1101                           ; 1 bytes @ 0xD
  1102   00000E                     	ds	2
  1103                           
  1104 ;;
  1105 ;;Main: autosize = 0, tempsize = 2, incstack = 0, save=0
  1106 ;;
  1107 ;; *************** function _main *****************
  1108 ;; Defined at:
  1109 ;;		line 30 in file "main.c"
  1110 ;; Parameters:    Size  Location     Type
  1111 ;;		None
  1112 ;; Auto vars:     Size  Location     Type
  1113 ;;		None
  1114 ;; Return value:  Size  Location     Type
  1115 ;;                  1    wreg      void 
  1116 ;; Registers used:
  1117 ;;		wreg, fsr0l, fsr0h, status,2, status,0, tblptrl, tblptrh, tblptru, prodl, prodh, cstack
  1118 ;; Tracked objects:
  1119 ;;		On entry : 0/0
  1120 ;;		On exit  : 0/0
  1121 ;;		Unchanged: 0/0
  1122 ;; Data sizes:     COMRAM   BANK0   BANK1   BANK2   BANK3   BANK4   BANK5   BANK6   BANK7
  1123 ;;      Params:         0       0       0       0       0       0       0       0       0
  1124 ;;      Locals:         0       0       0       0       0       0       0       0       0
  1125 ;;      Temps:          2       0       0       0       0       0       0       0       0
  1126 ;;      Totals:         2       0       0       0       0       0       0       0       0
  1127 ;;Total ram usage:        2 bytes
  1128 ;; Hardware stack levels required when called: 3
  1129 ;; This function calls:
  1130 ;;		_I2C_Init
  1131 ;;		_OLED_Clear
  1132 ;;		_OLED_Init
  1133 ;;		_OLED_SetCursor
  1134 ;;		_OLED_WriteString
  1135 ;;		_setup
  1136 ;; This function is called by:
  1137 ;;		Startup code after reset
  1138 ;; This function uses a non-reentrant model
  1139 ;;
  1140                           
  1141                           	psect	text0
  1142   007BF0                     __ptext0:
  1143                           	callstack 0
  1144   007BF0                     _main:
  1145                           	callstack 28
  1146   007BF0                     
  1147                           ;main.c: 31:     setup();
  1148   007BF0  EC41  F03D         	call	_setup	;wreg free
  1149   007BF4                     
  1150                           ;main.c: 32:     I2C_Init();
  1151   007BF4  ECF4  F03C         	call	_I2C_Init	;wreg free
  1152   007BF8                     
  1153                           ;main.c: 33:     OLED_Init();
  1154   007BF8  EC3E  F03E         	call	_OLED_Init	;wreg free
  1155   007BFC                     
  1156                           ;main.c: 35:     OLED_Clear();
  1157   007BFC  EC61  F03D         	call	_OLED_Clear	;wreg free
  1158   007C00                     
  1159                           ;main.c: 36:     OLED_SetCursor(0, 0);
  1160   007C00  0E00               	movlw	0
  1161   007C02  6E05               	movwf	OLED_SetCursor@page^0,c
  1162   007C04  0E00               	movlw	0
  1163   007C06  EC1A  F03D         	call	_OLED_SetCursor
  1164   007C0A                     
  1165                           ;main.c: 37:     OLED_WriteString("CARDIO.X");
  1166   007C0A  0EB5               	movlw	low STR_17
  1167   007C0C  6E0C               	movwf	OLED_WriteString@str^0,c
  1168   007C0E  0E7F               	movlw	high STR_17
  1169   007C10  6E0D               	movwf	(OLED_WriteString@str+1)^0,c
  1170   007C12  EC8D  F03D         	call	_OLED_WriteString	;wreg free
  1171   007C16                     
  1172                           ;main.c: 38:     OLED_SetCursor(0, 2);
  1173   007C16  0E02               	movlw	2
  1174   007C18  6E05               	movwf	OLED_SetCursor@page^0,c
  1175   007C1A  0E00               	movlw	0
  1176   007C1C  EC1A  F03D         	call	_OLED_SetCursor
  1177   007C20                     
  1178                           ;main.c: 39:     OLED_WriteString("OLED OK");
  1179   007C20  0ED0               	movlw	low STR_18
  1180   007C22  6E0C               	movwf	OLED_WriteString@str^0,c
  1181   007C24  0E7F               	movlw	high STR_18
  1182   007C26  6E0D               	movwf	(OLED_WriteString@str+1)^0,c
  1183   007C28  EC8D  F03D         	call	_OLED_WriteString	;wreg free
  1184   007C2C                     
  1185                           ;main.c: 40:     OLED_SetCursor(0, 4);
  1186   007C2C  0E04               	movlw	4
  1187   007C2E  6E05               	movwf	OLED_SetCursor@page^0,c
  1188   007C30  0E00               	movlw	0
  1189   007C32  EC1A  F03D         	call	_OLED_SetCursor
  1190   007C36                     
  1191                           ;main.c: 41:     OLED_WriteString("PIC18F4550");
  1192   007C36  0E9F               	movlw	low STR_2
  1193   007C38  6E0C               	movwf	OLED_WriteString@str^0,c
  1194   007C3A  0E7F               	movlw	high STR_2
  1195   007C3C  6E0D               	movwf	(OLED_WriteString@str+1)^0,c
  1196   007C3E  EC8D  F03D         	call	_OLED_WriteString	;wreg free
  1197   007C42                     
  1198                           ;main.c: 43:     LATDbits.LATD0 = 1;
  1199   007C42  808C               	bsf	140,0,c	;volatile
  1200   007C44                     l1491:
  1201                           
  1202                           ;main.c: 46:         LATDbits.LATD2 = 1;
  1203   007C44  848C               	bsf	140,2,c	;volatile
  1204   007C46                     
  1205                           ;main.c: 47:         _delay((unsigned long)((300)*(8000000/4000.0)));
  1206   007C46  0E04               	movlw	4
  1207   007C48  6E0F               	movwf	(??_main+1)^0,c
  1208   007C4A  0E0C               	movlw	12
  1209   007C4C  6E0E               	movwf	??_main^0,c
  1210   007C4E  0E34               	movlw	52
  1211   007C50                     u347:
  1212   007C50  2EE8               	decfsz	wreg,f,c
  1213   007C52  D7FE               	bra	u347
  1214   007C54  2E0E               	decfsz	??_main^0,f,c
  1215   007C56  D7FC               	bra	u347
  1216   007C58  2E0F               	decfsz	(??_main+1)^0,f,c
  1217   007C5A  D7FA               	bra	u347
  1218   007C5C                     
  1219                           ;main.c: 48:         LATDbits.LATD2 = 0;
  1220   007C5C  948C               	bcf	140,2,c	;volatile
  1221   007C5E                     
  1222                           ;main.c: 49:         _delay((unsigned long)((300)*(8000000/4000.0)));
  1223   007C5E  0E04               	movlw	4
  1224   007C60  6E0F               	movwf	(??_main+1)^0,c
  1225   007C62  0E0C               	movlw	12
  1226   007C64  6E0E               	movwf	??_main^0,c
  1227   007C66  0E34               	movlw	52
  1228   007C68                     u357:
  1229   007C68  2EE8               	decfsz	wreg,f,c
  1230   007C6A  D7FE               	bra	u357
  1231   007C6C  2E0E               	decfsz	??_main^0,f,c
  1232   007C6E  D7FC               	bra	u357
  1233   007C70  2E0F               	decfsz	(??_main+1)^0,f,c
  1234   007C72  D7FA               	bra	u357
  1235   007C74  EF22  F03E         	goto	l1491
  1236   007C78  EFFE  F03F         	goto	start
  1237   007C7C                     __end_of_main:
  1238                           	callstack 0
  1239                           
  1240 ;; *************** function _setup *****************
  1241 ;; Defined at:
  1242 ;;		line 14 in file "main.c"
  1243 ;; Parameters:    Size  Location     Type
  1244 ;;		None
  1245 ;; Auto vars:     Size  Location     Type
  1246 ;;		None
  1247 ;; Return value:  Size  Location     Type
  1248 ;;                  1    wreg      void 
  1249 ;; Registers used:
  1250 ;;		wreg, status,2
  1251 ;; Tracked objects:
  1252 ;;		On entry : 0/0
  1253 ;;		On exit  : 0/0
  1254 ;;		Unchanged: 0/0
  1255 ;; Data sizes:     COMRAM   BANK0   BANK1   BANK2   BANK3   BANK4   BANK5   BANK6   BANK7
  1256 ;;      Params:         0       0       0       0       0       0       0       0       0
  1257 ;;      Locals:         0       0       0       0       0       0       0       0       0
  1258 ;;      Temps:          2       0       0       0       0       0       0       0       0
  1259 ;;      Totals:         2       0       0       0       0       0       0       0       0
  1260 ;;Total ram usage:        2 bytes
  1261 ;; Hardware stack levels used: 1
  1262 ;; This function calls:
  1263 ;;		Nothing
  1264 ;; This function is called by:
  1265 ;;		_main
  1266 ;; This function uses a non-reentrant model
  1267 ;;
  1268                           
  1269                           	psect	text1
  1270   007A82                     __ptext1:
  1271                           	callstack 0
  1272   007A82                     _setup:
  1273                           	callstack 30
  1274   007A82                     
  1275                           ;main.c: 15:     OSCCON = 0x72;
  1276   007A82  0E72               	movlw	114
  1277   007A84  6ED3               	movwf	211,c	;volatile
  1278   007A86                     l150:
  1279   007A86  A4D3               	btfss	211,2,c	;volatile
  1280   007A88  EF48  F03D         	goto	u181
  1281   007A8C  EF4A  F03D         	goto	u180
  1282   007A90                     u181:
  1283   007A90  EF43  F03D         	goto	l150
  1284   007A94                     u180:
  1285   007A94                     
  1286                           ;main.c: 17:     _delay((unsigned long)((100)*(8000000/4000.0)));
  1287   007A94  0E02               	movlw	2
  1288   007A96  6E02               	movwf	(??_setup+1)^0,c
  1289   007A98  0E04               	movlw	4
  1290   007A9A  6E01               	movwf	??_setup^0,c
  1291   007A9C  0EBA               	movlw	186
  1292   007A9E                     u367:
  1293   007A9E  2EE8               	decfsz	wreg,f,c
  1294   007AA0  D7FE               	bra	u367
  1295   007AA2  2E01               	decfsz	??_setup^0,f,c
  1296   007AA4  D7FC               	bra	u367
  1297   007AA6  2E02               	decfsz	(??_setup+1)^0,f,c
  1298   007AA8  D7FA               	bra	u367
  1299   007AAA  D000               	nop2	
  1300   007AAC                     
  1301                           ;main.c: 19:     TRISD = 0x00;
  1302   007AAC  6A95               	clrf	149,c	;volatile
  1303   007AAE                     
  1304                           ;main.c: 20:     LATD = 0x00;
  1305   007AAE  6A8C               	clrf	140,c	;volatile
  1306   007AB0                     
  1307                           ;main.c: 22:     TRISB = 0xF8;
  1308   007AB0  0EF8               	movlw	248
  1309   007AB2  6E93               	movwf	147,c	;volatile
  1310   007AB4                     
  1311                           ;main.c: 23:     LATB = 0x00;
  1312   007AB4  6A8A               	clrf	138,c	;volatile
  1313   007AB6                     
  1314                           ;main.c: 25:     INTCON2bits.RBPU = 0;
  1315   007AB6  9EF1               	bcf	241,7,c	;volatile
  1316   007AB8                     
  1317                           ;main.c: 26:     CMCON = 0x07;
  1318   007AB8  0E07               	movlw	7
  1319   007ABA  6EB4               	movwf	180,c	;volatile
  1320   007ABC                     
  1321                           ;main.c: 27:     ADCON1 = 0x0F;
  1322   007ABC  0E0F               	movlw	15
  1323   007ABE  6EC1               	movwf	193,c	;volatile
  1324   007AC0  0012               	return		;funcret
  1325   007AC2                     __end_of_setup:
  1326                           	callstack 0
  1327                           
  1328 ;; *************** function _OLED_WriteString *****************
  1329 ;; Defined at:
  1330 ;;		line 380 in file "oled.c"
  1331 ;; Parameters:    Size  Location     Type
  1332 ;;  str             2   11[COMRAM] PTR unsigned char 
  1333 ;;		 -> STR_19(11), STR_18(8), STR_17(9), STR_16(9), 
  1334 ;;		 -> STR_15(6), STR_14(14), STR_13(9), STR_12(8), 
  1335 ;;		 -> STR_11(7), STR_10(14), STR_9(7), STR_8(2), 
  1336 ;;		 -> OLED_Vitals@buf(6), STR_7(7), STR_6(16), STR_5(16), 
  1337 ;;		 -> STR_4(13), STR_3(11), STR_2(11), STR_1(15), 
  1338 ;; Auto vars:     Size  Location     Type
  1339 ;;		None
  1340 ;; Return value:  Size  Location     Type
  1341 ;;                  1    wreg      void 
  1342 ;; Registers used:
  1343 ;;		wreg, fsr0l, fsr0h, status,2, status,0, tblptrl, tblptrh, tblptru, prodl, prodh, cstack
  1344 ;; Tracked objects:
  1345 ;;		On entry : 0/0
  1346 ;;		On exit  : 0/0
  1347 ;;		Unchanged: 0/0
  1348 ;; Data sizes:     COMRAM   BANK0   BANK1   BANK2   BANK3   BANK4   BANK5   BANK6   BANK7
  1349 ;;      Params:         2       0       0       0       0       0       0       0       0
  1350 ;;      Locals:         0       0       0       0       0       0       0       0       0
  1351 ;;      Temps:          0       0       0       0       0       0       0       0       0
  1352 ;;      Totals:         2       0       0       0       0       0       0       0       0
  1353 ;;Total ram usage:        2 bytes
  1354 ;; Hardware stack levels used: 1
  1355 ;; Hardware stack levels required when called: 2
  1356 ;; This function calls:
  1357 ;;		_OLED_WriteChar
  1358 ;; This function is called by:
  1359 ;;		_main
  1360 ;;		_OLED_Splash
  1361 ;;		_OLED_Vitals
  1362 ;;		_OLED_Paused
  1363 ;;		_OLED_Error
  1364 ;; This function uses a non-reentrant model
  1365 ;;
  1366                           
  1367                           	psect	text2
  1368   007B1A                     __ptext2:
  1369                           	callstack 0
  1370   007B1A                     _OLED_WriteString:
  1371                           	callstack 28
  1372   007B1A                     
  1373                           ;oled.c: 380: void OLED_WriteString(char *str);oled.c: 381: {;oled.c: 382:     while (*s
      +                          tr)
  1374   007B1A  EFA3  F03D         	goto	l1397
  1375   007B1E                     l1393:
  1376                           
  1377                           ;oled.c: 383:     {;oled.c: 384:         OLED_WriteChar(*str);
  1378   007B1E  C00C  FFF6         	movff	OLED_WriteString@str,tblptrl
  1379   007B22  C00D  FFF7         	movff	OLED_WriteString@str+1,tblptrh
  1380   007B26  6AF8               	clrf	tblptru,c
  1381   007B28  0E07               	movlw	(high __ramtop+-1)
  1382   007B2A  64F7               	cpfsgt	tblptrh,c
  1383   007B2C  D003               	bra	u297
  1384   007B2E  0008               	tblrd		*
  1385   007B30  50F5               	movf	tablat,w,c
  1386   007B32  D005               	bra	u290
  1387   007B34                     u297:
  1388   007B34  CFF6 FFE9          	movff	tblptrl,fsr0l
  1389   007B38  CFF7 FFEA          	movff	tblptrh,fsr0h
  1390   007B3C  50EF               	movf	indf0,w,c
  1391   007B3E                     u290:
  1392   007B3E  ECA2  F03E         	call	_OLED_WriteChar
  1393   007B42                     
  1394                           ;oled.c: 385:         str++;
  1395   007B42  4A0C               	infsnz	OLED_WriteString@str^0,f,c
  1396   007B44  2A0D               	incf	(OLED_WriteString@str+1)^0,f,c
  1397   007B46                     l1397:
  1398                           
  1399                           ;oled.c: 382:     while (*str)
  1400   007B46  C00C  FFF6         	movff	OLED_WriteString@str,tblptrl
  1401   007B4A  C00D  FFF7         	movff	OLED_WriteString@str+1,tblptrh
  1402   007B4E  6AF8               	clrf	tblptru,c
  1403   007B50  0E07               	movlw	(high __ramtop+-1)
  1404   007B52  64F7               	cpfsgt	tblptrh,c
  1405   007B54  D003               	bra	u307
  1406   007B56  0008               	tblrd		*
  1407   007B58  50F5               	movf	tablat,w,c
  1408   007B5A  D005               	bra	u300
  1409   007B5C                     u307:
  1410   007B5C  CFF6 FFE9          	movff	tblptrl,fsr0l
  1411   007B60  CFF7 FFEA          	movff	tblptrh,fsr0h
  1412   007B64  50EF               	movf	indf0,w,c
  1413   007B66                     u300:
  1414   007B66  0900               	iorlw	0
  1415   007B68  A4D8               	btfss	status,2,c
  1416   007B6A  EFB9  F03D         	goto	u311
  1417   007B6E  EFBB  F03D         	goto	u310
  1418   007B72                     u311:
  1419   007B72  EF8F  F03D         	goto	l1393
  1420   007B76                     u310:
  1421   007B76  0012               	return		;funcret
  1422   007B78                     __end_of_OLED_WriteString:
  1423                           	callstack 0
  1424                           
  1425 ;; *************** function _OLED_WriteChar *****************
  1426 ;; Defined at:
  1427 ;;		line 346 in file "oled.c"
  1428 ;; Parameters:    Size  Location     Type
  1429 ;;  c               1    wreg     unsigned char 
  1430 ;; Auto vars:     Size  Location     Type
  1431 ;;  c               1   10[COMRAM] unsigned char 
  1432 ;;  index           2    7[COMRAM] int 
  1433 ;;  i               1    9[COMRAM] unsigned char 
  1434 ;; Return value:  Size  Location     Type
  1435 ;;                  1    wreg      void 
  1436 ;; Registers used:
  1437 ;;		wreg, status,2, status,0, tblptrl, tblptrh, tblptru, prodl, prodh, cstack
  1438 ;; Tracked objects:
  1439 ;;		On entry : 0/0
  1440 ;;		On exit  : 0/0
  1441 ;;		Unchanged: 0/0
  1442 ;; Data sizes:     COMRAM   BANK0   BANK1   BANK2   BANK3   BANK4   BANK5   BANK6   BANK7
  1443 ;;      Params:         0       0       0       0       0       0       0       0       0
  1444 ;;      Locals:         4       0       0       0       0       0       0       0       0
  1445 ;;      Temps:          4       0       0       0       0       0       0       0       0
  1446 ;;      Totals:         8       0       0       0       0       0       0       0       0
  1447 ;;Total ram usage:        8 bytes
  1448 ;; Hardware stack levels used: 1
  1449 ;; Hardware stack levels required when called: 1
  1450 ;; This function calls:
  1451 ;;		_I2C_Start
  1452 ;;		_I2C_Stop
  1453 ;;		_I2C_Write
  1454 ;; This function is called by:
  1455 ;;		_OLED_WriteString
  1456 ;; This function uses a non-reentrant model
  1457 ;;
  1458                           
  1459                           	psect	text3
  1460   007D44                     __ptext3:
  1461                           	callstack 0
  1462   007D44                     _OLED_WriteChar:
  1463                           	callstack 28
  1464                           
  1465                           ;incstack = 0
  1466                           ;OLED_WriteChar@c stored from wreg
  1467   007D44  6E0B               	movwf	OLED_WriteChar@c^0,c
  1468   007D46                     
  1469                           ;oled.c: 346: void OLED_WriteChar(char c);oled.c: 347: {;oled.c: 348:     unsigned char 
      +                          i;;oled.c: 349:     int index = 0;
  1470   007D46  6A09               	clrf	(OLED_WriteChar@index+1)^0,c
  1471   007D48  0E00               	movlw	0
  1472   007D4A  6E08               	movwf	OLED_WriteChar@index^0,c
  1473   007D4C                     
  1474                           ;oled.c: 352:     if (c == ' ') index = 0;
  1475   007D4C  0E20               	movlw	32
  1476   007D4E  180B               	xorwf	OLED_WriteChar@c^0,w,c
  1477   007D50  A4D8               	btfss	status,2,c
  1478   007D52  EFAD  F03E         	goto	u41
  1479   007D56  EFAF  F03E         	goto	u40
  1480   007D5A                     u41:
  1481   007D5A  EFB4  F03E         	goto	l1009
  1482   007D5E                     u40:
  1483   007D5E  6A09               	clrf	(OLED_WriteChar@index+1)^0,c
  1484   007D60  0E00               	movlw	0
  1485   007D62  6E08               	movwf	OLED_WriteChar@index^0,c
  1486   007D64  EF0C  F03F         	goto	l1033
  1487   007D68                     l1009:
  1488   007D68  0E2F               	movlw	47
  1489   007D6A  640B               	cpfsgt	OLED_WriteChar@c^0,c
  1490   007D6C  EFBA  F03E         	goto	u51
  1491   007D70  EFBC  F03E         	goto	u50
  1492   007D74                     u51:
  1493   007D74  EFCC  F03E         	goto	l1015
  1494   007D78                     u50:
  1495   007D78  0E3A               	movlw	58
  1496   007D7A  600B               	cpfslt	OLED_WriteChar@c^0,c
  1497   007D7C  EFC2  F03E         	goto	u61
  1498   007D80  EFC4  F03E         	goto	u60
  1499   007D84                     u61:
  1500   007D84  EFCC  F03E         	goto	l1015
  1501   007D88                     u60:
  1502   007D88  0ED1               	movlw	209
  1503   007D8A  240B               	addwf	OLED_WriteChar@c^0,w,c
  1504   007D8C  6E08               	movwf	OLED_WriteChar@index^0,c
  1505   007D8E  6A09               	clrf	(OLED_WriteChar@index+1)^0,c
  1506   007D90  0EFF               	movlw	255
  1507   007D92  2209               	addwfc	(OLED_WriteChar@index+1)^0,f,c
  1508   007D94  EF0C  F03F         	goto	l1033
  1509   007D98                     l1015:
  1510   007D98  0E40               	movlw	64
  1511   007D9A  640B               	cpfsgt	OLED_WriteChar@c^0,c
  1512   007D9C  EFD2  F03E         	goto	u71
  1513   007DA0  EFD4  F03E         	goto	u70
  1514   007DA4                     u71:
  1515   007DA4  EFE4  F03E         	goto	l1021
  1516   007DA8                     u70:
  1517   007DA8  0E5B               	movlw	91
  1518   007DAA  600B               	cpfslt	OLED_WriteChar@c^0,c
  1519   007DAC  EFDA  F03E         	goto	u81
  1520   007DB0  EFDC  F03E         	goto	u80
  1521   007DB4                     u81:
  1522   007DB4  EFE4  F03E         	goto	l1021
  1523   007DB8                     u80:
  1524   007DB8  0ECA               	movlw	202
  1525   007DBA  240B               	addwf	OLED_WriteChar@c^0,w,c
  1526   007DBC  6E08               	movwf	OLED_WriteChar@index^0,c
  1527   007DBE  6A09               	clrf	(OLED_WriteChar@index+1)^0,c
  1528   007DC0  0EFF               	movlw	255
  1529   007DC2  2209               	addwfc	(OLED_WriteChar@index+1)^0,f,c
  1530   007DC4  EF0C  F03F         	goto	l1033
  1531   007DC8                     l1021:
  1532   007DC8  0E3A               	movlw	58
  1533   007DCA  180B               	xorwf	OLED_WriteChar@c^0,w,c
  1534   007DCC  A4D8               	btfss	status,2,c
  1535   007DCE  EFEB  F03E         	goto	u91
  1536   007DD2  EFED  F03E         	goto	u90
  1537   007DD6                     u91:
  1538   007DD6  EFF2  F03E         	goto	l1025
  1539   007DDA                     u90:
  1540   007DDA  6A09               	clrf	(OLED_WriteChar@index+1)^0,c
  1541   007DDC  0E25               	movlw	37
  1542   007DDE  6E08               	movwf	OLED_WriteChar@index^0,c
  1543   007DE0  EF0C  F03F         	goto	l1033
  1544   007DE4                     l1025:
  1545   007DE4  0E25               	movlw	37
  1546   007DE6  180B               	xorwf	OLED_WriteChar@c^0,w,c
  1547   007DE8  A4D8               	btfss	status,2,c
  1548   007DEA  EFF9  F03E         	goto	u101
  1549   007DEE  EFFB  F03E         	goto	u100
  1550   007DF2                     u101:
  1551   007DF2  EF00  F03F         	goto	l1029
  1552   007DF6                     u100:
  1553   007DF6  6A09               	clrf	(OLED_WriteChar@index+1)^0,c
  1554   007DF8  0E26               	movlw	38
  1555   007DFA  6E08               	movwf	OLED_WriteChar@index^0,c
  1556   007DFC  EF0C  F03F         	goto	l1033
  1557   007E00                     l1029:
  1558   007E00  0E2E               	movlw	46
  1559   007E02  180B               	xorwf	OLED_WriteChar@c^0,w,c
  1560   007E04  A4D8               	btfss	status,2,c
  1561   007E06  EF07  F03F         	goto	u111
  1562   007E0A  EF09  F03F         	goto	u110
  1563   007E0E                     u111:
  1564   007E0E  EF0C  F03F         	goto	l1033
  1565   007E12                     u110:
  1566   007E12  6A09               	clrf	(OLED_WriteChar@index+1)^0,c
  1567   007E14  0E27               	movlw	39
  1568   007E16  6E08               	movwf	OLED_WriteChar@index^0,c
  1569   007E18                     l1033:
  1570                           
  1571                           ;oled.c: 361:     I2C_Start();
  1572   007E18  EC2B  F03D         	call	_I2C_Start	;wreg free
  1573   007E1C                     
  1574                           ;oled.c: 362:     I2C_Write(0x78);
  1575   007E1C  0E78               	movlw	120
  1576   007E1E  ECBC  F03D         	call	_I2C_Write
  1577   007E22                     
  1578                           ;oled.c: 363:     I2C_Write(0x40);
  1579   007E22  0E40               	movlw	64
  1580   007E24  ECBC  F03D         	call	_I2C_Write
  1581   007E28                     
  1582                           ;oled.c: 364:     for (i = 0; i < 5; i++) I2C_Write(font5x7[index][i]);
  1583   007E28  6A0A               	clrf	OLED_WriteChar@i^0,c
  1584   007E2A                     l1045:
  1585   007E2A  0E05               	movlw	5
  1586   007E2C  0208               	mulwf	OLED_WriteChar@index^0,c
  1587   007E2E  CFF3 F004          	movff	prodl,??_OLED_WriteChar
  1588   007E32  CFF4 F005          	movff	prodh,??_OLED_WriteChar+1
  1589   007E36  0209               	mulwf	(OLED_WriteChar@index+1)^0,c
  1590   007E38  50F3               	movf	prodl,w,c
  1591   007E3A  2605               	addwf	(??_OLED_WriteChar+1)^0,f,c
  1592   007E3C  0E7F               	movlw	low _font5x7
  1593   007E3E  2404               	addwf	??_OLED_WriteChar^0,w,c
  1594   007E40  6E06               	movwf	(??_OLED_WriteChar+2)^0,c
  1595   007E42  0E7E               	movlw	high _font5x7
  1596   007E44  2005               	addwfc	(??_OLED_WriteChar+1)^0,w,c
  1597   007E46  6E07               	movwf	(??_OLED_WriteChar+3)^0,c
  1598   007E48  500A               	movf	OLED_WriteChar@i^0,w,c
  1599   007E4A  2606               	addwf	(??_OLED_WriteChar+2)^0,f,c
  1600   007E4C  0E00               	movlw	0
  1601   007E4E  2207               	addwfc	(??_OLED_WriteChar+3)^0,f,c
  1602   007E50  C006  FFF6         	movff	??_OLED_WriteChar+2,tblptrl
  1603   007E54  C007  FFF7         	movff	??_OLED_WriteChar+3,tblptrh
  1604   007E58                     	if	0	;tblptru may be non-zero
  1605   007E58                     	endif
  1606   007E58                     	if	0	;tblptru may be non-zero
  1607   007E58                     	endif
  1608   007E58  0008               	tblrd		*
  1609   007E5A  50F5               	movf	tablat,w,c
  1610   007E5C  ECBC  F03D         	call	_I2C_Write
  1611   007E60  2A0A               	incf	OLED_WriteChar@i^0,f,c
  1612   007E62  0E04               	movlw	4
  1613   007E64  640A               	cpfsgt	OLED_WriteChar@i^0,c
  1614   007E66  EF37  F03F         	goto	u121
  1615   007E6A  EF39  F03F         	goto	u120
  1616   007E6E                     u121:
  1617   007E6E  EF15  F03F         	goto	l1045
  1618   007E72                     u120:
  1619   007E72                     
  1620                           ;oled.c: 365:     I2C_Write(0x00);
  1621   007E72  0E00               	movlw	0
  1622   007E74  ECBC  F03D         	call	_I2C_Write
  1623   007E78                     
  1624                           ;oled.c: 366:     I2C_Stop();
  1625   007E78  EC09  F03D         	call	_I2C_Stop	;wreg free
  1626   007E7C  0012               	return		;funcret
  1627   007E7E                     __end_of_OLED_WriteChar:
  1628                           	callstack 0
  1629                           
  1630 ;; *************** function _OLED_SetCursor *****************
  1631 ;; Defined at:
  1632 ;;		line 319 in file "oled.c"
  1633 ;; Parameters:    Size  Location     Type
  1634 ;;  col             1    wreg     unsigned char 
  1635 ;;  page            1    4[COMRAM] unsigned char 
  1636 ;; Auto vars:     Size  Location     Type
  1637 ;;  col             1    5[COMRAM] unsigned char 
  1638 ;; Return value:  Size  Location     Type
  1639 ;;                  1    wreg      void 
  1640 ;; Registers used:
  1641 ;;		wreg, status,2, status,0, cstack
  1642 ;; Tracked objects:
  1643 ;;		On entry : 0/0
  1644 ;;		On exit  : 0/0
  1645 ;;		Unchanged: 0/0
  1646 ;; Data sizes:     COMRAM   BANK0   BANK1   BANK2   BANK3   BANK4   BANK5   BANK6   BANK7
  1647 ;;      Params:         1       0       0       0       0       0       0       0       0
  1648 ;;      Locals:         1       0       0       0       0       0       0       0       0
  1649 ;;      Temps:          0       0       0       0       0       0       0       0       0
  1650 ;;      Totals:         2       0       0       0       0       0       0       0       0
  1651 ;;Total ram usage:        2 bytes
  1652 ;; Hardware stack levels used: 1
  1653 ;; Hardware stack levels required when called: 1
  1654 ;; This function calls:
  1655 ;;		_OLED_Command
  1656 ;; This function is called by:
  1657 ;;		_main
  1658 ;;		_OLED_Splash
  1659 ;;		_OLED_Vitals
  1660 ;;		_OLED_Paused
  1661 ;;		_OLED_Error
  1662 ;; This function uses a non-reentrant model
  1663 ;;
  1664                           
  1665                           	psect	text4
  1666   007A34                     __ptext4:
  1667                           	callstack 0
  1668   007A34                     _OLED_SetCursor:
  1669                           	callstack 29
  1670                           
  1671                           ;incstack = 0
  1672                           ;OLED_SetCursor@col stored from wreg
  1673   007A34  6E06               	movwf	OLED_SetCursor@col^0,c
  1674   007A36                     
  1675                           ;oled.c: 319: void OLED_SetCursor(unsigned char col, unsigned char page);oled.c: 320: {;
      +                          oled.c: 321:     col += 2;
  1676   007A36  0E02               	movlw	2
  1677   007A38  2606               	addwf	OLED_SetCursor@col^0,f,c
  1678   007A3A                     
  1679                           ;oled.c: 322:     OLED_Command(0xB0 + page);
  1680   007A3A  5005               	movf	OLED_SetCursor@page^0,w,c
  1681   007A3C  0FB0               	addlw	176
  1682   007A3E  ECFA  F03C         	call	_OLED_Command
  1683   007A42                     
  1684                           ;oled.c: 323:     OLED_Command(0x00 | (col & 0x0F));
  1685   007A42  5006               	movf	OLED_SetCursor@col^0,w,c
  1686   007A44  0B0F               	andlw	15
  1687   007A46  ECFA  F03C         	call	_OLED_Command
  1688   007A4A                     
  1689                           ;oled.c: 324:     OLED_Command(0x10 | (col >> 4));
  1690   007A4A  3806               	swapf	OLED_SetCursor@col^0,w,c
  1691   007A4C  0B0F               	andlw	15
  1692   007A4E  0910               	iorlw	16
  1693   007A50  ECFA  F03C         	call	_OLED_Command
  1694   007A54  0012               	return		;funcret
  1695   007A56                     __end_of_OLED_SetCursor:
  1696                           	callstack 0
  1697                           
  1698 ;; *************** function _OLED_Init *****************
  1699 ;; Defined at:
  1700 ;;		line 181 in file "oled.c"
  1701 ;; Parameters:    Size  Location     Type
  1702 ;;		None
  1703 ;; Auto vars:     Size  Location     Type
  1704 ;;		None
  1705 ;; Return value:  Size  Location     Type
  1706 ;;                  1    wreg      void 
  1707 ;; Registers used:
  1708 ;;		wreg, status,2, status,0, cstack
  1709 ;; Tracked objects:
  1710 ;;		On entry : 0/0
  1711 ;;		On exit  : 0/0
  1712 ;;		Unchanged: 0/0
  1713 ;; Data sizes:     COMRAM   BANK0   BANK1   BANK2   BANK3   BANK4   BANK5   BANK6   BANK7
  1714 ;;      Params:         0       0       0       0       0       0       0       0       0
  1715 ;;      Locals:         0       0       0       0       0       0       0       0       0
  1716 ;;      Temps:          2       0       0       0       0       0       0       0       0
  1717 ;;      Totals:         2       0       0       0       0       0       0       0       0
  1718 ;;Total ram usage:        2 bytes
  1719 ;; Hardware stack levels used: 1
  1720 ;; Hardware stack levels required when called: 1
  1721 ;; This function calls:
  1722 ;;		_OLED_Command
  1723 ;; This function is called by:
  1724 ;;		_main
  1725 ;; This function uses a non-reentrant model
  1726 ;;
  1727                           
  1728                           	psect	text5
  1729   007C7C                     __ptext5:
  1730                           	callstack 0
  1731   007C7C                     _OLED_Init:
  1732                           	callstack 29
  1733   007C7C                     
  1734                           ;oled.c: 183:     _delay((unsigned long)((200)*(8000000/4000.0)));
  1735   007C7C  0E03               	movlw	3
  1736   007C7E  6E06               	movwf	(??_OLED_Init+1)^0,c
  1737   007C80  0E08               	movlw	8
  1738   007C82  6E05               	movwf	??_OLED_Init^0,c
  1739   007C84  0E77               	movlw	119
  1740   007C86                     u377:
  1741   007C86  2EE8               	decfsz	wreg,f,c
  1742   007C88  D7FE               	bra	u377
  1743   007C8A  2E05               	decfsz	??_OLED_Init^0,f,c
  1744   007C8C  D7FC               	bra	u377
  1745   007C8E  2E06               	decfsz	(??_OLED_Init+1)^0,f,c
  1746   007C90  D7FA               	bra	u377
  1747   007C92  0000               	nop	
  1748   007C94                     
  1749                           ;oled.c: 185:     OLED_Command(0xAE);
  1750   007C94  0EAE               	movlw	174
  1751   007C96  ECFA  F03C         	call	_OLED_Command
  1752   007C9A                     
  1753                           ;oled.c: 187:     OLED_Command(0xD5);
  1754   007C9A  0ED5               	movlw	213
  1755   007C9C  ECFA  F03C         	call	_OLED_Command
  1756   007CA0                     
  1757                           ;oled.c: 188:     OLED_Command(0xF0);
  1758   007CA0  0EF0               	movlw	240
  1759   007CA2  ECFA  F03C         	call	_OLED_Command
  1760   007CA6                     
  1761                           ;oled.c: 190:     OLED_Command(0xA8);
  1762   007CA6  0EA8               	movlw	168
  1763   007CA8  ECFA  F03C         	call	_OLED_Command
  1764   007CAC                     
  1765                           ;oled.c: 191:     OLED_Command(0x3F);
  1766   007CAC  0E3F               	movlw	63
  1767   007CAE  ECFA  F03C         	call	_OLED_Command
  1768   007CB2                     
  1769                           ;oled.c: 193:     OLED_Command(0xD3);
  1770   007CB2  0ED3               	movlw	211
  1771   007CB4  ECFA  F03C         	call	_OLED_Command
  1772   007CB8                     
  1773                           ;oled.c: 194:     OLED_Command(0x00);
  1774   007CB8  0E00               	movlw	0
  1775   007CBA  ECFA  F03C         	call	_OLED_Command
  1776   007CBE                     
  1777                           ;oled.c: 196:     OLED_Command(0x40);
  1778   007CBE  0E40               	movlw	64
  1779   007CC0  ECFA  F03C         	call	_OLED_Command
  1780   007CC4                     
  1781                           ;oled.c: 198:     OLED_Command(0x8D);
  1782   007CC4  0E8D               	movlw	141
  1783   007CC6  ECFA  F03C         	call	_OLED_Command
  1784   007CCA                     
  1785                           ;oled.c: 199:     OLED_Command(0x14);
  1786   007CCA  0E14               	movlw	20
  1787   007CCC  ECFA  F03C         	call	_OLED_Command
  1788   007CD0                     
  1789                           ;oled.c: 201:     OLED_Command(0x20);
  1790   007CD0  0E20               	movlw	32
  1791   007CD2  ECFA  F03C         	call	_OLED_Command
  1792   007CD6                     
  1793                           ;oled.c: 202:     OLED_Command(0x02);
  1794   007CD6  0E02               	movlw	2
  1795   007CD8  ECFA  F03C         	call	_OLED_Command
  1796   007CDC                     
  1797                           ;oled.c: 204:     OLED_Command(0xA1);
  1798   007CDC  0EA1               	movlw	161
  1799   007CDE  ECFA  F03C         	call	_OLED_Command
  1800   007CE2                     
  1801                           ;oled.c: 207:     OLED_Command(0xC8);
  1802   007CE2  0EC8               	movlw	200
  1803   007CE4  ECFA  F03C         	call	_OLED_Command
  1804   007CE8                     
  1805                           ;oled.c: 210:     OLED_Command(0xDA);
  1806   007CE8  0EDA               	movlw	218
  1807   007CEA  ECFA  F03C         	call	_OLED_Command
  1808   007CEE                     
  1809                           ;oled.c: 211:     OLED_Command(0x12);
  1810   007CEE  0E12               	movlw	18
  1811   007CF0  ECFA  F03C         	call	_OLED_Command
  1812   007CF4                     
  1813                           ;oled.c: 213:     OLED_Command(0x81);
  1814   007CF4  0E81               	movlw	129
  1815   007CF6  ECFA  F03C         	call	_OLED_Command
  1816   007CFA                     
  1817                           ;oled.c: 214:     OLED_Command(0xFF);
  1818   007CFA  0EFF               	movlw	255
  1819   007CFC  ECFA  F03C         	call	_OLED_Command
  1820   007D00                     
  1821                           ;oled.c: 216:     OLED_Command(0xD9);
  1822   007D00  0ED9               	movlw	217
  1823   007D02  ECFA  F03C         	call	_OLED_Command
  1824   007D06                     
  1825                           ;oled.c: 217:     OLED_Command(0xF1);
  1826   007D06  0EF1               	movlw	241
  1827   007D08  ECFA  F03C         	call	_OLED_Command
  1828   007D0C                     
  1829                           ;oled.c: 219:     OLED_Command(0xDB);
  1830   007D0C  0EDB               	movlw	219
  1831   007D0E  ECFA  F03C         	call	_OLED_Command
  1832   007D12                     
  1833                           ;oled.c: 220:     OLED_Command(0x40);
  1834   007D12  0E40               	movlw	64
  1835   007D14  ECFA  F03C         	call	_OLED_Command
  1836   007D18                     
  1837                           ;oled.c: 222:     OLED_Command(0xA4);
  1838   007D18  0EA4               	movlw	164
  1839   007D1A  ECFA  F03C         	call	_OLED_Command
  1840   007D1E                     
  1841                           ;oled.c: 225:     OLED_Command(0xA6);
  1842   007D1E  0EA6               	movlw	166
  1843   007D20  ECFA  F03C         	call	_OLED_Command
  1844   007D24                     
  1845                           ;oled.c: 228:     OLED_Command(0xAF);
  1846   007D24  0EAF               	movlw	175
  1847   007D26  ECFA  F03C         	call	_OLED_Command
  1848   007D2A                     
  1849                           ;oled.c: 230:     _delay((unsigned long)((100)*(8000000/4000.0)));
  1850   007D2A  0E02               	movlw	2
  1851   007D2C  6E06               	movwf	(??_OLED_Init+1)^0,c
  1852   007D2E  0E04               	movlw	4
  1853   007D30  6E05               	movwf	??_OLED_Init^0,c
  1854   007D32  0EBA               	movlw	186
  1855   007D34                     u387:
  1856   007D34  2EE8               	decfsz	wreg,f,c
  1857   007D36  D7FE               	bra	u387
  1858   007D38  2E05               	decfsz	??_OLED_Init^0,f,c
  1859   007D3A  D7FC               	bra	u387
  1860   007D3C  2E06               	decfsz	(??_OLED_Init+1)^0,f,c
  1861   007D3E  D7FA               	bra	u387
  1862   007D40  D000               	nop2	
  1863   007D42  0012               	return		;funcret
  1864   007D44                     __end_of_OLED_Init:
  1865                           	callstack 0
  1866                           
  1867 ;; *************** function _OLED_Clear *****************
  1868 ;; Defined at:
  1869 ;;		line 248 in file "oled.c"
  1870 ;; Parameters:    Size  Location     Type
  1871 ;;		None
  1872 ;; Auto vars:     Size  Location     Type
  1873 ;;  page            1    5[COMRAM] unsigned char 
  1874 ;;  i               1    4[COMRAM] unsigned char 
  1875 ;; Return value:  Size  Location     Type
  1876 ;;                  1    wreg      void 
  1877 ;; Registers used:
  1878 ;;		wreg, status,2, status,0, cstack
  1879 ;; Tracked objects:
  1880 ;;		On entry : 0/0
  1881 ;;		On exit  : 0/0
  1882 ;;		Unchanged: 0/0
  1883 ;; Data sizes:     COMRAM   BANK0   BANK1   BANK2   BANK3   BANK4   BANK5   BANK6   BANK7
  1884 ;;      Params:         0       0       0       0       0       0       0       0       0
  1885 ;;      Locals:         2       0       0       0       0       0       0       0       0
  1886 ;;      Temps:          0       0       0       0       0       0       0       0       0
  1887 ;;      Totals:         2       0       0       0       0       0       0       0       0
  1888 ;;Total ram usage:        2 bytes
  1889 ;; Hardware stack levels used: 1
  1890 ;; Hardware stack levels required when called: 2
  1891 ;; This function calls:
  1892 ;;		_I2C_Start
  1893 ;;		_I2C_Stop
  1894 ;;		_I2C_Write
  1895 ;;		_OLED_Command
  1896 ;; This function is called by:
  1897 ;;		_main
  1898 ;;		_OLED_Splash
  1899 ;;		_OLED_Paused
  1900 ;;		_OLED_Error
  1901 ;; This function uses a non-reentrant model
  1902 ;;
  1903                           
  1904                           	psect	text6
  1905   007AC2                     __ptext6:
  1906                           	callstack 0
  1907   007AC2                     _OLED_Clear:
  1908                           	callstack 28
  1909   007AC2                     
  1910                           ;oled.c: 250:     unsigned char page, i;;oled.c: 252:     for (page = 0; page < 8; page+
      +                          +)
  1911   007AC2  6A06               	clrf	OLED_Clear@page^0,c
  1912   007AC4                     l1117:
  1913                           
  1914                           ;oled.c: 253:     {;oled.c: 254:         OLED_Command(0xB0 + page);
  1915   007AC4  5006               	movf	OLED_Clear@page^0,w,c
  1916   007AC6  0FB0               	addlw	176
  1917   007AC8  ECFA  F03C         	call	_OLED_Command
  1918                           
  1919                           ;oled.c: 255:         OLED_Command(0x00);
  1920   007ACC  0E00               	movlw	0
  1921   007ACE  ECFA  F03C         	call	_OLED_Command
  1922                           
  1923                           ;oled.c: 256:         OLED_Command(0x10);
  1924   007AD2  0E10               	movlw	16
  1925   007AD4  ECFA  F03C         	call	_OLED_Command
  1926   007AD8                     
  1927                           ;oled.c: 259:         I2C_Start();
  1928   007AD8  EC2B  F03D         	call	_I2C_Start	;wreg free
  1929   007ADC                     
  1930                           ;oled.c: 260:         I2C_Write(0x78);
  1931   007ADC  0E78               	movlw	120
  1932   007ADE  ECBC  F03D         	call	_I2C_Write
  1933   007AE2                     
  1934                           ;oled.c: 261:         I2C_Write(0x40);
  1935   007AE2  0E40               	movlw	64
  1936   007AE4  ECBC  F03D         	call	_I2C_Write
  1937   007AE8                     
  1938                           ;oled.c: 262:         for (i = 0; i < 128; i++) I2C_Write(0x00);
  1939   007AE8  6A05               	clrf	OLED_Clear@i^0,c
  1940   007AEA                     l1131:
  1941   007AEA  0E00               	movlw	0
  1942   007AEC  ECBC  F03D         	call	_I2C_Write
  1943   007AF0  2A05               	incf	OLED_Clear@i^0,f,c
  1944   007AF2  0E7F               	movlw	127
  1945   007AF4  6405               	cpfsgt	OLED_Clear@i^0,c
  1946   007AF6  EF7F  F03D         	goto	u131
  1947   007AFA  EF81  F03D         	goto	u130
  1948   007AFE                     u131:
  1949   007AFE  EF75  F03D         	goto	l1131
  1950   007B02                     u130:
  1951   007B02                     
  1952                           ;oled.c: 263:         I2C_Stop();
  1953   007B02  EC09  F03D         	call	_I2C_Stop	;wreg free
  1954   007B06                     
  1955                           ;oled.c: 264:     }
  1956   007B06  2A06               	incf	OLED_Clear@page^0,f,c
  1957   007B08  0E07               	movlw	7
  1958   007B0A  6406               	cpfsgt	OLED_Clear@page^0,c
  1959   007B0C  EF8A  F03D         	goto	u141
  1960   007B10  EF8C  F03D         	goto	u140
  1961   007B14                     u141:
  1962   007B14  EF62  F03D         	goto	l1117
  1963   007B18                     u140:
  1964   007B18  0012               	return		;funcret
  1965   007B1A                     __end_of_OLED_Clear:
  1966                           	callstack 0
  1967                           
  1968 ;; *************** function _OLED_Command *****************
  1969 ;; Defined at:
  1970 ;;		line 141 in file "oled.c"
  1971 ;; Parameters:    Size  Location     Type
  1972 ;;  cmd             1    wreg     unsigned char 
  1973 ;; Auto vars:     Size  Location     Type
  1974 ;;  cmd             1    3[COMRAM] unsigned char 
  1975 ;; Return value:  Size  Location     Type
  1976 ;;                  1    wreg      void 
  1977 ;; Registers used:
  1978 ;;		wreg, status,2, status,0, cstack
  1979 ;; Tracked objects:
  1980 ;;		On entry : 0/0
  1981 ;;		On exit  : 0/0
  1982 ;;		Unchanged: 0/0
  1983 ;; Data sizes:     COMRAM   BANK0   BANK1   BANK2   BANK3   BANK4   BANK5   BANK6   BANK7
  1984 ;;      Params:         0       0       0       0       0       0       0       0       0
  1985 ;;      Locals:         1       0       0       0       0       0       0       0       0
  1986 ;;      Temps:          0       0       0       0       0       0       0       0       0
  1987 ;;      Totals:         1       0       0       0       0       0       0       0       0
  1988 ;;Total ram usage:        1 bytes
  1989 ;; Hardware stack levels used: 1
  1990 ;; This function calls:
  1991 ;;		_I2C_Start
  1992 ;;		_I2C_Stop
  1993 ;;		_I2C_Write
  1994 ;; This function is called by:
  1995 ;;		_OLED_Init
  1996 ;;		_OLED_Clear
  1997 ;;		_OLED_SetCursor
  1998 ;;		_OLED_ClearLine
  1999 ;; This function uses a non-reentrant model
  2000 ;;
  2001                           
  2002                           	psect	text7
  2003   0079F4                     __ptext7:
  2004                           	callstack 0
  2005   0079F4                     _OLED_Command:
  2006                           	callstack 29
  2007                           
  2008                           ;incstack = 0
  2009                           ;OLED_Command@cmd stored from wreg
  2010   0079F4  6E04               	movwf	OLED_Command@cmd^0,c
  2011   0079F6                     
  2012                           ;oled.c: 141: void OLED_Command(unsigned char cmd);oled.c: 142: {;oled.c: 143:     I2C_S
      +                          tart();
  2013   0079F6  EC2B  F03D         	call	_I2C_Start	;wreg free
  2014   0079FA                     
  2015                           ;oled.c: 144:     I2C_Write(0x78);
  2016   0079FA  0E78               	movlw	120
  2017   0079FC  ECBC  F03D         	call	_I2C_Write
  2018   007A00                     
  2019                           ;oled.c: 145:     I2C_Write(0x00);
  2020   007A00  0E00               	movlw	0
  2021   007A02  ECBC  F03D         	call	_I2C_Write
  2022   007A06                     
  2023                           ;oled.c: 146:     I2C_Write(cmd);
  2024   007A06  5004               	movf	OLED_Command@cmd^0,w,c
  2025   007A08  ECBC  F03D         	call	_I2C_Write
  2026   007A0C                     
  2027                           ;oled.c: 147:     I2C_Stop();
  2028   007A0C  EC09  F03D         	call	_I2C_Stop	;wreg free
  2029   007A10  0012               	return		;funcret
  2030   007A12                     __end_of_OLED_Command:
  2031                           	callstack 0
  2032                           
  2033 ;; *************** function _I2C_Write *****************
  2034 ;; Defined at:
  2035 ;;		line 40 in file "i2c.c"
  2036 ;; Parameters:    Size  Location     Type
  2037 ;;  data            1    wreg     unsigned char 
  2038 ;; Auto vars:     Size  Location     Type
  2039 ;;  data            1    1[COMRAM] unsigned char 
  2040 ;;  i               1    2[COMRAM] unsigned char 
  2041 ;; Return value:  Size  Location     Type
  2042 ;;                  1    wreg      void 
  2043 ;; Registers used:
  2044 ;;		wreg, status,2, status,0
  2045 ;; Tracked objects:
  2046 ;;		On entry : 0/0
  2047 ;;		On exit  : 0/0
  2048 ;;		Unchanged: 0/0
  2049 ;; Data sizes:     COMRAM   BANK0   BANK1   BANK2   BANK3   BANK4   BANK5   BANK6   BANK7
  2050 ;;      Params:         0       0       0       0       0       0       0       0       0
  2051 ;;      Locals:         2       0       0       0       0       0       0       0       0
  2052 ;;      Temps:          1       0       0       0       0       0       0       0       0
  2053 ;;      Totals:         3       0       0       0       0       0       0       0       0
  2054 ;;Total ram usage:        3 bytes
  2055 ;; Hardware stack levels used: 1
  2056 ;; This function calls:
  2057 ;;		Nothing
  2058 ;; This function is called by:
  2059 ;;		_OLED_Command
  2060 ;;		_OLED_Clear
  2061 ;;		_OLED_WriteChar
  2062 ;;		_OLED_Data
  2063 ;;		_OLED_ClearLine
  2064 ;; This function uses a non-reentrant model
  2065 ;;
  2066                           
  2067                           	psect	text8
  2068   007B78                     __ptext8:
  2069                           	callstack 0
  2070   007B78                     _I2C_Write:
  2071                           	callstack 28
  2072                           
  2073                           ;incstack = 0
  2074                           ;I2C_Write@data stored from wreg
  2075   007B78  6E02               	movwf	I2C_Write@data^0,c
  2076   007B7A                     
  2077                           ;i2c.c: 41:     unsigned char i;;i2c.c: 42:     for (i = 0; i < 8; i++) {
  2078   007B7A  6A03               	clrf	I2C_Write@i^0,c
  2079   007B7C                     l971:
  2080                           
  2081                           ;i2c.c: 43:         LATBbits.LATB1 = (data & 0x80) ? 1 : 0;
  2082   007B7C  BE02               	btfsc	I2C_Write@data^0,7,c
  2083   007B7E  EFC3  F03D         	goto	u11
  2084   007B82  EFC7  F03D         	goto	u10
  2085   007B86                     u11:
  2086   007B86  6A01               	clrf	??_I2C_Write^0,c
  2087   007B88  2A01               	incf	??_I2C_Write^0,f,c
  2088   007B8A  EFC8  F03D         	goto	u28
  2089   007B8E                     u10:
  2090   007B8E  6A01               	clrf	??_I2C_Write^0,c
  2091   007B90                     u28:
  2092   007B90  4601               	rlncf	??_I2C_Write^0,f,c
  2093   007B92  508A               	movf	138,w,c	;volatile
  2094   007B94  1801               	xorwf	??_I2C_Write^0,w,c
  2095   007B96  0BFD               	andlw	-3
  2096   007B98  1801               	xorwf	??_I2C_Write^0,w,c
  2097   007B9A  6E8A               	movwf	138,c	;volatile
  2098                           
  2099                           ;i2c.c: 44:         data <<= 1;
  2100   007B9C  90D8               	bcf	status,0,c
  2101   007B9E  3602               	rlcf	I2C_Write@data^0,f,c
  2102   007BA0                     
  2103                           ;i2c.c: 45:         _delay((unsigned long)((5)*(8000000/4000000.0)));
  2104   007BA0  0E03               	movlw	3
  2105   007BA2                     u397:
  2106   007BA2  2EE8               	decfsz	wreg,f,c
  2107   007BA4  D7FE               	bra	u397
  2108   007BA6  0000               	nop	
  2109   007BA8                     
  2110                           ;i2c.c: 46:         LATBbits.LATB0 = 1; _delay((unsigned long)((5)*(8000000/4000000.0)))
      +                          ;
  2111   007BA8  808A               	bsf	138,0,c	;volatile
  2112   007BAA  0E03               	movlw	3
  2113   007BAC                     u407:
  2114   007BAC  2EE8               	decfsz	wreg,f,c
  2115   007BAE  D7FE               	bra	u407
  2116   007BB0  0000               	nop	
  2117   007BB2                     
  2118                           ;i2c.c: 47:         LATBbits.LATB0 = 0; _delay((unsigned long)((5)*(8000000/4000000.0)))
      +                          ;
  2119   007BB2  908A               	bcf	138,0,c	;volatile
  2120   007BB4  0E03               	movlw	3
  2121   007BB6                     u417:
  2122   007BB6  2EE8               	decfsz	wreg,f,c
  2123   007BB8  D7FE               	bra	u417
  2124   007BBA  0000               	nop	
  2125                           
  2126                           ;i2c.c: 48:     }
  2127   007BBC  2A03               	incf	I2C_Write@i^0,f,c
  2128   007BBE  0E07               	movlw	7
  2129   007BC0  6403               	cpfsgt	I2C_Write@i^0,c
  2130   007BC2  EFE5  F03D         	goto	u31
  2131   007BC6  EFE7  F03D         	goto	u30
  2132   007BCA                     u31:
  2133   007BCA  EFBE  F03D         	goto	l971
  2134   007BCE                     u30:
  2135   007BCE                     
  2136                           ;i2c.c: 49:     TRISBbits.TRISB1 = 1; _delay((unsigned long)((5)*(8000000/4000000.0)));
  2137   007BCE  8293               	bsf	147,1,c	;volatile
  2138   007BD0  0E03               	movlw	3
  2139   007BD2                     u427:
  2140   007BD2  2EE8               	decfsz	wreg,f,c
  2141   007BD4  D7FE               	bra	u427
  2142   007BD6  0000               	nop	
  2143   007BD8                     
  2144                           ;i2c.c: 50:     LATBbits.LATB0 = 1; _delay((unsigned long)((5)*(8000000/4000000.0)));
  2145   007BD8  808A               	bsf	138,0,c	;volatile
  2146   007BDA  0E03               	movlw	3
  2147   007BDC                     u437:
  2148   007BDC  2EE8               	decfsz	wreg,f,c
  2149   007BDE  D7FE               	bra	u437
  2150   007BE0  0000               	nop	
  2151   007BE2                     
  2152                           ;i2c.c: 51:     LATBbits.LATB0 = 0;
  2153   007BE2  908A               	bcf	138,0,c	;volatile
  2154   007BE4                     
  2155                           ;i2c.c: 52:     TRISBbits.TRISB1 = 0; _delay((unsigned long)((5)*(8000000/4000000.0)));
  2156   007BE4  9293               	bcf	147,1,c	;volatile
  2157   007BE6  0E03               	movlw	3
  2158   007BE8                     u447:
  2159   007BE8  2EE8               	decfsz	wreg,f,c
  2160   007BEA  D7FE               	bra	u447
  2161   007BEC  0000               	nop	
  2162   007BEE  0012               	return		;funcret
  2163   007BF0                     __end_of_I2C_Write:
  2164                           	callstack 0
  2165                           
  2166 ;; *************** function _I2C_Stop *****************
  2167 ;; Defined at:
  2168 ;;		line 27 in file "i2c.c"
  2169 ;; Parameters:    Size  Location     Type
  2170 ;;		None
  2171 ;; Auto vars:     Size  Location     Type
  2172 ;;		None
  2173 ;; Return value:  Size  Location     Type
  2174 ;;                  1    wreg      void 
  2175 ;; Registers used:
  2176 ;;		wreg
  2177 ;; Tracked objects:
  2178 ;;		On entry : 0/0
  2179 ;;		On exit  : 0/0
  2180 ;;		Unchanged: 0/0
  2181 ;; Data sizes:     COMRAM   BANK0   BANK1   BANK2   BANK3   BANK4   BANK5   BANK6   BANK7
  2182 ;;      Params:         0       0       0       0       0       0       0       0       0
  2183 ;;      Locals:         0       0       0       0       0       0       0       0       0
  2184 ;;      Temps:          0       0       0       0       0       0       0       0       0
  2185 ;;      Totals:         0       0       0       0       0       0       0       0       0
  2186 ;;Total ram usage:        0 bytes
  2187 ;; Hardware stack levels used: 1
  2188 ;; This function calls:
  2189 ;;		Nothing
  2190 ;; This function is called by:
  2191 ;;		_OLED_Command
  2192 ;;		_OLED_Clear
  2193 ;;		_OLED_WriteChar
  2194 ;;		_I2C_RepeatedStart
  2195 ;;		_OLED_Data
  2196 ;;		_OLED_ClearLine
  2197 ;; This function uses a non-reentrant model
  2198 ;;
  2199                           
  2200                           	psect	text9
  2201   007A12                     __ptext9:
  2202                           	callstack 0
  2203   007A12                     _I2C_Stop:
  2204                           	callstack 28
  2205   007A12                     
  2206                           ;i2c.c: 28:     TRISBbits.TRISB1 = 0;
  2207   007A12  9293               	bcf	147,1,c	;volatile
  2208                           
  2209                           ;i2c.c: 29:     LATBbits.LATB1 = 0; _delay((unsigned long)((5)*(8000000/4000000.0)));
  2210   007A14  928A               	bcf	138,1,c	;volatile
  2211   007A16  0E03               	movlw	3
  2212   007A18                     u457:
  2213   007A18  2EE8               	decfsz	wreg,f,c
  2214   007A1A  D7FE               	bra	u457
  2215   007A1C  0000               	nop	
  2216   007A1E                     
  2217                           ;i2c.c: 30:     LATBbits.LATB0 = 1; _delay((unsigned long)((5)*(8000000/4000000.0)));
  2218   007A1E  808A               	bsf	138,0,c	;volatile
  2219   007A20  0E03               	movlw	3
  2220   007A22                     u467:
  2221   007A22  2EE8               	decfsz	wreg,f,c
  2222   007A24  D7FE               	bra	u467
  2223   007A26  0000               	nop	
  2224   007A28                     
  2225                           ;i2c.c: 31:     LATBbits.LATB1 = 1; _delay((unsigned long)((5)*(8000000/4000000.0)));
  2226   007A28  828A               	bsf	138,1,c	;volatile
  2227   007A2A  0E03               	movlw	3
  2228   007A2C                     u477:
  2229   007A2C  2EE8               	decfsz	wreg,f,c
  2230   007A2E  D7FE               	bra	u477
  2231   007A30  0000               	nop	
  2232   007A32  0012               	return		;funcret
  2233   007A34                     __end_of_I2C_Stop:
  2234                           	callstack 0
  2235                           
  2236 ;; *************** function _I2C_Start *****************
  2237 ;; Defined at:
  2238 ;;		line 19 in file "i2c.c"
  2239 ;; Parameters:    Size  Location     Type
  2240 ;;		None
  2241 ;; Auto vars:     Size  Location     Type
  2242 ;;		None
  2243 ;; Return value:  Size  Location     Type
  2244 ;;                  1    wreg      void 
  2245 ;; Registers used:
  2246 ;;		wreg
  2247 ;; Tracked objects:
  2248 ;;		On entry : 0/0
  2249 ;;		On exit  : 0/0
  2250 ;;		Unchanged: 0/0
  2251 ;; Data sizes:     COMRAM   BANK0   BANK1   BANK2   BANK3   BANK4   BANK5   BANK6   BANK7
  2252 ;;      Params:         0       0       0       0       0       0       0       0       0
  2253 ;;      Locals:         0       0       0       0       0       0       0       0       0
  2254 ;;      Temps:          0       0       0       0       0       0       0       0       0
  2255 ;;      Totals:         0       0       0       0       0       0       0       0       0
  2256 ;;Total ram usage:        0 bytes
  2257 ;; Hardware stack levels used: 1
  2258 ;; This function calls:
  2259 ;;		Nothing
  2260 ;; This function is called by:
  2261 ;;		_OLED_Command
  2262 ;;		_OLED_Clear
  2263 ;;		_OLED_WriteChar
  2264 ;;		_I2C_RepeatedStart
  2265 ;;		_OLED_Data
  2266 ;;		_OLED_ClearLine
  2267 ;; This function uses a non-reentrant model
  2268 ;;
  2269                           
  2270                           	psect	text10
  2271   007A56                     __ptext10:
  2272                           	callstack 0
  2273   007A56                     _I2C_Start:
  2274                           	callstack 28
  2275   007A56                     
  2276                           ;i2c.c: 20:     TRISBbits.TRISB1 = 0;
  2277   007A56  9293               	bcf	147,1,c	;volatile
  2278                           
  2279                           ;i2c.c: 21:     LATBbits.LATB1 = 1; _delay((unsigned long)((5)*(8000000/4000000.0)));
  2280   007A58  828A               	bsf	138,1,c	;volatile
  2281   007A5A  0E03               	movlw	3
  2282   007A5C                     u487:
  2283   007A5C  2EE8               	decfsz	wreg,f,c
  2284   007A5E  D7FE               	bra	u487
  2285   007A60  0000               	nop	
  2286   007A62                     
  2287                           ;i2c.c: 22:     LATBbits.LATB0 = 1; _delay((unsigned long)((5)*(8000000/4000000.0)));
  2288   007A62  808A               	bsf	138,0,c	;volatile
  2289   007A64  0E03               	movlw	3
  2290   007A66                     u497:
  2291   007A66  2EE8               	decfsz	wreg,f,c
  2292   007A68  D7FE               	bra	u497
  2293   007A6A  0000               	nop	
  2294   007A6C                     
  2295                           ;i2c.c: 23:     LATBbits.LATB1 = 0; _delay((unsigned long)((5)*(8000000/4000000.0)));
  2296   007A6C  928A               	bcf	138,1,c	;volatile
  2297   007A6E  0E03               	movlw	3
  2298   007A70                     u507:
  2299   007A70  2EE8               	decfsz	wreg,f,c
  2300   007A72  D7FE               	bra	u507
  2301   007A74  0000               	nop	
  2302   007A76                     
  2303                           ;i2c.c: 24:     LATBbits.LATB0 = 0; _delay((unsigned long)((5)*(8000000/4000000.0)));
  2304   007A76  908A               	bcf	138,0,c	;volatile
  2305   007A78  0E03               	movlw	3
  2306   007A7A                     u517:
  2307   007A7A  2EE8               	decfsz	wreg,f,c
  2308   007A7C  D7FE               	bra	u517
  2309   007A7E  0000               	nop	
  2310   007A80  0012               	return		;funcret
  2311   007A82                     __end_of_I2C_Start:
  2312                           	callstack 0
  2313                           
  2314 ;; *************** function _I2C_Init *****************
  2315 ;; Defined at:
  2316 ;;		line 11 in file "i2c.c"
  2317 ;; Parameters:    Size  Location     Type
  2318 ;;		None
  2319 ;; Auto vars:     Size  Location     Type
  2320 ;;		None
  2321 ;; Return value:  Size  Location     Type
  2322 ;;                  1    wreg      void 
  2323 ;; Registers used:
  2324 ;;		None
  2325 ;; Tracked objects:
  2326 ;;		On entry : 0/0
  2327 ;;		On exit  : 0/0
  2328 ;;		Unchanged: 0/0
  2329 ;; Data sizes:     COMRAM   BANK0   BANK1   BANK2   BANK3   BANK4   BANK5   BANK6   BANK7
  2330 ;;      Params:         0       0       0       0       0       0       0       0       0
  2331 ;;      Locals:         0       0       0       0       0       0       0       0       0
  2332 ;;      Temps:          0       0       0       0       0       0       0       0       0
  2333 ;;      Totals:         0       0       0       0       0       0       0       0       0
  2334 ;;Total ram usage:        0 bytes
  2335 ;; Hardware stack levels used: 1
  2336 ;; This function calls:
  2337 ;;		Nothing
  2338 ;; This function is called by:
  2339 ;;		_main
  2340 ;; This function uses a non-reentrant model
  2341 ;;
  2342                           
  2343                           	psect	text11
  2344   0079E8                     __ptext11:
  2345                           	callstack 0
  2346   0079E8                     _I2C_Init:
  2347                           	callstack 30
  2348   0079E8                     
  2349                           ;i2c.c: 12:     TRISBbits.TRISB0 = 0;
  2350   0079E8  9093               	bcf	147,0,c	;volatile
  2351                           
  2352                           ;i2c.c: 13:     TRISBbits.TRISB1 = 0;
  2353   0079EA  9293               	bcf	147,1,c	;volatile
  2354                           
  2355                           ;i2c.c: 14:     LATBbits.LATB0 = 1;
  2356   0079EC  808A               	bsf	138,0,c	;volatile
  2357                           
  2358                           ;i2c.c: 15:     LATBbits.LATB1 = 1;
  2359   0079EE  828A               	bsf	138,1,c	;volatile
  2360                           
  2361                           ;i2c.c: 16:     INTCON2bits.RBPU = 0;
  2362   0079F0  9EF1               	bcf	241,7,c	;volatile
  2363   0079F2  0012               	return		;funcret
  2364   0079F4                     __end_of_I2C_Init:
  2365                           	callstack 0
  2366                           
  2367                           	psect	rparam
  2368   000001                     ___rparam_used  equ	1
  2369   000000                     ___param_bank   equ	0
  2370   000000                     __Lparam        equ	__Lrparam
  2371   000000                     __Hparam        equ	__Hrparam
  2372                           
  2373                           	psect	config
  2374                           
  2375                           ;Config register CONFIG1L @ 0x300000
  2376                           ;	unspecified, using default values
  2377                           ;	PLL Prescaler Selection bits
  2378                           ;	PLLDIV = 0x0, unprogrammed default
  2379                           ;	System Clock Postscaler Selection bits
  2380                           ;	CPUDIV = 0x0, unprogrammed default
  2381                           ;	USB Clock Selection bit (used in Full-Speed USB mode only; UCFG:FSEN = 1)
  2382                           ;	USBDIV = 0x0, unprogrammed default
  2383   300000                     	org	3145728
  2384   300000  00                 	db	0
  2385                           
  2386                           ;Config register CONFIG1H @ 0x300001
  2387                           ;	Oscillator Selection bits
  2388                           ;	FOSC = INTOSCIO_EC, Internal oscillator, port function on RA6, EC used by USB (INTIO)
  2389                           ;	Fail-Safe Clock Monitor Enable bit
  2390                           ;	FCMEN = 0x0, unprogrammed default
  2391                           ;	Internal/External Oscillator Switchover bit
  2392                           ;	IESO = 0x0, unprogrammed default
  2393   300001                     	org	3145729
  2394   300001  08                 	db	8
  2395                           
  2396                           ;Config register CONFIG2L @ 0x300002
  2397                           ;	unspecified, using default values
  2398                           ;	Power-up Timer Enable bit
  2399                           ;	PWRT = 0x1, unprogrammed default
  2400                           ;	Brown-out Reset Enable bits
  2401                           ;	BOR = 0x3, unprogrammed default
  2402                           ;	Brown-out Reset Voltage bits
  2403                           ;	BORV = 0x3, unprogrammed default
  2404                           ;	USB Voltage Regulator Enable bit
  2405                           ;	VREGEN = 0x0, unprogrammed default
  2406   300002                     	org	3145730
  2407   300002  1F                 	db	31
  2408                           
  2409                           ;Config register CONFIG2H @ 0x300003
  2410                           ;	Watchdog Timer Enable bit
  2411                           ;	WDT = OFF, WDT disabled (control is placed on the SWDTEN bit)
  2412                           ;	Watchdog Timer Postscale Select bits
  2413                           ;	WDTPS = 0xF, unprogrammed default
  2414   300003                     	org	3145731
  2415   300003  1E                 	db	30
  2416                           
  2417                           ; Padding undefined space
  2418   300004                     	org	3145732
  2419   300004  FF                 	db	255
  2420                           
  2421                           ;Config register CONFIG3H @ 0x300005
  2422                           ;	CCP2 MUX bit
  2423                           ;	CCP2MX = 0x1, unprogrammed default
  2424                           ;	PORTB A/D Enable bit
  2425                           ;	PBADEN = OFF, PORTB<4:0> pins are configured as digital I/O on Reset
  2426                           ;	Low-Power Timer 1 Oscillator Enable bit
  2427                           ;	LPT1OSC = 0x0, unprogrammed default
  2428                           ;	MCLR Pin Enable bit
  2429                           ;	MCLRE = ON, MCLR pin enabled; RE3 input pin disabled
  2430   300005                     	org	3145733
  2431   300005  81                 	db	129
  2432                           
  2433                           ;Config register CONFIG4L @ 0x300006
  2434                           ;	Stack Full/Underflow Reset Enable bit
  2435                           ;	STVREN = 0x1, unprogrammed default
  2436                           ;	Single-Supply ICSP Enable bit
  2437                           ;	LVP = OFF, Single-Supply ICSP disabled
  2438                           ;	Dedicated In-Circuit Debug/Programming Port (ICPORT) Enable bit
  2439                           ;	ICPRT = 0x0, unprogrammed default
  2440                           ;	Extended Instruction Set Enable bit
  2441                           ;	XINST = 0x0, unprogrammed default
  2442                           ;	Background Debugger Enable bit
  2443                           ;	DEBUG = 0x1, unprogrammed default
  2444   300006                     	org	3145734
  2445   300006  81                 	db	129
  2446                           
  2447                           ; Padding undefined space
  2448   300007                     	org	3145735
  2449   300007  FF                 	db	255
  2450                           tosu	equ	0xFFF
  2451                           tosh	equ	0xFFE
  2452                           tosl	equ	0xFFD
  2453                           stkptr	equ	0xFFC
  2454                           pclatu	equ	0xFFB
  2455                           pclath	equ	0xFFA
  2456                           pcl	equ	0xFF9
  2457                           tblptru	equ	0xFF8
  2458                           tblptrh	equ	0xFF7
  2459                           tblptrl	equ	0xFF6
  2460                           tablat	equ	0xFF5
  2461                           prodh	equ	0xFF4
  2462                           prodl	equ	0xFF3
  2463                           indf0	equ	0xFEF
  2464                           postinc0	equ	0xFEE
  2465                           postdec0	equ	0xFED
  2466                           preinc0	equ	0xFEC
  2467                           plusw0	equ	0xFEB
  2468                           fsr0h	equ	0xFEA
  2469                           fsr0l	equ	0xFE9
  2470                           wreg	equ	0xFE8
  2471                           indf1	equ	0xFE7
  2472                           postinc1	equ	0xFE6
  2473                           postdec1	equ	0xFE5
  2474                           preinc1	equ	0xFE4
  2475                           plusw1	equ	0xFE3
  2476                           fsr1h	equ	0xFE2
  2477                           fsr1l	equ	0xFE1
  2478                           bsr	equ	0xFE0
  2479                           indf2	equ	0xFDF
  2480                           postinc2	equ	0xFDE
  2481                           postdec2	equ	0xFDD
  2482                           preinc2	equ	0xFDC
  2483                           plusw2	equ	0xFDB
  2484                           fsr2h	equ	0xFDA
  2485                           fsr2l	equ	0xFD9
  2486                           status	equ	0xFD8

Data Sizes:
    Strings     180
    Constant    200
    Data        0
    BSS         0
    Persistent  0
    Stack       0

Auto Spaces:
    Space          Size  Autos    Used
    COMRAM           95     15      15
    BANK0           160      0       0
    BANK1           256      0       0
    BANK2           256      0       0
    BANK3           256      0       0
    BANK4           256      0       0
    BANK5           256      0       0
    BANK6           256      0       0
    BANK7           256      0       0

Pointer List with Targets:

    OLED_WriteString@str	PTR unsigned char  size(2) Largest target is 16
		 -> OLED_Vitals@buf(COMRAM[6]), STR_1(CODE[15]), STR_10(CODE[14]), STR_11(CODE[7]), 
		 -> STR_12(CODE[8]), STR_13(CODE[9]), STR_14(CODE[14]), STR_15(CODE[6]), 
		 -> STR_16(CODE[9]), STR_17(CODE[9]), STR_18(CODE[8]), STR_19(CODE[11]), 
		 -> STR_2(CODE[11]), STR_3(CODE[11]), STR_4(CODE[13]), STR_5(CODE[16]), 
		 -> STR_6(CODE[16]), STR_7(CODE[7]), STR_8(CODE[2]), STR_9(CODE[7]), 


Critical Paths under _main in COMRAM

    _main->_OLED_WriteString
    _OLED_WriteString->_OLED_WriteChar
    _OLED_WriteChar->_I2C_Write
    _OLED_SetCursor->_OLED_Command
    _OLED_Init->_OLED_Command
    _OLED_Clear->_OLED_Command
    _OLED_Command->_I2C_Write

Critical Paths under _main in BANK0

    None.

Critical Paths under _main in BANK1

    None.

Critical Paths under _main in BANK2

    None.

Critical Paths under _main in BANK3

    None.

Critical Paths under _main in BANK4

    None.

Critical Paths under _main in BANK5

    None.

Critical Paths under _main in BANK6

    None.

Critical Paths under _main in BANK7

    None.

Call Graph Tables:

 ---------------------------------------------------------------------------------
 (Depth) Function   	        Calls       Base Space   Used Autos Params    Refs
 ---------------------------------------------------------------------------------
 (0) _main                                                 2     2      0     722
                                             13 COMRAM     2     2      0
                           _I2C_Init
                         _OLED_Clear
                          _OLED_Init
                     _OLED_SetCursor
                   _OLED_WriteString
                              _setup
 ---------------------------------------------------------------------------------
 (1) _setup                                                2     2      0       0
                                              0 COMRAM     2     2      0
 ---------------------------------------------------------------------------------
 (1) _OLED_WriteString                                     2     0      2     323
                                             11 COMRAM     2     0      2
                     _OLED_WriteChar
 ---------------------------------------------------------------------------------
 (2) _OLED_WriteChar                                       8     8      0     255
                                              3 COMRAM     8     8      0
                          _I2C_Start
                           _I2C_Stop
                          _I2C_Write
 ---------------------------------------------------------------------------------
 (1) _OLED_SetCursor                                       2     1      1     159
                                              4 COMRAM     2     1      1
                       _OLED_Command
 ---------------------------------------------------------------------------------
 (1) _OLED_Init                                            2     2      0      60
                                              4 COMRAM     2     2      0
                       _OLED_Command
 ---------------------------------------------------------------------------------
 (1) _OLED_Clear                                           2     2      0     180
                                              4 COMRAM     2     2      0
                          _I2C_Start
                           _I2C_Stop
                          _I2C_Write
                       _OLED_Command
 ---------------------------------------------------------------------------------
 (2) _OLED_Command                                         1     1      0      60
                                              3 COMRAM     1     1      0
                          _I2C_Start
                           _I2C_Stop
                          _I2C_Write
 ---------------------------------------------------------------------------------
 (3) _I2C_Write                                            3     3      0      45
                                              0 COMRAM     3     3      0
 ---------------------------------------------------------------------------------
 (3) _I2C_Stop                                             0     0      0       0
 ---------------------------------------------------------------------------------
 (3) _I2C_Start                                            0     0      0       0
 ---------------------------------------------------------------------------------
 (1) _I2C_Init                                             0     0      0       0
 ---------------------------------------------------------------------------------
 Estimated maximum stack depth 3
 ---------------------------------------------------------------------------------

 Call Graph Graphs:

 _main (ROOT)
   _I2C_Init
   _OLED_Clear
     _I2C_Start
     _I2C_Stop
     _I2C_Write
     _OLED_Command
       _I2C_Start
       _I2C_Stop
       _I2C_Write
   _OLED_Init
     _OLED_Command
   _OLED_SetCursor
     _OLED_Command
   _OLED_WriteString
     _OLED_WriteChar
       _I2C_Start
       _I2C_Stop
       _I2C_Write
   _setup

Address spaces:
Name               Size   Autos  Total    Usage
BITCOMRAM           95      0       0      0.0%
BITBANK0           160      0       0      0.0%
BITBANK1           256      0       0      0.0%
BITBANK2           256      0       0      0.0%
BITBANK3           256      0       0      0.0%
BITBANK4           256      0       0      0.0%
BITBANK5           256      0       0      0.0%
BITBANK6           256      0       0      0.0%
BITBANK7           256      0       0      0.0%
BITBIGSFRh         126      0       0      0.0%
BITBIGSFRl          33      0       0      0.0%
COMRAM              95     15      15     15.8%
BANK0              160      0       0      0.0%
BANK1              256      0       0      0.0%
BANK2              256      0       0      0.0%
BANK3              256      0       0      0.0%
BANK4              256      0       0      0.0%
BANK5              256      0       0      0.0%
BANK6              256      0       0      0.0%
BANK7              256      0       0      0.0%
BIGRAM            2047      0       0      0.0%
STACK                0      0       0      0.0%
DATA                 0      0      15      0.0%


Microchip Technology PIC18 Macro Assembler V3.10 build 20250813170317 
Symbol Table                                                                                   Sat May 30 20:15:21 2026

                      l13 79F2                        l16 7A80                        l26 7BCE  
                      l19 7A32                        l27 7BEE                        l62 7D42  
                      l56 7A10                        l69 7B18                        l77 7A54  
                      l93 7E7C                        l99 7B76                        u10 7B8E  
                      u11 7B86                        u30 7BCE                        u31 7BCA  
                      u40 7D5E                        u41 7D5A                        u50 7D78  
                      u51 7D74                        u28 7B90                        u60 7D88  
                      u61 7D84                        u70 7DA8                        u71 7DA4  
                      u80 7DB8                        u81 7DB4                        u90 7DDA  
                      u91 7DD6                       l150 7A86                       l153 7AC0  
                     l951 7A62                       l953 7A6C                       l961 7A1E  
                     l955 7A76                       l947 7A56                       l963 7A28  
                     l971 7B7C                       l949 7A5A                       l957 7A12  
                     l981 7BB4                       l973 7BA0                       l965 7B7A  
                     l959 7A16                       l991 7BE4                       l983 7BBE  
                     l975 7BA8                       l985 7BD0                       l977 7BAA  
                     l993 79F6                       l987 7BD8                       l979 7BB2  
                     l995 79FA                       l989 7BE2                       l997 7A00  
                     l999 7A06                       u100 7DF6                       u101 7DF2  
                     u110 7E12                       u111 7E0E                       u120 7E72  
                     u121 7E6E                       u130 7B02                       u131 7AFE  
                     u140 7B18                       u300 7B66                       u141 7B14  
                     u310 7B76                       u311 7B72                       u307 7B5C  
                     u180 7A94                       u181 7A90                       u407 7BAC  
                     u417 7BB6                       u290 7B3E                       u507 7A70  
                     u427 7BD2                       u347 7C50                       u517 7A7A  
                     u437 7BDC                       u357 7C68                       u447 7BE8  
                     u367 7A9E                       u457 7A18                       u377 7C86  
                     u297 7B34                       u467 7A22                       u387 7D34  
                     u477 7A2C                       u397 7BA2                       u487 7A5C  
                     u497 7A66          ??_OLED_SetCursor 0006                       wreg 0FE8  
__end_of_OLED_WriteString 7B78                      l1001 7A0C                      l1011 7D78  
                    l1003 7D46                      l1101 7D12                      l1021 7DC8  
                    l1013 7D88                      l1005 7D4C                      l1111 7AC2  
                    l1103 7D18                      l1031 7E12                      l1023 7DDA  
                    l1015 7D98                      l1007 7D5E                      l1121 7ADC  
                    l1105 7D1E                      l1025 7DE4                      l1017 7DA8  
                    l1033 7E18                      l1009 7D68                      l1131 7AEA  
                    l1123 7AE2                      l1107 7D24                      l1051 7E72  
                    l1035 7E1C                      l1027 7DF6                      l1019 7DB8  
                    l1141 7B08                      l1133 7AF0                      l1125 7AE8  
                    l1117 7AC4                      l1109 7D2A                      l1061 7C9A  
                    l1053 7E78                      l1045 7E2A                      l1037 7E22  
                    l1029 7E00                      l1055 79E8                      l1135 7AF2  
                    l1119 7AD8                      l1071 7CB8                      l1063 7CA0  
                    l1047 7E60                      l1039 7E28                      l1137 7B02  
                    l1081 7CD6                      l1073 7CBE                      l1065 7CA6  
                    l1057 7C7C                      l1049 7E62                      l1161 7A94  
                    l1139 7B06                      l1091 7CF4                      l1083 7CDC  
                    l1075 7CC4                      l1067 7CAC                      l1059 7C94  
                    l1171 7AB6                      l1163 7AAC                      l1093 7CFA  
                    l1085 7CE2                      l1077 7CCA                      l1069 7CB2  
                    l1173 7AB8                      l1165 7AAE                      l1095 7D00  
                    l1087 7CE8                      l1079 7CD0                      l1175 7ABC  
                    l1167 7AB0                      l1159 7A82                      l1097 7D06  
                    l1089 7CEE                      l1169 7AB4                      l1099 7D0C  
                    l1383 7A36                      l1391 7B1A                      l1471 7BF4  
                    l1385 7A3A                      l1393 7B1E                      l1481 7C16  
                    l1473 7BF8                      l1387 7A42                      l1395 7B42  
                    l1491 7C44                      l1483 7C20                      l1475 7BFC  
                    l1389 7A4A                      l1397 7B46                      l1493 7C46  
                    l1485 7C2C                      l1477 7C00                      l1469 7BF0  
                    l1495 7C5C                      l1487 7C36                      l1479 7C0A  
                    l1497 7C5E                      l1489 7C42                      STR_1 7F67  
                    STR_2 7F9F                      STR_3 7FAA                      STR_4 7F92  
                    STR_5 7F57                      STR_6 7F47                      STR_7 7FE7  
                    STR_9 7FE0               ?_OLED_Clear 0001                      _LATB 0F8A  
                    _LATD 0F8C                      _main 7BF0          __end_of_I2C_Init 79F4  
                    fsr0h 0FEA                      indf0 0FEF                      fsr0l 0FE9  
        __end_of_I2C_Stop 7A34                      prodh 0FF4                      prodl 0FF3  
                    start 7FFC       OLED_WriteString@str 000C              ___param_bank 0000  
        ??_OLED_WriteChar 0004                     ?_main 0001                     STR_10 7F76  
                   STR_11 7FEE                     STR_12 7FD8                     STR_13 7FBE  
                   STR_14 7F84                     STR_15 7FF5                     STR_16 7FC7  
                   STR_17 7FB5                     STR_18 7FD0                     STR_19 7F9F  
                   _CMCON 0FB4                     _TRISB 0F93                     _TRISD 0F95  
         __end_of_font5x7 7F47                     _setup 7A82         __end_of_I2C_Start 7A82  
       __end_of_I2C_Write 7BF0                     tablat 0FF5                     status 0FD8  
         __initialization 79DE              __end_of_main 7C7C                    ??_main 000E  
           __activetblptr 0002                    _ADCON1 0FC1                    ?_setup 0001  
       __end_of_OLED_Init 7D44                    _OSCCON 0FD3             ?_OLED_Command 0001  
             OLED_Clear@i 0005                    isa$std 0001                 ?_I2C_Init 0001  
               ?_I2C_Stop 0001              __mediumconst 7E7E                    tblptrh 0FF7  
                  tblptrl 0FF6                    tblptru 0FF8            ??_OLED_Command 0004  
              __accesstop 0060   __end_of__initialization 79DE             ___rparam_used 0001  
          __pcstackCOMRAM 0001             __end_of_setup 7AC2                ??_I2C_Init 0001  
              ??_I2C_Stop 0001         ?_OLED_WriteString 000C                   ??_setup 0001  
            ??_OLED_Clear 0005        ??_OLED_WriteString 000E                I2C_Write@i 0003  
      __end_of_OLED_Clear 7B1A                 _I2C_Start 7A56                 _I2C_Write 7B78  
                 __Hparam 0000                   __Lparam 0000        OLED_SetCursor@page 0005  
                 __pcinit 79DE                   __ramtop 0800      __end_of_OLED_Command 7A12  
                 __ptext0 7BF0                   __ptext1 7A82                   __ptext2 7B1A  
                 __ptext3 7D44                   __ptext4 7A34                   __ptext5 7C7C  
                 __ptext6 7AC2                   __ptext7 79F4                   __ptext8 7B78  
                 __ptext9 7A12                   _font5x7 7E7F      end_of_initialization 79DE  
           __Lmediumconst 7E7E                 _OLED_Init 7C7C                ?_I2C_Start 0001  
              ?_I2C_Write 0001                 _PORTBbits 0F81                 _TRISBbits 0F93  
         OLED_Command@cmd 0004                ?_OLED_Init 0001       start_initialization 79DE  
             ??_I2C_Start 0001               ??_I2C_Write 0001            _OLED_SetCursor 7A34  
            _OLED_Command 79F4               ??_OLED_Init 0005             __pmediumconst 7E7E  
             __smallconst 7E7E                  _I2C_Init 79E8                  _I2C_Stop 7A12  
          _OLED_WriteChar 7D44         OLED_SetCursor@col 0006    __end_of_OLED_SetCursor 7A56  
          OLED_Clear@page 0006                  _LATBbits 0F8A                  _LATDbits 0F8C  
  __end_of_OLED_WriteChar 7E7E               _INTCON2bits 0FF1           ?_OLED_SetCursor 0005  
                __Hrparam 0000          _OLED_WriteString 7B1A                  __Lrparam 0000  
           I2C_Write@data 0002           ?_OLED_WriteChar 0001       OLED_WriteChar@index 0008  
                __ptext10 7A56                  __ptext11 79E8           OLED_WriteChar@c 000B  
         OLED_WriteChar@i 000A                  isa$xinst 0000                _OLED_Clear 7AC2  
              _OSCCONbits 0FD3  
